; Listing generated by Microsoft (R) Optimizing Compiler Version 17.00.50727.1 

	TITLE	C:\Users\Glenn\Documents\GitHub\Wind\Project\Wind\Wind\ioutil.cpp
	.686P
	.XMM
	include listing.inc
	.model	flat

INCLUDELIB OLDNAMES

EXTRN	___report_rangecheckfailure:PROC
EXTRN	__imp__GetModuleFileNameW@12:PROC
	ORG $+2
$SG4294945726 DB '\', 00H, '/', 00H, 00H, 00H
PUBLIC	?find_last_of@?$basic_string@_WU?$char_traits@_W@std@@V?$allocator@_W@2@@std@@QBEIPB_WII@Z ; std::basic_string<wchar_t,std::char_traits<wchar_t>,std::allocator<wchar_t> >::find_last_of
PUBLIC	?find_last_of@?$basic_string@_WU?$char_traits@_W@std@@V?$allocator@_W@2@@std@@QBEIPB_WI@Z ; std::basic_string<wchar_t,std::char_traits<wchar_t>,std::allocator<wchar_t> >::find_last_of
PUBLIC	??4?$basic_string@_WU?$char_traits@_W@std@@V?$allocator@_W@2@@std@@QAEAAV01@PB_W@Z ; std::basic_string<wchar_t,std::char_traits<wchar_t>,std::allocator<wchar_t> >::operator=
PUBLIC	?init@IOUtil@@YAXXZ				; IOUtil::init
PUBLIC	?find@?$char_traits@_W@std@@SAPB_WPB_WIAB_W@Z	; std::char_traits<wchar_t>::find
PUBLIC	_wmemchr
PUBLIC	?EXE_DIR@IOUtil@@3V?$basic_string@_WU?$char_traits@_W@std@@V?$allocator@_W@2@@std@@A ; IOUtil::EXE_DIR
_allocator_arg DB 01H DUP (?)
	ALIGN	4

_piecewise_construct DB 01H DUP (?)
_BSS	ENDS
	ORG $+3
?EXE_DIR@IOUtil@@3V?$basic_string@_WU?$char_traits@_W@std@@V?$allocator@_W@2@@std@@A DW 00H ; IOUtil::EXE_DIR
	DB	14 DUP(00H)
	DD	00H
	DD	07H
_EXE_DIR$initializer$ DD FLAT:??__EEXE_DIR@IOUtil@@YAXXZ
; Function compile flags: /Ogtp
; File c:\program files (x86)\microsoft visual studio 11.0\vc\include\wchar.h
;	COMDAT _wmemchr
_TEXT	SEGMENT
__N$ = 8						; size = 4
_wmemchr PROC						; COMDAT
; __S$dead$ = ecx
; __C$ = dx

; 1241 :         {for (; 0 < _N; ++_S, --_N)

  00000	55		 push	 ebp
  00001	8b ec		 mov	 ebp, esp
  00003	51		 push	 ecx
  00004	8b 4d 08	 mov	 ecx, DWORD PTR __N$[ebp]
  00007	b8 00 00 00 00	 mov	 eax, OFFSET $SG4294945726
  0000c	85 c9		 test	 ecx, ecx
  0000e	74 0b		 je	 SHORT $LN2@wmemchr
$LL4@wmemchr:

; 1242 :                 if (*_S == _C)

  00010	66 39 10	 cmp	 WORD PTR [eax], dx
  00013	74 08		 je	 SHORT $LN5@wmemchr

; 1241 :         {for (; 0 < _N; ++_S, --_N)

  00015	83 c0 02	 add	 eax, 2
  00018	49		 dec	 ecx
  00019	75 f5		 jne	 SHORT $LL4@wmemchr
$LN2@wmemchr:

; 1243 :                         return (_CONST_RETURN wchar_t *)(_S);
; 1244 :         return (0); }

  0001b	33 c0		 xor	 eax, eax
$LN5@wmemchr:
  0001d	8b e5		 mov	 esp, ebp
  0001f	5d		 pop	 ebp
  00020	c3		 ret	 0
_wmemchr ENDP
_TEXT	ENDS
; Function compile flags: /Ogtp
; File c:\program files (x86)\microsoft visual studio 11.0\vc\include\iosfwd
; File c:\program files (x86)\microsoft visual studio 11.0\vc\include\wchar.h
; File c:\program files (x86)\microsoft visual studio 11.0\vc\include\iosfwd
;	COMDAT ?find@?$char_traits@_W@std@@SAPB_WPB_WIAB_W@Z
_TEXT	SEGMENT
__Ch$ = 8						; size = 4
?find@?$char_traits@_W@std@@SAPB_WPB_WIAB_W@Z PROC	; std::char_traits<wchar_t>::find, COMDAT
; __First$dead$ = ecx
; __Count$ = edx

; 327  : 		{	// look for _Ch in [_First, _First + _Count)

  00000	55		 push	 ebp
  00001	8b ec		 mov	 ebp, esp

; 329  : 			: (const _Elem *)_CSTD wmemchr(_First, _Ch, _Count));

  00003	85 d2		 test	 edx, edx
  00005	74 16		 je	 SHORT $LN6@find
  00007	8b 45 08	 mov	 eax, DWORD PTR __Ch$[ebp]
  0000a	b9 00 00 00 00	 mov	 ecx, OFFSET $SG4294945726
  0000f	0f b7 00	 movzx	 eax, WORD PTR [eax]
$LL8@find:
; File c:\program files (x86)\microsoft visual studio 11.0\vc\include\wchar.h

; 1242 :                 if (*_S == _C)

  00012	66 39 01	 cmp	 WORD PTR [ecx], ax
  00015	74 0a		 je	 SHORT $LN12@find

; 1241 :         {for (; 0 < _N; ++_S, --_N)

  00017	83 c1 02	 add	 ecx, 2
  0001a	4a		 dec	 edx
  0001b	75 f5		 jne	 SHORT $LL8@find
$LN6@find:
; File c:\program files (x86)\microsoft visual studio 11.0\vc\include\iosfwd

; 329  : 			: (const _Elem *)_CSTD wmemchr(_First, _Ch, _Count));

  0001d	33 c0		 xor	 eax, eax

; 330  : 		}

  0001f	5d		 pop	 ebp
  00020	c3		 ret	 0
$LN12@find:

; 329  : 			: (const _Elem *)_CSTD wmemchr(_First, _Ch, _Count));

  00021	8b c1		 mov	 eax, ecx

; 330  : 		}

  00023	5d		 pop	 ebp
  00024	c3		 ret	 0
?find@?$char_traits@_W@std@@SAPB_WPB_WIAB_W@Z ENDP	; std::char_traits<wchar_t>::find
_TEXT	ENDS
; Function compile flags: /Ogtp
; File c:\users\glenn\documents\github\wind\project\wind\wind\ioutil.cpp
;	COMDAT ??__EEXE_DIR@IOUtil@@YAXXZ
text$yc	SEGMENT
??__EEXE_DIR@IOUtil@@YAXXZ PROC				; IOUtil::`dynamic initializer for 'EXE_DIR'', COMDAT

; 6    : std::wstring IOUtil::EXE_DIR;

  00000	68 00 00 00 00	 push	 OFFSET ??__FEXE_DIR@IOUtil@@YAXXZ ; IOUtil::`dynamic atexit destructor for 'EXE_DIR''
  00005	e8 00 00 00 00	 call	 _atexit
  0000a	59		 pop	 ecx
  0000b	c3		 ret	 0
??__EEXE_DIR@IOUtil@@YAXXZ ENDP				; IOUtil::`dynamic initializer for 'EXE_DIR''
text$yc	ENDS
; Function compile flags: /Ogtp
; File c:\program files (x86)\microsoft visual studio 11.0\vc\include\xstring
; File c:\program files (x86)\microsoft visual studio 11.0\vc\include\xmemory0
; File c:\program files (x86)\microsoft visual studio 11.0\vc\include\iosfwd
; File c:\program files (x86)\microsoft visual studio 11.0\vc\include\xstring
; File c:\program files (x86)\microsoft visual studio 11.0\vc\include\iosfwd
;	COMDAT ??__FEXE_DIR@IOUtil@@YAXXZ
text$yd	SEGMENT
$T1 = -1						; size = 1
$T2 = -1						; size = 1
??__FEXE_DIR@IOUtil@@YAXXZ PROC				; IOUtil::`dynamic atexit destructor for 'EXE_DIR'', COMDAT
  00000	55		 push	 ebp
  00001	8b ec		 mov	 ebp, esp
  00003	51		 push	 ecx
; File c:\program files (x86)\microsoft visual studio 11.0\vc\include\xstring

; 2256 : 		else if (this->_BUF_SIZE <= this->_Myres)

  00004	83 3d 14 00 00
	00 08		 cmp	 DWORD PTR ?EXE_DIR@IOUtil@@3V?$basic_string@_WU?$char_traits@_W@std@@V?$allocator@_W@2@@std@@A+20, 8
  0000b	72 2e		 jb	 SHORT $LN25@dynamic
  0000d	56		 push	 esi

; 2257 : 			{	// copy any leftovers to small buffer and deallocate
; 2258 : 			pointer _Ptr = this->_Bx._Ptr;

  0000e	8b 35 00 00 00
	00		 mov	 esi, DWORD PTR ?EXE_DIR@IOUtil@@3V?$basic_string@_WU?$char_traits@_W@std@@V?$allocator@_W@2@@std@@A

; 689  : 		return (_Alty());

  00014	8d 4d ff	 lea	 ecx, DWORD PTR $T2[ebp]
  00017	e8 00 00 00 00	 call	 ??0?$_Wrap_alloc@V?$allocator@_W@std@@@std@@QAE@XZ ; std::_Wrap_alloc<std::allocator<wchar_t> >::_Wrap_alloc<std::allocator<wchar_t> >

; 2259 : 			this->_Getal().destroy(&this->_Bx._Ptr);

  0001c	68 00 00 00 00	 push	 OFFSET ?EXE_DIR@IOUtil@@3V?$basic_string@_WU?$char_traits@_W@std@@V?$allocator@_W@2@@std@@A ; IOUtil::EXE_DIR
  00021	8d 4d ff	 lea	 ecx, DWORD PTR $T2[ebp]
  00024	e8 00 00 00 00	 call	 ??$destroy@PA_W@?$_Wrap_alloc@V?$allocator@_W@std@@@std@@QAEXPAPA_W@Z ; std::_Wrap_alloc<std::allocator<wchar_t> >::destroy<wchar_t *>

; 689  : 		return (_Alty());

  00029	8d 4d ff	 lea	 ecx, DWORD PTR $T1[ebp]
  0002c	e8 00 00 00 00	 call	 ??0?$_Wrap_alloc@V?$allocator@_W@std@@@std@@QAE@XZ ; std::_Wrap_alloc<std::allocator<wchar_t> >::_Wrap_alloc<std::allocator<wchar_t> >
; File c:\program files (x86)\microsoft visual studio 11.0\vc\include\xmemory0

; 586  : 		::operator delete(_Ptr);

  00031	56		 push	 esi
  00032	e8 00 00 00 00	 call	 ??3@YAXPAX@Z		; operator delete
  00037	83 c4 04	 add	 esp, 4
  0003a	5e		 pop	 esi
$LN25@dynamic:
; File c:\program files (x86)\microsoft visual studio 11.0\vc\include\iosfwd

; 347  : 		_Left = _Right;

  0003b	33 c0		 xor	 eax, eax
; File c:\program files (x86)\microsoft visual studio 11.0\vc\include\xstring

; 2265 : 		this->_Myres = this->_BUF_SIZE - 1;

  0003d	c7 05 14 00 00
	00 07 00 00 00	 mov	 DWORD PTR ?EXE_DIR@IOUtil@@3V?$basic_string@_WU?$char_traits@_W@std@@V?$allocator@_W@2@@std@@A+20, 7

; 690  : 		}
; 691  : 	};
; 692  : 
; 693  : 		// TEMPLATE CLASS basic_string
; 694  : template<class _Elem,
; 695  : 	class _Traits,
; 696  : 	class _Alloc>
; 697  : 	class basic_string
; 698  : 		: public _String_alloc<!is_empty<_Alloc>::value,
; 699  : 			_String_base_types<_Elem, _Alloc> >
; 700  : 	{	// null-terminated transparent array of elements
; 701  : public:
; 702  : 	typedef basic_string<_Elem, _Traits, _Alloc> _Myt;
; 703  : 	typedef _String_alloc<!is_empty<_Alloc>::value,
; 704  : 		_String_base_types<_Elem, _Alloc> > _Mybase;
; 705  : 	typedef _Traits traits_type;
; 706  : 	typedef _Alloc allocator_type;
; 707  : 
; 708  : 	typedef typename _Mybase::_Alty _Alty;
; 709  : 
; 710  : 	typedef typename _Mybase::value_type value_type;
; 711  : 	typedef typename _Mybase::size_type size_type;
; 712  : 	typedef typename _Mybase::difference_type difference_type;
; 713  : 	typedef typename _Mybase::pointer pointer;
; 714  : 	typedef typename _Mybase::const_pointer const_pointer;
; 715  : 	typedef typename _Mybase::reference reference;
; 716  : 	typedef typename _Mybase::const_reference const_reference;
; 717  : 
; 718  : 	typedef typename _Mybase::iterator iterator;
; 719  : 	typedef typename _Mybase::const_iterator const_iterator;
; 720  : 
; 721  : 	typedef _STD reverse_iterator<iterator> reverse_iterator;
; 722  : 	typedef _STD reverse_iterator<const_iterator> const_reverse_iterator;
; 723  : 
; 724  : 	basic_string(const _Myt& _Right)
; 725  : 
; 726  :  #if _HAS_CPP0X
; 727  : 		: _Mybase(_Right._Getal().select_on_container_copy_construction())
; 728  : 
; 729  :  #else /* _HAS_CPP0X */
; 730  : 		: _Mybase(_Right._Getal())
; 731  :  #endif /* _HAS_CPP0X */
; 732  : 
; 733  : 		{	// construct by copying _Right
; 734  : 		_Tidy();
; 735  : 		assign(_Right, 0, npos);
; 736  : 		}
; 737  : 
; 738  :  #if _HAS_CPP0X
; 739  : 	basic_string(const _Myt& _Right, const _Alloc& _Al)
; 740  : 		: _Mybase(_Al)
; 741  : 		{	// construct by copying with allocator
; 742  : 		_Tidy();
; 743  : 		assign(_Right, 0, npos);
; 744  : 		}
; 745  :  #endif /* _HAS_CPP0X */
; 746  : 
; 747  : 	basic_string()
; 748  : 		: _Mybase()
; 749  : 		{	// construct empty string
; 750  : 		_Tidy();
; 751  : 		}
; 752  : 
; 753  : 	explicit basic_string(const _Alloc& _Al)
; 754  : 		: _Mybase(_Al)
; 755  : 		{	// construct empty string with allocator
; 756  : 		_Tidy();
; 757  : 		}
; 758  : 
; 759  : 	basic_string(const _Myt& _Right, size_type _Roff,
; 760  : 		size_type _Count = npos)
; 761  : 		: _Mybase(_Right._Getal())
; 762  : 		{	// construct from _Right [_Roff, _Roff + _Count)
; 763  : 		_Tidy();
; 764  : 		assign(_Right, _Roff, _Count);
; 765  : 		}
; 766  : 
; 767  : 	basic_string(const _Myt& _Right, size_type _Roff, size_type _Count,
; 768  : 		const _Alloc& _Al)
; 769  : 		: _Mybase(_Al)
; 770  : 		{	// construct from _Right [_Roff, _Roff + _Count) with allocator
; 771  : 		_Tidy();
; 772  : 		assign(_Right, _Roff, _Count);
; 773  : 		}
; 774  : 
; 775  : 	basic_string(const _Elem *_Ptr, size_type _Count)
; 776  : 		: _Mybase()
; 777  : 		{	// construct from [_Ptr, _Ptr + _Count)
; 778  : 		_Tidy();
; 779  : 		assign(_Ptr, _Count);
; 780  : 		}
; 781  : 
; 782  : 	basic_string(const _Elem *_Ptr, size_type _Count, const _Alloc& _Al)
; 783  : 		: _Mybase(_Al)
; 784  : 		{	// construct from [_Ptr, _Ptr + _Count) with allocator
; 785  : 		_Tidy();
; 786  : 		assign(_Ptr, _Count);
; 787  : 		}
; 788  : 
; 789  : 	basic_string(const _Elem *_Ptr)
; 790  : 		: _Mybase()
; 791  : 		{	// construct from [_Ptr, <null>)
; 792  : 		_Tidy();
; 793  : 		assign(_Ptr);
; 794  : 		}
; 795  : 
; 796  : 	basic_string(const _Elem *_Ptr, const _Alloc& _Al)
; 797  : 		: _Mybase(_Al)
; 798  : 		{	// construct from [_Ptr, <null>) with allocator
; 799  : 		_Tidy();
; 800  : 		assign(_Ptr);
; 801  : 		}
; 802  : 
; 803  : 	basic_string(size_type _Count, _Elem _Ch)
; 804  : 		: _Mybase()
; 805  : 		{	// construct from _Count * _Ch
; 806  : 		_Tidy();
; 807  : 		assign(_Count, _Ch);
; 808  : 		}
; 809  : 
; 810  : 	basic_string(size_type _Count, _Elem _Ch, const _Alloc& _Al)
; 811  : 		: _Mybase(_Al)
; 812  : 		{	// construct from _Count * _Ch with allocator
; 813  : 		_Tidy();
; 814  : 		assign(_Count, _Ch);
; 815  : 		}
; 816  : 
; 817  : 	template<class _Iter>
; 818  : 		basic_string(_Iter _First, _Iter _Last,
; 819  : 			typename enable_if<_Is_iterator<_Iter>::value,
; 820  : 				void>::type ** = 0)
; 821  : 		: _Mybase()
; 822  : 		{	// construct from [_First, _Last)
; 823  : 		_Tidy();
; 824  : 		_Construct(_First, _Last, _Iter_cat(_First));
; 825  : 		}
; 826  : 
; 827  : 	template<class _Iter>
; 828  : 		basic_string(_Iter _First, _Iter _Last, const _Alloc& _Al,
; 829  : 			typename enable_if<_Is_iterator<_Iter>::value,
; 830  : 				void>::type ** = 0)
; 831  : 		: _Mybase(_Al)
; 832  : 		{	// construct from [_First, _Last) with allocator
; 833  : 		_Tidy();
; 834  : 		_Construct(_First, _Last, _Iter_cat(_First));
; 835  : 		}
; 836  : 
; 837  : 	template<class _Iter>
; 838  : 		void _Construct(_Iter _First,
; 839  : 			_Iter _Last, input_iterator_tag)
; 840  : 		{	// initialize from [_First, _Last), input iterators
; 841  : 		_TRY_BEGIN
; 842  : 		for (; _First != _Last; ++_First)
; 843  : 			append((size_type)1, (_Elem)*_First);
; 844  : 		_CATCH_ALL
; 845  : 		_Tidy(true);
; 846  : 		_RERAISE;
; 847  : 		_CATCH_END
; 848  : 		}
; 849  : 
; 850  : 	template<class _Iter>
; 851  : 		void _Construct(_Iter _First,
; 852  : 			_Iter _Last, forward_iterator_tag)
; 853  : 		{	// initialize from [_First, _Last), forward iterators
; 854  : 		_DEBUG_RANGE(_First, _Last);
; 855  : 		size_type _Count = 0;
; 856  : 		_Distance(_First, _Last, _Count);
; 857  : 		reserve(_Count);
; 858  : 
; 859  : 		_TRY_BEGIN
; 860  : 		for (; _First != _Last; ++_First)
; 861  : 			append((size_type)1, (_Elem)*_First);
; 862  : 		_CATCH_ALL
; 863  : 		_Tidy(true);
; 864  : 		_RERAISE;
; 865  : 		_CATCH_END
; 866  : 		}
; 867  : 
; 868  : 	basic_string(const_pointer _First, const_pointer _Last)
; 869  : 		: _Mybase()
; 870  : 		{	// construct from [_First, _Last), const pointers
; 871  : 		_DEBUG_RANGE(_First, _Last);
; 872  : 		_Tidy();
; 873  : 		if (_First != _Last)
; 874  : 			assign(&*_First, _Last - _First);
; 875  : 		}
; 876  : 
; 877  : 	basic_string(const_pointer _First, const_pointer _Last,
; 878  : 		const _Alloc& _Al)
; 879  : 		: _Mybase(_Al)
; 880  : 		{	// construct from [_First, _Last), const pointers
; 881  : 		_DEBUG_RANGE(_First, _Last);
; 882  : 		_Tidy();
; 883  : 		if (_First != _Last)
; 884  : 			assign(&*_First, _Last - _First);
; 885  : 		}
; 886  : 
; 887  : 	basic_string(const_iterator _First, const_iterator _Last)
; 888  : 		: _Mybase()
; 889  : 		{	// construct from [_First, _Last), const_iterators
; 890  : 		_DEBUG_RANGE(_First, _Last);
; 891  : 		_Tidy();
; 892  : 		if (_First != _Last)
; 893  : 			assign(&*_First, _Last - _First);
; 894  : 		}
; 895  : 
; 896  : 	basic_string(_Myt&& _Right) _NOEXCEPT
; 897  : 		: _Mybase(_Right._Getal())
; 898  : 		{	// construct by moving _Right
; 899  : 		_Tidy();
; 900  : 		_Assign_rv(_STD forward<_Myt>(_Right));
; 901  : 		}
; 902  : 
; 903  : 	basic_string(_Myt&& _Right, const _Alloc& _Al)
; 904  : 		: _Mybase(_Al)
; 905  : 		{	// construct by moving _Right, allocator
; 906  : 		if (this->_Getal() != _Right._Getal())
; 907  : 			assign(_Right.begin(), _Right.end());
; 908  : 		else
; 909  : 			_Assign_rv(_STD forward<_Myt>(_Right));
; 910  : 		}
; 911  : 
; 912  : 	_Myt& operator=(_Myt&& _Right) _NOEXCEPT
; 913  : 		{	// assign by moving _Right
; 914  : 		if (this != &_Right)
; 915  : 			{	// different, assign it
; 916  : 			_Tidy(true);
; 917  : 
; 918  :  #if _HAS_CPP0X
; 919  : 			if (this->_Getal() != _Right._Getal()
; 920  : 				&& _Alty::propagate_on_container_move_assignment::value)
; 921  : 				this->_Change_alloc(_Right._Getal());
; 922  :  #endif /* _HAS_CPP0X */
; 923  : 
; 924  : 			if (this->_Getal() != _Right._Getal())
; 925  : 				assign(_Right.begin(), _Right.end());
; 926  : 			else
; 927  : 				_Assign_rv(_STD forward<_Myt>(_Right));
; 928  : 			}
; 929  : 		return (*this);
; 930  : 		}
; 931  : 
; 932  : 	_Myt& assign(_Myt&& _Right) _NOEXCEPT
; 933  : 		{	// assign by moving _Right
; 934  : 		if (this == &_Right)
; 935  : 			;
; 936  : 		else if (get_allocator() != _Right.get_allocator()
; 937  : 			&& this->_BUF_SIZE <= _Right._Myres)
; 938  : 			*this = _Right;
; 939  : 		else
; 940  : 			{	// not same, clear this and steal from _Right
; 941  : 			_Tidy(true);
; 942  : 			_Assign_rv(_STD forward<_Myt>(_Right));
; 943  : 			}
; 944  : 		return (*this);
; 945  : 		}
; 946  : 
; 947  : 	void _Assign_rv(_Myt&& _Right)
; 948  : 		{	// assign by moving _Right
; 949  : 		if (_Right._Myres < this->_BUF_SIZE)
; 950  : 			_Traits::move(this->_Bx._Buf, _Right._Bx._Buf,
; 951  : 				_Right._Mysize + 1);
; 952  : 		else
; 953  : 			{	// copy pointer
; 954  : 			this->_Getal().construct(&this->_Bx._Ptr, _Right._Bx._Ptr);
; 955  : 			_Right._Bx._Ptr = pointer();
; 956  : 			}
; 957  : 		this->_Mysize = _Right._Mysize;
; 958  : 		this->_Myres = _Right._Myres;
; 959  : 		_Right._Tidy();
; 960  : 		}
; 961  : 
; 962  : 	~basic_string() _NOEXCEPT
; 963  : 		{	// destroy the string
; 964  : 		_Tidy(true);
; 965  : 		}
; 966  : 
; 967  : 	_PGLOBAL static const size_type npos;	// bad/missing length/position
; 968  : 
; 969  : 	_Myt& operator=(const _Myt& _Right)
; 970  : 		{	// assign _Right
; 971  : 		if (this != &_Right)
; 972  : 			{	// different, assign it
; 973  :  #if _HAS_CPP0X
; 974  : 			if (this->_Getal() != _Right._Getal()
; 975  : 				&& _Alty::propagate_on_container_copy_assignment::value)
; 976  : 				{	// change allocator before copying
; 977  : 				_Tidy(true);
; 978  : 				this->_Change_alloc(_Right._Getal());
; 979  : 				}
; 980  :  #endif /* _HAS_CPP0X */
; 981  : 
; 982  : 			assign(_Right);
; 983  : 			}
; 984  : 		return (*this);
; 985  : 		}
; 986  : 
; 987  : 	_Myt& operator=(const _Elem *_Ptr)
; 988  : 		{	// assign [_Ptr, <null>)
; 989  : 		return (assign(_Ptr));
; 990  : 		}
; 991  : 
; 992  : 	_Myt& operator=(_Elem _Ch)
; 993  : 		{	// assign 1 * _Ch
; 994  : 		return (assign(1, _Ch));
; 995  : 		}
; 996  : 
; 997  : 	_Myt& operator+=(const _Myt& _Right)
; 998  : 		{	// append _Right
; 999  : 		return (append(_Right));
; 1000 : 		}
; 1001 : 
; 1002 : 	_Myt& operator+=(const _Elem *_Ptr)
; 1003 : 		{	// append [_Ptr, <null>)
; 1004 : 		return (append(_Ptr));
; 1005 : 		}
; 1006 : 
; 1007 : 	_Myt& operator+=(_Elem _Ch)
; 1008 : 		{	// append 1 * _Ch
; 1009 : 		return (append((size_type)1, _Ch));
; 1010 : 		}
; 1011 : 
; 1012 : 	_Myt& append(const _Myt& _Right)
; 1013 : 		{	// append _Right
; 1014 : 		return (append(_Right, 0, npos));
; 1015 : 		}
; 1016 : 
; 1017 : 	_Myt& append(const _Myt& _Right,
; 1018 : 		size_type _Roff, size_type _Count)
; 1019 : 		{	// append _Right [_Roff, _Roff + _Count)
; 1020 : 		if (_Right.size() < _Roff)
; 1021 : 			_Xran();	// _Roff off end
; 1022 : 		size_type _Num = _Right.size() - _Roff;
; 1023 : 		if (_Num < _Count)
; 1024 : 			_Count = _Num;	// trim _Count to size
; 1025 : 		if (npos - this->_Mysize <= _Count)
; 1026 : 			_Xlen();	// result too long
; 1027 : 
; 1028 : 		if (0 < _Count && _Grow(_Num = this->_Mysize + _Count))
; 1029 : 			{	// make room and append new stuff
; 1030 : 			_Traits::copy(this->_Myptr() + this->_Mysize,
; 1031 : 				_Right._Myptr() + _Roff, _Count);
; 1032 : 			_Eos(_Num);
; 1033 : 			}
; 1034 : 		return (*this);
; 1035 : 		}
; 1036 : 
; 1037 : 	_Myt& append(const _Elem *_Ptr, size_type _Count)
; 1038 : 		{	// append [_Ptr, _Ptr + _Count)
; 1039 :  #if _ITERATOR_DEBUG_LEVEL == 2
; 1040 : 		if (_Count != 0)
; 1041 : 			_DEBUG_POINTER(_Ptr);
; 1042 :  #endif /* _ITERATOR_DEBUG_LEVEL == 2 */
; 1043 : 
; 1044 : 		if (_Inside(_Ptr))
; 1045 : 			return (append(*this,
; 1046 : 				_Ptr - this->_Myptr(), _Count));	// substring
; 1047 : 		if (npos - this->_Mysize <= _Count)
; 1048 : 			_Xlen();	// result too long
; 1049 : 
; 1050 : 		size_type _Num;
; 1051 : 		if (0 < _Count && _Grow(_Num = this->_Mysize + _Count))
; 1052 : 			{	// make room and append new stuff
; 1053 : 			_Traits::copy(this->_Myptr() + this->_Mysize, _Ptr, _Count);
; 1054 : 			_Eos(_Num);
; 1055 : 			}
; 1056 : 		return (*this);
; 1057 : 		}
; 1058 : 
; 1059 : 	_Myt& append(const _Elem *_Ptr)
; 1060 : 		{	// append [_Ptr, <null>)
; 1061 : 		_DEBUG_POINTER(_Ptr);
; 1062 : 		return (append(_Ptr, _Traits::length(_Ptr)));
; 1063 : 		}
; 1064 : 
; 1065 : 	_Myt& append(size_type _Count, _Elem _Ch)
; 1066 : 		{	// append _Count * _Ch
; 1067 : 		if (npos - this->_Mysize <= _Count)
; 1068 : 			_Xlen();	// result too long
; 1069 : 
; 1070 : 		size_type _Num;
; 1071 : 		if (0 < _Count && _Grow(_Num = this->_Mysize + _Count))
; 1072 : 			{	// make room and append new stuff using assign
; 1073 : 			_Chassign(this->_Mysize, _Count, _Ch);
; 1074 : 			_Eos(_Num);
; 1075 : 			}
; 1076 : 		return (*this);
; 1077 : 		}
; 1078 : 
; 1079 : 	template<class _Iter>
; 1080 : 		typename enable_if<_Is_iterator<_Iter>::value,
; 1081 : 			_Myt&>::type
; 1082 : 		append(_Iter _First, _Iter _Last)
; 1083 : 		{	// append [_First, _Last), input iterators
; 1084 : 		return (replace(end(), end(), _First, _Last));
; 1085 : 		}
; 1086 : 
; 1087 : 	_Myt& append(const_pointer _First, const_pointer _Last)
; 1088 : 		{	// append [_First, _Last), const pointers
; 1089 : 		return (replace(end(), end(), _First, _Last));
; 1090 : 		}
; 1091 : 
; 1092 : 	_Myt& append(const_iterator _First, const_iterator _Last)
; 1093 : 		{	// append [_First, _Last), const_iterators
; 1094 : 		return (replace(end(), end(), _First, _Last));
; 1095 : 		}
; 1096 : 
; 1097 : 	_Myt& assign(const _Myt& _Right)
; 1098 : 		{	// assign _Right
; 1099 : 		return (assign(_Right, 0, npos));
; 1100 : 		}
; 1101 : 
; 1102 : 	_Myt& assign(const _Myt& _Right,
; 1103 : 		size_type _Roff, size_type _Count)
; 1104 : 		{	// assign _Right [_Roff, _Roff + _Count)
; 1105 : 		if (_Right.size() < _Roff)
; 1106 : 			_Xran();	// _Roff off end
; 1107 : 		size_type _Num = _Right.size() - _Roff;
; 1108 : 		if (_Count < _Num)
; 1109 : 			_Num = _Count;	// trim _Num to size
; 1110 : 
; 1111 : 		if (this == &_Right)
; 1112 : 			erase((size_type)(_Roff + _Num)), erase(0, _Roff);	// substring
; 1113 : 		else if (_Grow(_Num))
; 1114 : 			{	// make room and assign new stuff
; 1115 : 			_Traits::copy(this->_Myptr(),
; 1116 : 				_Right._Myptr() + _Roff, _Num);
; 1117 : 			_Eos(_Num);
; 1118 : 			}
; 1119 : 		return (*this);
; 1120 : 		}
; 1121 : 
; 1122 : 	_Myt& assign(const _Elem *_Ptr, size_type _Count)
; 1123 : 		{	// assign [_Ptr, _Ptr + _Count)
; 1124 :  #if _ITERATOR_DEBUG_LEVEL == 2
; 1125 : 		if (_Count != 0)
; 1126 : 			_DEBUG_POINTER(_Ptr);
; 1127 :  #endif /* _ITERATOR_DEBUG_LEVEL == 2 */
; 1128 : 
; 1129 : 		if (_Inside(_Ptr))
; 1130 : 			return (assign(*this,
; 1131 : 				_Ptr - this->_Myptr(), _Count));	// substring
; 1132 : 
; 1133 : 		if (_Grow(_Count))
; 1134 : 			{	// make room and assign new stuff
; 1135 : 			_Traits::copy(this->_Myptr(), _Ptr, _Count);
; 1136 : 			_Eos(_Count);
; 1137 : 			}
; 1138 : 		return (*this);
; 1139 : 		}
; 1140 : 
; 1141 : 	_Myt& assign(const _Elem *_Ptr)
; 1142 : 		{	// assign [_Ptr, <null>)
; 1143 : 		_DEBUG_POINTER(_Ptr);
; 1144 : 		return (assign(_Ptr, _Traits::length(_Ptr)));
; 1145 : 		}
; 1146 : 
; 1147 : 	_Myt& assign(size_type _Count, _Elem _Ch)
; 1148 : 		{	// assign _Count * _Ch
; 1149 : 		if (_Count == npos)
; 1150 : 			_Xlen();	// result too long
; 1151 : 
; 1152 : 		if (_Grow(_Count))
; 1153 : 			{	// make room and assign new stuff
; 1154 : 			_Chassign(0, _Count, _Ch);
; 1155 : 			_Eos(_Count);
; 1156 : 			}
; 1157 : 		return (*this);
; 1158 : 		}
; 1159 : 
; 1160 : 	template<class _Iter>
; 1161 : 		typename enable_if<_Is_iterator<_Iter>::value,
; 1162 : 			_Myt&>::type
; 1163 : 		assign(_Iter _First, _Iter _Last)
; 1164 : 		{	// assign [First, _Last), input iterators
; 1165 : 		return (replace(begin(), end(), _First, _Last));
; 1166 : 		}
; 1167 : 
; 1168 : 	_Myt& assign(const_pointer _First, const_pointer _Last)
; 1169 : 		{	// assign [First, _Last), const pointers
; 1170 : 		return (replace(begin(), end(), _First, _Last));
; 1171 : 		}
; 1172 : 
; 1173 : 	_Myt& assign(const_iterator _First, const_iterator _Last)
; 1174 : 		{	// assign [First, _Last), const_iterators
; 1175 : 		return (replace(begin(), end(), _First, _Last));
; 1176 : 		}
; 1177 : 
; 1178 : 	_Myt& insert(size_type _Off, const _Myt& _Right)
; 1179 : 		{	// insert _Right at _Off
; 1180 : 		return (insert(_Off, _Right, 0, npos));
; 1181 : 		}
; 1182 : 
; 1183 : 	_Myt& insert(size_type _Off,
; 1184 : 		const _Myt& _Right, size_type _Roff, size_type _Count)
; 1185 : 		{	// insert _Right [_Roff, _Roff + _Count) at _Off
; 1186 : 		if (this->_Mysize < _Off || _Right.size() < _Roff)
; 1187 : 			_Xran();	// _Off or _Roff off end
; 1188 : 		size_type _Num = _Right.size() - _Roff;
; 1189 : 		if (_Num < _Count)
; 1190 : 			_Count = _Num;	// trim _Count to size
; 1191 : 		if (npos - this->_Mysize <= _Count)
; 1192 : 			_Xlen();	// result too long
; 1193 : 
; 1194 : 		if (0 < _Count && _Grow(_Num = this->_Mysize + _Count))
; 1195 : 			{	// make room and insert new stuff
; 1196 : 			_Traits::move(this->_Myptr() + _Off + _Count,
; 1197 : 				this->_Myptr() + _Off,
; 1198 : 				this->_Mysize - _Off);	// empty out hole
; 1199 : 			if (this == &_Right)
; 1200 : 				_Traits::move(this->_Myptr() + _Off,
; 1201 : 					this->_Myptr() + (_Off < _Roff ? _Roff + _Count : _Roff),
; 1202 : 						_Count);	// substring
; 1203 : 			else
; 1204 : 				_Traits::copy(this->_Myptr() + _Off,
; 1205 : 					_Right._Myptr() + _Roff, _Count);	// fill hole
; 1206 : 			_Eos(_Num);
; 1207 : 			}
; 1208 : 		return (*this);
; 1209 : 		}
; 1210 : 
; 1211 : 	_Myt& insert(size_type _Off,
; 1212 : 		const _Elem *_Ptr, size_type _Count)
; 1213 : 		{	// insert [_Ptr, _Ptr + _Count) at _Off
; 1214 :  #if _ITERATOR_DEBUG_LEVEL == 2
; 1215 : 		if (_Count != 0)
; 1216 : 			_DEBUG_POINTER(_Ptr);
; 1217 :  #endif /* _ITERATOR_DEBUG_LEVEL == 2 */
; 1218 : 
; 1219 : 		if (_Inside(_Ptr))
; 1220 : 			return (insert(_Off, *this,
; 1221 : 				_Ptr - this->_Myptr(), _Count));	// substring
; 1222 : 		if (this->_Mysize < _Off)
; 1223 : 			_Xran();	// _Off off end
; 1224 : 		if (npos - this->_Mysize <= _Count)
; 1225 : 			_Xlen();	// result too long
; 1226 : 		size_type _Num;
; 1227 : 		if (0 < _Count && _Grow(_Num = this->_Mysize + _Count))
; 1228 : 			{	// make room and insert new stuff
; 1229 : 			_Traits::move(this->_Myptr() + _Off + _Count,
; 1230 : 				this->_Myptr() + _Off,
; 1231 : 				this->_Mysize - _Off);	// empty out hole
; 1232 : 			_Traits::copy(this->_Myptr() + _Off, _Ptr, _Count);	// fill hole
; 1233 : 			_Eos(_Num);
; 1234 : 			}
; 1235 : 		return (*this);
; 1236 : 		}
; 1237 : 
; 1238 : 	_Myt& insert(size_type _Off, const _Elem *_Ptr)
; 1239 : 		{	// insert [_Ptr, <null>) at _Off
; 1240 : 		_DEBUG_POINTER(_Ptr);
; 1241 : 		return (insert(_Off, _Ptr, _Traits::length(_Ptr)));
; 1242 : 		}
; 1243 : 
; 1244 : 	_Myt& insert(size_type _Off,
; 1245 : 		size_type _Count, _Elem _Ch)
; 1246 : 		{	// insert _Count * _Ch at _Off
; 1247 : 		if (this->_Mysize < _Off)
; 1248 : 			_Xran();	// _Off off end
; 1249 : 		if (npos - this->_Mysize <= _Count)
; 1250 : 			_Xlen();	// result too long
; 1251 : 		size_type _Num;
; 1252 : 		if (0 < _Count && _Grow(_Num = this->_Mysize + _Count))
; 1253 : 			{	// make room and insert new stuff
; 1254 : 			_Traits::move(this->_Myptr() + _Off + _Count,
; 1255 : 				this->_Myptr() + _Off,
; 1256 : 				this->_Mysize - _Off);	// empty out hole
; 1257 : 			_Chassign(_Off, _Count, _Ch);	// fill hole
; 1258 : 			_Eos(_Num);
; 1259 : 			}
; 1260 : 		return (*this);
; 1261 : 		}
; 1262 : 
; 1263 : 	iterator insert(const_iterator _Where)
; 1264 : 		{	// insert <null> at _Where
; 1265 : 		return (insert(_Where, _Elem()));
; 1266 : 		}
; 1267 : 
; 1268 : 	iterator insert(const_iterator _Where, _Elem _Ch)
; 1269 : 		{	// insert _Ch at _Where
; 1270 : 		size_type _Off = _Pdif(_Where, begin());
; 1271 : 		insert(_Off, 1, _Ch);
; 1272 : 		return (begin() + _Off);
; 1273 : 		}
; 1274 : 
; 1275 : 	iterator insert(const_iterator _Where, size_type _Count, _Elem _Ch)
; 1276 : 		{	// insert _Count * _Elem at _Where
; 1277 : 		size_type _Off = _Pdif(_Where, begin());
; 1278 : 		insert(_Off, _Count, _Ch);
; 1279 : 		return (begin() + _Off);
; 1280 : 		}
; 1281 : 
; 1282 : 	template<class _Iter>
; 1283 : 		typename enable_if<_Is_iterator<_Iter>::value,
; 1284 : 			iterator>::type
; 1285 : 		insert(const_iterator _Where, _Iter _First, _Iter _Last)
; 1286 : 		{	// insert [_First, _Last) at _Where, input iterators
; 1287 : 		size_type _Off = _Pdif(_Where, begin());
; 1288 : 		replace(_Where, _Where, _First, _Last);
; 1289 : 		return (begin() + _Off);
; 1290 : 		}
; 1291 : 
; 1292 : 	iterator insert(const_iterator _Where,
; 1293 : 		const_pointer _First, const_pointer _Last)
; 1294 : 		{	// insert [_First, _Last) at _Where, const pointers
; 1295 : 		size_type _Off = _Pdif(_Where, begin());
; 1296 : 		replace(_Where, _Where, _First, _Last);
; 1297 : 		return (begin() + _Off);
; 1298 : 		}
; 1299 : 
; 1300 : 	iterator insert(const_iterator _Where,
; 1301 : 		const_iterator _First, const_iterator _Last)
; 1302 : 		{	// insert [_First, _Last) at _Where, const_iterators
; 1303 : 		size_type _Off = _Pdif(_Where, begin());
; 1304 : 		replace(_Where, _Where, _First, _Last);
; 1305 : 		return (begin() + _Off);
; 1306 : 		}
; 1307 : 
; 1308 : 	_Myt& erase(size_type _Off = 0)
; 1309 : 		{	// erase elements [_Off, ...)
; 1310 : 		if (this->_Mysize < _Off)
; 1311 : 			_Xran();	// _Off off end
; 1312 : 		_Eos(_Off);
; 1313 : 		return (*this);
; 1314 : 		}
; 1315 : 
; 1316 : 	_Myt& erase(size_type _Off, size_type _Count)
; 1317 : 		{	// erase elements [_Off, _Off + _Count)
; 1318 : 		if (this->_Mysize < _Off)
; 1319 : 			_Xran();	// _Off off end
; 1320 : 		if (this->_Mysize - _Off <= _Count)
; 1321 : 			_Eos(_Off);	// erase elements [_Off, ...)
; 1322 : 		else if (0 < _Count)
; 1323 : 			{	// move elements down
; 1324 : 			value_type *_Ptr = this->_Myptr() + _Off;
; 1325 : 			size_type _Newsize = this->_Mysize - _Count;
; 1326 : 			_Traits::move(_Ptr, _Ptr + _Count, _Newsize - _Off);
; 1327 : 			_Eos(_Newsize);
; 1328 : 			}
; 1329 : 		return (*this);
; 1330 : 		}
; 1331 : 
; 1332 : 	iterator erase(const_iterator _Where)
; 1333 : 		{	// erase element at _Where
; 1334 : 		size_type _Count = _Pdif(_Where, begin());
; 1335 : 		erase(_Count, 1);
; 1336 : 		return (_STRING_ITERATOR(this->_Myptr() + _Count));
; 1337 : 		}
; 1338 : 
; 1339 : 	iterator erase(const_iterator _First, const_iterator _Last)
; 1340 : 		{	// erase substring [_First, _Last)
; 1341 : 		_DEBUG_RANGE(_First, _Last);
; 1342 : 		size_type _Count = _Pdif(_First, begin());
; 1343 : 		erase(_Count, _Pdif(_Last, _First));
; 1344 : 		return (_STRING_ITERATOR(this->_Myptr() + _Count));
; 1345 : 		}
; 1346 : 
; 1347 : 	void clear() _NOEXCEPT
; 1348 : 		{	// erase all
; 1349 : 		_Eos(0);
; 1350 : 		}
; 1351 : 
; 1352 : 	_Myt& replace(size_type _Off, size_type _N0, const _Myt& _Right)
; 1353 : 		{	// replace [_Off, _Off + _N0) with _Right
; 1354 : 		return (replace(_Off, _N0, _Right, 0, npos));
; 1355 : 		}
; 1356 : 
; 1357 : 	_Myt& replace(size_type _Off,
; 1358 : 		size_type _N0, const _Myt& _Right, size_type _Roff, size_type _Count)
; 1359 : 		{	// replace [_Off, _Off + _N0) with _Right [_Roff, _Roff + _Count)
; 1360 : 		if (this->_Mysize < _Off || _Right.size() < _Roff)
; 1361 : 			_Xran();	// _Off or _Roff off end
; 1362 : 		if (this->_Mysize - _Off < _N0)
; 1363 : 			_N0 = this->_Mysize - _Off;	// trim _N0 to size
; 1364 : 		size_type _Num = _Right.size() - _Roff;
; 1365 : 		if (_Num < _Count)
; 1366 : 			_Count = _Num;	// trim _Count to size
; 1367 : 		if (npos - _Count <= this->_Mysize - _N0)
; 1368 : 			_Xlen();	// result too long
; 1369 : 
; 1370 : 		size_type _Nm = this->_Mysize - _N0 - _Off;	// length of kept tail
; 1371 : 		size_type _Newsize = this->_Mysize + _Count - _N0;
; 1372 : 		if (this->_Mysize < _Newsize)
; 1373 : 			_Grow(_Newsize);
; 1374 : 
; 1375 : 		if (this != &_Right)
; 1376 : 			{	// no overlap, just move down and copy in new stuff
; 1377 : 			_Traits::move(this->_Myptr() + _Off + _Count,
; 1378 : 				this->_Myptr() + _Off + _N0, _Nm);	// empty hole
; 1379 : 			_Traits::copy(this->_Myptr() + _Off,
; 1380 : 				_Right._Myptr() + _Roff, _Count);	// fill hole
; 1381 : 			}
; 1382 : 		else if (_Count <= _N0)
; 1383 : 			{	// hole doesn't get larger, just copy in substring
; 1384 : 			_Traits::move(this->_Myptr() + _Off,
; 1385 : 				this->_Myptr() + _Roff, _Count);	// fill hole
; 1386 : 			_Traits::move(this->_Myptr() + _Off + _Count,
; 1387 : 				this->_Myptr() + _Off + _N0, _Nm);	// move tail down
; 1388 : 			}
; 1389 : 		else if (_Roff <= _Off)
; 1390 : 			{	// hole gets larger, substring begins before hole
; 1391 : 			_Traits::move(this->_Myptr() + _Off + _Count,
; 1392 : 				this->_Myptr() + _Off + _N0, _Nm);	// move tail down
; 1393 : 			_Traits::move(this->_Myptr() + _Off,
; 1394 : 				this->_Myptr() + _Roff, _Count);	// fill hole
; 1395 : 			}
; 1396 : 		else if (_Off + _N0 <= _Roff)
; 1397 : 			{	// hole gets larger, substring begins after hole
; 1398 : 			_Traits::move(this->_Myptr() + _Off + _Count,
; 1399 : 				this->_Myptr() + _Off + _N0, _Nm);	// move tail down
; 1400 : 			_Traits::move(this->_Myptr() + _Off,
; 1401 : 				this->_Myptr() + (_Roff + _Count - _N0),
; 1402 : 				_Count);	// fill hole
; 1403 : 			}
; 1404 : 		else
; 1405 : 			{	// hole gets larger, substring begins in hole
; 1406 : 			_Traits::move(this->_Myptr() + _Off,
; 1407 : 				this->_Myptr() + _Roff, _N0);	// fill old hole
; 1408 : 			_Traits::move(this->_Myptr() + _Off + _Count,
; 1409 : 				this->_Myptr() + _Off + _N0, _Nm);	// move tail down
; 1410 : 			_Traits::move(this->_Myptr() + _Off + _N0,
; 1411 : 				this->_Myptr() + _Roff + _Count,
; 1412 : 				_Count - _N0);	// fill rest of new hole
; 1413 : 			}
; 1414 : 
; 1415 : 		_Eos(_Newsize);
; 1416 : 		return (*this);
; 1417 : 		}
; 1418 : 
; 1419 : 	_Myt& replace(size_type _Off,
; 1420 : 		size_type _N0, const _Elem *_Ptr, size_type _Count)
; 1421 : 		{	// replace [_Off, _Off + _N0) with [_Ptr, _Ptr + _Count)
; 1422 :  #if _ITERATOR_DEBUG_LEVEL == 2
; 1423 : 		if (_Count != 0)
; 1424 : 			_DEBUG_POINTER(_Ptr);
; 1425 :  #endif /* _ITERATOR_DEBUG_LEVEL == 2 */
; 1426 : 
; 1427 : 		if (_Inside(_Ptr))
; 1428 : 			return (replace(_Off, _N0, *this,
; 1429 : 				_Ptr - this->_Myptr(),
; 1430 : 				_Count));	// substring, replace carefully
; 1431 : 		if (this->_Mysize < _Off)
; 1432 : 			_Xran();	// _Off off end
; 1433 : 		if (this->_Mysize - _Off < _N0)
; 1434 : 			_N0 = this->_Mysize - _Off;	// trim _N0 to size
; 1435 : 		if (npos - _Count <= this->_Mysize - _N0)
; 1436 : 			_Xlen();	// result too long
; 1437 : 		size_type _Nm = this->_Mysize - _N0 - _Off;
; 1438 : 
; 1439 : 		if (_Count < _N0)
; 1440 : 			_Traits::move(this->_Myptr() + _Off + _Count,
; 1441 : 				this->_Myptr() + _Off + _N0,
; 1442 : 				_Nm);	// smaller hole, move tail up
; 1443 : 		size_type _Num;
; 1444 : 		if ((0 < _Count || 0 < _N0)
; 1445 : 			&& _Grow(_Num = this->_Mysize + _Count - _N0))
; 1446 : 			{	// make room and rearrange
; 1447 : 			if (_N0 < _Count)
; 1448 : 				_Traits::move(this->_Myptr() + _Off + _Count,
; 1449 : 					this->_Myptr() + _Off + _N0, _Nm);	// move tail down
; 1450 : 			_Traits::copy(this->_Myptr() + _Off, _Ptr, _Count);	// fill hole
; 1451 : 			_Eos(_Num);
; 1452 : 			}
; 1453 : 		return (*this);
; 1454 : 		}
; 1455 : 
; 1456 : 	_Myt& replace(size_type _Off, size_type _N0, const _Elem *_Ptr)
; 1457 : 		{	// replace [_Off, _Off + _N0) with [_Ptr, <null>)
; 1458 : 		_DEBUG_POINTER(_Ptr);
; 1459 : 		return (replace(_Off, _N0, _Ptr, _Traits::length(_Ptr)));
; 1460 : 		}
; 1461 : 
; 1462 : 	_Myt& replace(size_type _Off,
; 1463 : 		size_type _N0, size_type _Count, _Elem _Ch)
; 1464 : 		{	// replace [_Off, _Off + _N0) with _Count * _Ch
; 1465 : 		if (this->_Mysize < _Off)
; 1466 : 			_Xran();	// _Off off end
; 1467 : 		if (this->_Mysize - _Off < _N0)
; 1468 : 			_N0 = this->_Mysize - _Off;	// trim _N0 to size
; 1469 : 		if (npos - _Count <= this->_Mysize - _N0)
; 1470 : 			_Xlen();	// result too long
; 1471 : 		size_type _Nm = this->_Mysize - _N0 - _Off;
; 1472 : 
; 1473 : 		if (_Count < _N0)
; 1474 : 			_Traits::move(this->_Myptr() + _Off + _Count,
; 1475 : 				this->_Myptr() + _Off + _N0,
; 1476 : 				_Nm);	// smaller hole, move tail up
; 1477 : 		size_type _Num;
; 1478 : 		if ((0 < _Count || 0 < _N0)
; 1479 : 			&& _Grow(_Num = this->_Mysize + _Count - _N0))
; 1480 : 			{	// make room and rearrange
; 1481 : 			if (_N0 < _Count)
; 1482 : 				_Traits::move(this->_Myptr() + _Off + _Count,
; 1483 : 					this->_Myptr() + _Off + _N0, _Nm);	// move tail down
; 1484 : 			_Chassign(_Off, _Count, _Ch);	// fill hole
; 1485 : 			_Eos(_Num);
; 1486 : 			}
; 1487 : 		return (*this);
; 1488 : 		}
; 1489 : 
; 1490 : 	_Myt& replace(const_iterator _First, const_iterator _Last,
; 1491 : 		const _Myt& _Right)
; 1492 : 		{	// replace [_First, _Last) with _Right
; 1493 : 		return (replace(
; 1494 : 			_Pdif(_First, begin()), _Pdif(_Last, _First), _Right));
; 1495 : 		}
; 1496 : 
; 1497 : 	_Myt& replace(const_iterator _First, const_iterator _Last,
; 1498 : 		const _Elem *_Ptr, size_type _Count)
; 1499 : 		{	// replace [_First, _Last) with [_Ptr, _Ptr + _Count)
; 1500 : 		return (replace(
; 1501 : 			_Pdif(_First, begin()), _Pdif(_Last, _First), _Ptr, _Count));
; 1502 : 		}
; 1503 : 
; 1504 : 	_Myt& replace(const_iterator _First, const_iterator _Last,
; 1505 : 		const _Elem *_Ptr)
; 1506 : 		{	// replace [_First, _Last) with [_Ptr, <null>)
; 1507 : 		return (replace(
; 1508 : 			_Pdif(_First, begin()), _Pdif(_Last, _First), _Ptr));
; 1509 : 		}
; 1510 : 
; 1511 : 	_Myt& replace(const_iterator _First, const_iterator _Last,
; 1512 : 		size_type _Count, _Elem _Ch)
; 1513 : 		{	// replace [_First, _Last) with _Count * _Ch
; 1514 : 		return (replace(
; 1515 : 			_Pdif(_First, begin()), _Pdif(_Last, _First), _Count, _Ch));
; 1516 : 		}
; 1517 : 
; 1518 : 	template<class _Iter>
; 1519 : 		typename enable_if<_Is_iterator<_Iter>::value,
; 1520 : 			_Myt&>::type
; 1521 : 		replace(const_iterator _First, const_iterator _Last,
; 1522 : 			_Iter _First2, _Iter _Last2)
; 1523 : 		{	// replace [_First, _Last) with [_First2, _Last2), input iterators
; 1524 : 		_Myt _Right(_First2, _Last2);
; 1525 : 		replace(_First, _Last, _Right);
; 1526 : 		return (*this);
; 1527 : 		}
; 1528 : 
; 1529 : 	_Myt& replace(const_iterator _First, const_iterator _Last,
; 1530 : 		const_pointer _First2, const_pointer _Last2)
; 1531 : 		{	// replace [_First, _Last) with [_First2, _Last2), const pointers
; 1532 : 		if (_First2 == _Last2)
; 1533 : 			erase(_Pdif(_First, begin()), _Pdif(_Last, _First));
; 1534 : 		else
; 1535 : 			replace(_Pdif(_First, begin()), _Pdif(_Last, _First),
; 1536 : 				&*_First2, _Last2 - _First2);
; 1537 : 		return (*this);
; 1538 : 		}
; 1539 : 
; 1540 : 	_Myt& replace(const_iterator _First, const_iterator _Last,
; 1541 : 		pointer _First2, pointer _Last2)
; 1542 : 		{	// replace [_First, _Last) with [_First2, _Last2), const pointers
; 1543 : 		if (_First2 == _Last2)
; 1544 : 			erase(_Pdif(_First, begin()), _Pdif(_Last, _First));
; 1545 : 		else
; 1546 : 			replace(_Pdif(_First, begin()), _Pdif(_Last, _First),
; 1547 : 				&*_First2, _Last2 - _First2);
; 1548 : 		return (*this);
; 1549 : 		}
; 1550 : 
; 1551 : 	_Myt& replace(const_iterator _First, const_iterator _Last,
; 1552 : 		const_iterator _First2, const_iterator _Last2)
; 1553 : 		{	// replace [_First, _Last) with [_First2, _Last2), const_iterators
; 1554 : 		if (_First2 == _Last2)
; 1555 : 			erase(_Pdif(_First, begin()), _Pdif(_Last, _First));
; 1556 : 		else
; 1557 : 			replace(_Pdif(_First, begin()), _Pdif(_Last, _First),
; 1558 : 				&*_First2, _Last2 - _First2);
; 1559 : 		return (*this);
; 1560 : 		}
; 1561 : 
; 1562 : 	_Myt& replace(const_iterator _First, const_iterator _Last,
; 1563 : 		iterator _First2, iterator _Last2)
; 1564 : 		{	// replace [_First, _Last) with [_First2, _Last2), const_iterators
; 1565 : 		if (_First2 == _Last2)
; 1566 : 			erase(_Pdif(_First, begin()), _Pdif(_Last, _First));
; 1567 : 		else
; 1568 : 			replace(_Pdif(_First, begin()), _Pdif(_Last, _First),
; 1569 : 				&*_First2, _Last2 - _First2);
; 1570 : 		return (*this);
; 1571 : 		}
; 1572 : 
; 1573 : 	iterator begin() _NOEXCEPT
; 1574 : 		{	// return iterator for beginning of mutable sequence
; 1575 : 		return (_STRING_ITERATOR(this->_Myptr()));
; 1576 : 		}
; 1577 : 
; 1578 : 	const_iterator begin() const _NOEXCEPT
; 1579 : 		{	// return iterator for beginning of nonmutable sequence
; 1580 : 		return (_STRING_CONST_ITERATOR(this->_Myptr()));
; 1581 : 		}
; 1582 : 
; 1583 : 	iterator end() _NOEXCEPT
; 1584 : 		{	// return iterator for end of mutable sequence
; 1585 : 		return (_STRING_ITERATOR(this->_Myptr() + this->_Mysize));
; 1586 : 		}
; 1587 : 
; 1588 : 	const_iterator end() const _NOEXCEPT
; 1589 : 		{	// return iterator for end of nonmutable sequence
; 1590 : 		return (_STRING_CONST_ITERATOR(this->_Myptr() + this->_Mysize));
; 1591 : 		}
; 1592 : 
; 1593 : 	reverse_iterator rbegin() _NOEXCEPT
; 1594 : 		{	// return iterator for beginning of reversed mutable sequence
; 1595 : 		return (reverse_iterator(end()));
; 1596 : 		}
; 1597 : 
; 1598 : 	const_reverse_iterator rbegin() const _NOEXCEPT
; 1599 : 		{	// return iterator for beginning of reversed nonmutable sequence
; 1600 : 		return (const_reverse_iterator(end()));
; 1601 : 		}
; 1602 : 
; 1603 : 	reverse_iterator rend() _NOEXCEPT
; 1604 : 		{	// return iterator for end of reversed mutable sequence
; 1605 : 		return (reverse_iterator(begin()));
; 1606 : 		}
; 1607 : 
; 1608 : 	const_reverse_iterator rend() const _NOEXCEPT
; 1609 : 		{	// return iterator for end of reversed nonmutable sequence
; 1610 : 		return (const_reverse_iterator(begin()));
; 1611 : 		}
; 1612 : 
; 1613 :  #if _HAS_CPP0X
; 1614 : 	const_iterator cbegin() const _NOEXCEPT
; 1615 : 		{	// return iterator for beginning of nonmutable sequence
; 1616 : 		return (((const _Myt *)this)->begin());
; 1617 : 		}
; 1618 : 
; 1619 : 	const_iterator cend() const _NOEXCEPT
; 1620 : 		{	// return iterator for end of nonmutable sequence
; 1621 : 		return (((const _Myt *)this)->end());
; 1622 : 		}
; 1623 : 
; 1624 : 	const_reverse_iterator crbegin() const _NOEXCEPT
; 1625 : 		{	// return iterator for beginning of reversed nonmutable sequence
; 1626 : 		return (((const _Myt *)this)->rbegin());
; 1627 : 		}
; 1628 : 
; 1629 : 	const_reverse_iterator crend() const _NOEXCEPT
; 1630 : 		{	// return iterator for end of reversed nonmutable sequence
; 1631 : 		return (((const _Myt *)this)->rend());
; 1632 : 		}
; 1633 : 
; 1634 : 	void shrink_to_fit()
; 1635 : 		{	// reduce capacity
; 1636 : 		if ((size() | this->_ALLOC_MASK) < capacity())
; 1637 : 			{	// worth shrinking, do it
; 1638 : 			_Myt _Tmp(*this);
; 1639 : 			swap(_Tmp);
; 1640 : 			}
; 1641 : 		}
; 1642 :  #endif /* _HAS_CPP0X */
; 1643 : 
; 1644 : 	reference at(size_type _Off)
; 1645 : 		{	// subscript mutable sequence with checking
; 1646 : 		if (this->_Mysize <= _Off)
; 1647 : 			_Xran();	// _Off off end
; 1648 : 		return (this->_Myptr()[_Off]);
; 1649 : 		}
; 1650 : 
; 1651 : 	const_reference at(size_type _Off) const
; 1652 : 		{	// subscript nonmutable sequence with checking
; 1653 : 		if (this->_Mysize <= _Off)
; 1654 : 			_Xran();	// _Off off end
; 1655 : 		return (this->_Myptr()[_Off]);
; 1656 : 		}
; 1657 : 
; 1658 : 	reference operator[](size_type _Off)
; 1659 : 		{	// subscript mutable sequence
; 1660 :  #if _ITERATOR_DEBUG_LEVEL == 2
; 1661 : 		if (this->_Mysize < _Off)	// sic
; 1662 : 			_DEBUG_ERROR("string subscript out of range");
; 1663 : 
; 1664 :  #elif _ITERATOR_DEBUG_LEVEL == 1
; 1665 : 		_SCL_SECURE_VALIDATE_RANGE(_Off <= this->_Mysize);	// sic
; 1666 :  #endif /* _ITERATOR_DEBUG_LEVEL == 2 */
; 1667 : 
; 1668 : 		return (this->_Myptr()[_Off]);
; 1669 : 		}
; 1670 : 
; 1671 : 	const_reference operator[](size_type _Off) const
; 1672 : 		{	// subscript nonmutable sequence
; 1673 :  #if _ITERATOR_DEBUG_LEVEL == 2
; 1674 : 		if (this->_Mysize < _Off)	// sic
; 1675 : 			_DEBUG_ERROR("string subscript out of range");
; 1676 : 
; 1677 :  #elif _ITERATOR_DEBUG_LEVEL == 1
; 1678 : 		_SCL_SECURE_VALIDATE_RANGE(_Off <= this->_Mysize);	// sic
; 1679 :  #endif /* _ITERATOR_DEBUG_LEVEL == 2 */
; 1680 : 
; 1681 : 		return (this->_Myptr()[_Off]);
; 1682 : 		}
; 1683 : 
; 1684 : 	void push_back(_Elem _Ch)
; 1685 : 		{	// insert element at end
; 1686 : 		insert(end(), _Ch);
; 1687 : 		}
; 1688 : 
; 1689 :  #if _HAS_CPP0X
; 1690 : 	void pop_back()
; 1691 : 		{	// erase element at end
; 1692 : 		erase(this->_Mysize - 1);	// throws if _Mysize == 0
; 1693 : 		}
; 1694 : 
; 1695 : 	reference front()
; 1696 : 		{	// return first element of mutable sequence
; 1697 : 		return (*begin());
; 1698 : 		}
; 1699 : 
; 1700 : 	const_reference front() const
; 1701 : 		{	// return first element of nonmutable sequence
; 1702 : 		return (*begin());
; 1703 : 		}
; 1704 : 
; 1705 : 	reference back()
; 1706 : 		{	// return last element of mutable sequence
; 1707 : 		return (*(end() - 1));
; 1708 : 		}
; 1709 : 
; 1710 : 	const_reference back() const
; 1711 : 		{	// return last element of nonmutable sequence
; 1712 : 		return (*(end() - 1));
; 1713 : 		}
; 1714 :  #endif /* _HAS_CPP0X */
; 1715 : 
; 1716 : 	const _Elem *c_str() const _NOEXCEPT
; 1717 : 		{	// return pointer to null-terminated nonmutable array
; 1718 : 		return (this->_Myptr());
; 1719 : 		}
; 1720 : 
; 1721 : 	const _Elem *data() const _NOEXCEPT
; 1722 : 		{	// return pointer to nonmutable array
; 1723 : 		return (c_str());
; 1724 : 		}
; 1725 : 
; 1726 : 	size_type length() const _NOEXCEPT
; 1727 : 		{	// return length of sequence
; 1728 : 		return (this->_Mysize);
; 1729 : 		}
; 1730 : 
; 1731 : 	size_type size() const _NOEXCEPT
; 1732 : 		{	// return length of sequence
; 1733 : 		return (this->_Mysize);
; 1734 : 		}
; 1735 : 
; 1736 : 	size_type max_size() const _NOEXCEPT
; 1737 : 		{	// return maximum possible length of sequence
; 1738 : 		size_type _Num = this->_Getal().max_size();
; 1739 : 		return (_Num <= 1 ? 1 : _Num - 1);
; 1740 : 		}
; 1741 : 
; 1742 : 	void resize(size_type _Newsize)
; 1743 : 		{	// determine new length, padding with null elements as needed
; 1744 : 		resize(_Newsize, _Elem());
; 1745 : 		}
; 1746 : 
; 1747 : 	void resize(size_type _Newsize, _Elem _Ch)
; 1748 : 		{	// determine new length, padding with _Ch elements as needed
; 1749 : 		if (_Newsize <= this->_Mysize)
; 1750 : 			_Eos(_Newsize);
; 1751 : 		else
; 1752 : 			append(_Newsize - this->_Mysize, _Ch);
; 1753 : 		}
; 1754 : 
; 1755 : 	size_type capacity() const _NOEXCEPT
; 1756 : 		{	// return current length of allocated storage
; 1757 : 		return (this->_Myres);
; 1758 : 		}
; 1759 : 
; 1760 : 	void reserve(size_type _Newcap = 0)
; 1761 : 		{	// determine new minimum length of allocated storage
; 1762 : 		if (this->_Mysize <= _Newcap && this->_Myres != _Newcap)
; 1763 : 			{	// change reservation
; 1764 : 			size_type _Size = this->_Mysize;
; 1765 : 			if (_Grow(_Newcap, true))
; 1766 : 				_Eos(_Size);
; 1767 : 			}
; 1768 : 		}
; 1769 : 
; 1770 : 	bool empty() const _NOEXCEPT
; 1771 : 		{	// test if sequence is empty
; 1772 : 		return (this->_Mysize == 0);
; 1773 : 		}
; 1774 : 
; 1775 : 	_SCL_INSECURE_DEPRECATE
; 1776 : 
; 1777 : 	size_type copy(_Elem *_Ptr,
; 1778 : 		size_type _Count, size_type _Off = 0) const
; 1779 : 		{	// copy [_Off, _Off + _Count) to [_Ptr, _Ptr + _Count)
; 1780 :  #if _ITERATOR_DEBUG_LEVEL == 2
; 1781 : 		if (_Count != 0)
; 1782 : 			_DEBUG_POINTER(_Ptr);
; 1783 :  #endif /* _ITERATOR_DEBUG_LEVEL == 2 */
; 1784 : 
; 1785 : 		if (this->_Mysize < _Off)
; 1786 : 			_Xran();	// _Off off end
; 1787 : 		if (this->_Mysize - _Off < _Count)
; 1788 : 			_Count = this->_Mysize - _Off;
; 1789 : 		_Traits::copy(_Ptr, this->_Myptr() + _Off, _Count);
; 1790 : 		return (_Count);
; 1791 : 		}
; 1792 : 
; 1793 : 	size_type _Copy_s(_Elem *_Dest, size_type _Dest_size,
; 1794 : 		size_type _Count, size_type _Off = 0) const
; 1795 : 		{	// copy [_Off, _Off + _Count) to [_Dest, _Dest + _Count)
; 1796 :  #if _ITERATOR_DEBUG_LEVEL == 2
; 1797 : 		if (_Count != 0)
; 1798 : 			_DEBUG_POINTER(_Dest);
; 1799 :  #endif /* _ITERATOR_DEBUG_LEVEL == 2 */
; 1800 : 
; 1801 : 		if (this->_Mysize < _Off)
; 1802 : 			_Xran();	// _Off off end
; 1803 : 		if (this->_Mysize - _Off < _Count)
; 1804 : 			_Count = this->_Mysize - _Off;
; 1805 : 		_Traits::_Copy_s(_Dest, _Dest_size, this->_Myptr() + _Off, _Count);
; 1806 : 		return (_Count);
; 1807 : 		}
; 1808 : 
; 1809 : 	void _Swap_bx(_Myt& _Right)
; 1810 : 		{	// exchange _Bx with _Right._Bx
; 1811 : 		if (this->_BUF_SIZE <= this->_Myres)
; 1812 : 			if (this->_BUF_SIZE <= _Right._Myres)
; 1813 : 				_Swap_adl(this->_Bx._Ptr, _Right._Bx._Ptr);
; 1814 : 			else
; 1815 : 				{	// swap large with small
; 1816 : 				pointer _Ptr = this->_Bx._Ptr;
; 1817 : 				this->_Getal().destroy(&this->_Bx._Ptr);
; 1818 : 				_Traits::copy(this->_Bx._Buf,
; 1819 : 					_Right._Bx._Buf, _Right._Mysize + 1);
; 1820 : 				this->_Getal().construct(&_Right._Bx._Ptr, _Ptr);
; 1821 : 				}
; 1822 : 		else
; 1823 : 			if (_Right._Myres < this->_BUF_SIZE)
; 1824 : 				_STD swap(this->_Bx._Buf, _Right._Bx._Buf);
; 1825 : 			else
; 1826 : 				{	// swap small with large
; 1827 : 				pointer _Ptr = _Right._Bx._Ptr;
; 1828 : 				this->_Getal().destroy(&_Right._Bx._Ptr);
; 1829 : 				_Traits::copy(_Right._Bx._Buf,
; 1830 : 					this->_Bx._Buf, this->_Mysize + 1);
; 1831 : 				this->_Getal().construct(&this->_Bx._Ptr, _Ptr);
; 1832 : 				}
; 1833 : 		}
; 1834 : 
; 1835 : 	void swap(_Myt& _Right)
; 1836 : 		{	// exchange contents with _Right
; 1837 : 		if (this == &_Right)
; 1838 : 			;	// same object, do nothing
; 1839 : 		else if (this->_Getal() == _Right._Getal())
; 1840 : 			{	// same allocator, swap control information
; 1841 : 			this->_Swap_all(_Right);
; 1842 : 			_Swap_bx(_Right);
; 1843 : 			_STD swap(this->_Mysize, _Right._Mysize);
; 1844 : 			_STD swap(this->_Myres, _Right._Myres);
; 1845 : 			}
; 1846 : 
; 1847 :  #if _HAS_CPP0X
; 1848 : 		else if (_Alty::propagate_on_container_swap::value)
; 1849 : 			{	// swap allocators and control information
; 1850 : 			this->_Swap_alloc(_Right);
; 1851 : 			_Swap_bx(_Right);
; 1852 : 			_STD swap(this->_Bx, _Right._Bx);	// pointer bitwise copyable?
; 1853 : 			_STD swap(this->_Mysize, _Right._Mysize);
; 1854 : 			_STD swap(this->_Myres, _Right._Myres);
; 1855 : 			}
; 1856 :  #endif /* _HAS_CPP0X */
; 1857 : 
; 1858 : 		else
; 1859 : 			{	// different allocator, do multiple assigns
; 1860 : 			_Myt _Tmp = *this;
; 1861 : 
; 1862 : 			*this = _Right;
; 1863 : 			_Right = _Tmp;
; 1864 : 			}
; 1865 : 		}
; 1866 : 
; 1867 : 	size_type find(const _Myt& _Right, size_type _Off = 0) const _NOEXCEPT
; 1868 : 		{	// look for _Right beginning at or after _Off
; 1869 : 		return (find(_Right._Myptr(), _Off, _Right.size()));
; 1870 : 		}
; 1871 : 
; 1872 : 	size_type find(const _Elem *_Ptr,
; 1873 : 		size_type _Off, size_type _Count) const
; 1874 : 		{	// look for [_Ptr, _Ptr + _Count) beginning at or after _Off
; 1875 :  #if _ITERATOR_DEBUG_LEVEL == 2
; 1876 : 		if (_Count != 0)
; 1877 : 			_DEBUG_POINTER(_Ptr);
; 1878 :  #endif /* _ITERATOR_DEBUG_LEVEL == 2 */
; 1879 : 
; 1880 : 		if (_Count == 0 && _Off <= this->_Mysize)
; 1881 : 			return (_Off);	// null string always matches (if inside string)
; 1882 : 
; 1883 : 		size_type _Nm;
; 1884 : 		if (_Off < this->_Mysize && _Count <= (_Nm = this->_Mysize - _Off))
; 1885 : 			{	// room for match, look for it
; 1886 : 			const _Elem *_Uptr, *_Vptr;
; 1887 : 			for (_Nm -= _Count - 1, _Vptr = this->_Myptr() + _Off;
; 1888 : 				(_Uptr = _Traits::find(_Vptr, _Nm, *_Ptr)) != 0;
; 1889 : 				_Nm -= _Uptr - _Vptr + 1, _Vptr = _Uptr + 1)
; 1890 : 				if (_Traits::compare(_Uptr, _Ptr, _Count) == 0)
; 1891 : 					return (_Uptr - this->_Myptr());	// found a match
; 1892 : 			}
; 1893 : 
; 1894 : 		return (npos);	// no match
; 1895 : 		}
; 1896 : 
; 1897 : 	size_type find(const _Elem *_Ptr, size_type _Off = 0) const
; 1898 : 		{	// look for [_Ptr, <null>) beginning at or after _Off
; 1899 : 		_DEBUG_POINTER(_Ptr);
; 1900 : 		return (find(_Ptr, _Off, _Traits::length(_Ptr)));
; 1901 : 		}
; 1902 : 
; 1903 : 	size_type find(_Elem _Ch, size_type _Off = 0) const
; 1904 : 		{	// look for _Ch at or after _Off
; 1905 : 		return (find((const _Elem *)&_Ch, _Off, 1));
; 1906 : 		}
; 1907 : 
; 1908 : 	size_type rfind(const _Myt& _Right, size_type _Off = npos) const _NOEXCEPT
; 1909 : 		{	// look for _Right beginning before _Off
; 1910 : 		return (rfind(_Right._Myptr(), _Off, _Right.size()));
; 1911 : 		}
; 1912 : 
; 1913 : 	size_type rfind(const _Elem *_Ptr,
; 1914 : 		size_type _Off, size_type _Count) const
; 1915 : 		{	// look for [_Ptr, _Ptr + _Count) beginning before _Off
; 1916 :  #if _ITERATOR_DEBUG_LEVEL == 2
; 1917 : 		if (_Count != 0)
; 1918 : 			_DEBUG_POINTER(_Ptr);
; 1919 :  #endif /* _ITERATOR_DEBUG_LEVEL == 2 */
; 1920 : 
; 1921 : 		if (_Count == 0)
; 1922 : 			return (_Off < this->_Mysize ? _Off
; 1923 : 				: this->_Mysize);	// null always matches
; 1924 : 		if (_Count <= this->_Mysize)
; 1925 : 			{	// room for match, look for it
; 1926 : 			const _Elem *_Uptr = this->_Myptr() +
; 1927 : 				(_Off < this->_Mysize - _Count ? _Off
; 1928 : 					: this->_Mysize - _Count);
; 1929 : 			for (; ; --_Uptr)
; 1930 : 				if (_Traits::eq(*_Uptr, *_Ptr)
; 1931 : 					&& _Traits::compare(_Uptr, _Ptr, _Count) == 0)
; 1932 : 					return (_Uptr - this->_Myptr());	// found a match
; 1933 : 				else if (_Uptr == this->_Myptr())
; 1934 : 					break;	// at beginning, no more chance for match
; 1935 : 			}
; 1936 : 
; 1937 : 		return (npos);	// no match
; 1938 : 		}
; 1939 : 
; 1940 : 	size_type rfind(const _Elem *_Ptr, size_type _Off = npos) const
; 1941 : 		{	// look for [_Ptr, <null>) beginning before _Off
; 1942 : 		_DEBUG_POINTER(_Ptr);
; 1943 : 		return (rfind(_Ptr, _Off, _Traits::length(_Ptr)));
; 1944 : 		}
; 1945 : 
; 1946 : 	size_type rfind(_Elem _Ch, size_type _Off = npos) const
; 1947 : 		{	// look for _Ch before _Off
; 1948 : 		return (rfind((const _Elem *)&_Ch, _Off, 1));
; 1949 : 		}
; 1950 : 
; 1951 : 	size_type find_first_of(const _Myt& _Right,
; 1952 : 		size_type _Off = 0) const _NOEXCEPT
; 1953 : 		{	// look for one of _Right at or after _Off
; 1954 : 		return (find_first_of(_Right._Myptr(), _Off, _Right.size()));
; 1955 : 		}
; 1956 : 
; 1957 : 	size_type find_first_of(const _Elem *_Ptr,
; 1958 : 		size_type _Off, size_type _Count) const
; 1959 : 		{	// look for one of [_Ptr, _Ptr + _Count) at or after _Off
; 1960 :  #if _ITERATOR_DEBUG_LEVEL == 2
; 1961 : 		if (_Count != 0)
; 1962 : 			_DEBUG_POINTER(_Ptr);
; 1963 :  #endif /* _ITERATOR_DEBUG_LEVEL == 2 */
; 1964 : 
; 1965 : 		if (0 < _Count && _Off < this->_Mysize)
; 1966 : 			{	// room for match, look for it
; 1967 : 			const _Elem *const _Vptr = this->_Myptr() + this->_Mysize;
; 1968 : 			for (const _Elem *_Uptr = this->_Myptr() + _Off;
; 1969 : 				_Uptr < _Vptr; ++_Uptr)
; 1970 : 				if (_Traits::find(_Ptr, _Count, *_Uptr) != 0)
; 1971 : 					return (_Uptr - this->_Myptr());	// found a match
; 1972 : 			}
; 1973 : 
; 1974 : 		return (npos);	// no match
; 1975 : 		}
; 1976 : 
; 1977 : 	size_type find_first_of(const _Elem *_Ptr,
; 1978 : 		size_type _Off = 0) const
; 1979 : 		{	// look for one of [_Ptr, <null>) at or after _Off
; 1980 : 		_DEBUG_POINTER(_Ptr);
; 1981 : 		return (find_first_of(_Ptr, _Off, _Traits::length(_Ptr)));
; 1982 : 		}
; 1983 : 
; 1984 : 	size_type find_first_of(_Elem _Ch,
; 1985 : 		size_type _Off = 0) const
; 1986 : 		{	// look for _Ch at or after _Off
; 1987 : 		return (find((const _Elem *)&_Ch, _Off, 1));
; 1988 : 		}
; 1989 : 
; 1990 : 	size_type find_last_of(const _Myt& _Right,
; 1991 : 		size_type _Off = npos) const _NOEXCEPT
; 1992 : 		{	// look for one of _Right before _Off
; 1993 : 		return (find_last_of(_Right._Myptr(), _Off, _Right.size()));
; 1994 : 		}
; 1995 : 
; 1996 : 	size_type find_last_of(const _Elem *_Ptr,
; 1997 : 		size_type _Off, size_type _Count) const
; 1998 : 		{	// look for one of [_Ptr, _Ptr + _Count) before _Off
; 1999 :  #if _ITERATOR_DEBUG_LEVEL == 2
; 2000 : 		if (_Count != 0)
; 2001 : 			_DEBUG_POINTER(_Ptr);
; 2002 :  #endif /* _ITERATOR_DEBUG_LEVEL == 2 */
; 2003 : 
; 2004 : 		if (0 < _Count && 0 < this->_Mysize)
; 2005 : 			{	// worth searching, do it
; 2006 : 			const _Elem *_Uptr = this->_Myptr()
; 2007 : 				+ (_Off < this->_Mysize ? _Off : this->_Mysize - 1);
; 2008 : 			for (; ; --_Uptr)
; 2009 : 				if (_Traits::find(_Ptr, _Count, *_Uptr) != 0)
; 2010 : 					return (_Uptr - this->_Myptr());	// found a match
; 2011 : 				else if (_Uptr == this->_Myptr())
; 2012 : 					break;	// at beginning, no more chance for match
; 2013 : 			}
; 2014 : 
; 2015 : 		return (npos);	// no match
; 2016 : 		}
; 2017 : 
; 2018 : 	size_type find_last_of(const _Elem *_Ptr,
; 2019 : 		size_type _Off = npos) const
; 2020 : 		{	// look for one of [_Ptr, <null>) before _Off
; 2021 : 		_DEBUG_POINTER(_Ptr);
; 2022 : 		return (find_last_of(_Ptr, _Off, _Traits::length(_Ptr)));
; 2023 : 		}
; 2024 : 
; 2025 : 	size_type find_last_of(_Elem _Ch,
; 2026 : 		size_type _Off = npos) const
; 2027 : 		{	// look for _Ch before _Off
; 2028 : 		return (rfind((const _Elem *)&_Ch, _Off, 1));
; 2029 : 		}
; 2030 : 
; 2031 : 	size_type find_first_not_of(const _Myt& _Right,
; 2032 : 		size_type _Off = 0) const _NOEXCEPT
; 2033 : 		{	// look for none of _Right at or after _Off
; 2034 : 		return (find_first_not_of(_Right._Myptr(), _Off,
; 2035 : 			_Right.size()));
; 2036 : 		}
; 2037 : 
; 2038 : 	size_type find_first_not_of(const _Elem *_Ptr,
; 2039 : 		size_type _Off, size_type _Count) const
; 2040 : 		{	// look for none of [_Ptr, _Ptr + _Count) at or after _Off
; 2041 :  #if _ITERATOR_DEBUG_LEVEL == 2
; 2042 : 		if (_Count != 0)
; 2043 : 			_DEBUG_POINTER(_Ptr);
; 2044 :  #endif /* _ITERATOR_DEBUG_LEVEL == 2 */
; 2045 : 
; 2046 : 		if (_Off < this->_Mysize)
; 2047 : 			{	// room for match, look for it
; 2048 : 			const _Elem *const _Vptr = this->_Myptr() + this->_Mysize;
; 2049 : 			for (const _Elem *_Uptr = this->_Myptr() + _Off;
; 2050 : 				_Uptr < _Vptr; ++_Uptr)
; 2051 : 				if (_Traits::find(_Ptr, _Count, *_Uptr) == 0)
; 2052 : 					return (_Uptr - this->_Myptr());
; 2053 : 			}
; 2054 : 		return (npos);
; 2055 : 		}
; 2056 : 
; 2057 : 	size_type find_first_not_of(const _Elem *_Ptr,
; 2058 : 		size_type _Off = 0) const
; 2059 : 		{	// look for one of [_Ptr, <null>) at or after _Off
; 2060 : 		_DEBUG_POINTER(_Ptr);
; 2061 : 		return (find_first_not_of(_Ptr, _Off, _Traits::length(_Ptr)));
; 2062 : 		}
; 2063 : 
; 2064 : 	size_type find_first_not_of(_Elem _Ch,
; 2065 : 		size_type _Off = 0) const
; 2066 : 		{	// look for non _Ch at or after _Off
; 2067 : 		return (find_first_not_of((const _Elem *)&_Ch, _Off, 1));
; 2068 : 		}
; 2069 : 
; 2070 : 	size_type find_last_not_of(const _Myt& _Right,
; 2071 : 		size_type _Off = npos) const _NOEXCEPT
; 2072 : 		{	// look for none of _Right before _Off
; 2073 : 		return (find_last_not_of(_Right._Myptr(), _Off, _Right.size()));
; 2074 : 		}
; 2075 : 
; 2076 : 	size_type find_last_not_of(const _Elem *_Ptr,
; 2077 : 		size_type _Off, size_type _Count) const
; 2078 : 		{	// look for none of [_Ptr, _Ptr + _Count) before _Off
; 2079 :  #if _ITERATOR_DEBUG_LEVEL == 2
; 2080 : 		if (_Count != 0)
; 2081 : 			_DEBUG_POINTER(_Ptr);
; 2082 :  #endif /* _ITERATOR_DEBUG_LEVEL == 2 */
; 2083 : 
; 2084 : 		if (0 < this->_Mysize)
; 2085 : 			{	// worth searching, do it
; 2086 : 			const _Elem *_Uptr = this->_Myptr()
; 2087 : 				+ (_Off < this->_Mysize ? _Off : this->_Mysize - 1);
; 2088 : 			for (; ; --_Uptr)
; 2089 : 				if (_Traits::find(_Ptr, _Count, *_Uptr) == 0)
; 2090 : 					return (_Uptr - this->_Myptr());
; 2091 : 				else if (_Uptr == this->_Myptr())
; 2092 : 					break;
; 2093 : 			}
; 2094 : 		return (npos);
; 2095 : 		}
; 2096 : 
; 2097 : 	size_type find_last_not_of(const _Elem *_Ptr,
; 2098 : 		size_type _Off = npos) const
; 2099 : 		{	// look for none of [_Ptr, <null>) before _Off
; 2100 : 		_DEBUG_POINTER(_Ptr);
; 2101 : 		return (find_last_not_of(_Ptr, _Off, _Traits::length(_Ptr)));
; 2102 : 		}
; 2103 : 
; 2104 : 	size_type find_last_not_of(_Elem _Ch,
; 2105 : 		size_type _Off = npos) const
; 2106 : 		{	// look for non _Ch before _Off
; 2107 : 		return (find_last_not_of((const _Elem *)&_Ch, _Off, 1));
; 2108 : 		}
; 2109 : 
; 2110 : 	_Myt substr(size_type _Off = 0, size_type _Count = npos) const
; 2111 : 		{	// return [_Off, _Off + _Count) as new string
; 2112 : 		return (_Myt(*this, _Off, _Count, get_allocator()));
; 2113 : 		}
; 2114 : 
; 2115 : 	int compare(const _Myt& _Right) const _NOEXCEPT
; 2116 : 		{	// compare [0, _Mysize) with _Right
; 2117 : 		return (compare(0, this->_Mysize, _Right._Myptr(), _Right.size()));
; 2118 : 		}
; 2119 : 
; 2120 : 	int compare(size_type _Off, size_type _N0,
; 2121 : 		const _Myt& _Right) const
; 2122 : 		{	// compare [_Off, _Off + _N0) with _Right
; 2123 : 		return (compare(_Off, _N0, _Right, 0, npos));
; 2124 : 		}
; 2125 : 
; 2126 : 	int compare(size_type _Off,
; 2127 : 		size_type _N0, const _Myt& _Right,
; 2128 : 		size_type _Roff, size_type _Count) const
; 2129 : 		{	// compare [_Off, _Off + _N0) with _Right [_Roff, _Roff + _Count)
; 2130 : 		if (_Right.size() < _Roff)
; 2131 : 			_Xran();	// _Off off end
; 2132 : 		if (_Right._Mysize - _Roff < _Count)
; 2133 : 			_Count = _Right._Mysize - _Roff;	// trim _Count to size
; 2134 : 		return (compare(_Off, _N0, _Right._Myptr() + _Roff, _Count));
; 2135 : 		}
; 2136 : 
; 2137 : 	int compare(const _Elem *_Ptr) const
; 2138 : 		{	// compare [0, _Mysize) with [_Ptr, <null>)
; 2139 : 		_DEBUG_POINTER(_Ptr);
; 2140 : 		return (compare(0, this->_Mysize, _Ptr, _Traits::length(_Ptr)));
; 2141 : 		}
; 2142 : 
; 2143 : 	int compare(size_type _Off, size_type _N0, const _Elem *_Ptr) const
; 2144 : 		{	// compare [_Off, _Off + _N0) with [_Ptr, <null>)
; 2145 : 		_DEBUG_POINTER(_Ptr);
; 2146 : 		return (compare(_Off, _N0, _Ptr, _Traits::length(_Ptr)));
; 2147 : 		}
; 2148 : 
; 2149 : 	int compare(size_type _Off,
; 2150 : 		size_type _N0, const _Elem *_Ptr, size_type _Count) const
; 2151 : 		{	// compare [_Off, _Off + _N0) with [_Ptr, _Ptr + _Count)
; 2152 :  #if _ITERATOR_DEBUG_LEVEL == 2
; 2153 : 		if (_Count != 0)
; 2154 : 			_DEBUG_POINTER(_Ptr);
; 2155 :  #endif /* _ITERATOR_DEBUG_LEVEL == 2 */
; 2156 : 
; 2157 : 		if (this->_Mysize < _Off)
; 2158 : 			_Xran();	// _Off off end
; 2159 : 		if (this->_Mysize - _Off < _N0)
; 2160 : 			_N0 = this->_Mysize - _Off;	// trim _N0 to size
; 2161 : 
; 2162 : 		size_type _Ans = _Traits::compare(this->_Myptr() + _Off, _Ptr,
; 2163 : 			_N0 < _Count ? _N0 : _Count);
; 2164 : 		return (_Ans != 0 ? (int)_Ans : _N0 < _Count ? -1
; 2165 : 			: _N0 == _Count ? 0 : +1);
; 2166 : 		}
; 2167 : 
; 2168 : 	allocator_type get_allocator() const _NOEXCEPT
; 2169 : 		{	// return allocator object for values
; 2170 : 		return (this->_Getal());
; 2171 : 		}
; 2172 : 
; 2173 : 	void _Chassign(size_type _Off, size_type _Count, _Elem _Ch)
; 2174 : 		{	// assign _Count copies of _Ch beginning at _Off
; 2175 : 		if (_Count == 1)
; 2176 : 			_Traits::assign(*(this->_Myptr() + _Off), _Ch);
; 2177 : 		else
; 2178 : 			_Traits::assign(this->_Myptr() + _Off, _Count, _Ch);
; 2179 : 		}
; 2180 : 
; 2181 : 	void _Copy(size_type _Newsize, size_type _Oldlen)
; 2182 : 		{	// copy _Oldlen elements to newly allocated buffer
; 2183 : 		size_type _Newres = _Newsize | this->_ALLOC_MASK;
; 2184 : 		if (max_size() < _Newres)
; 2185 : 			_Newres = _Newsize;	// undo roundup if too big
; 2186 : 		else if (this->_Myres / 2 <= _Newres / 3)
; 2187 : 			;
; 2188 : 		else if (this->_Myres <= max_size() - this->_Myres / 2)
; 2189 : 			_Newres = this->_Myres
; 2190 : 				+ this->_Myres / 2;	// grow exponentially if possible
; 2191 : 		else
; 2192 : 			_Newres = max_size();	// settle for max_size()
; 2193 : 
; 2194 : 		_Elem *_Ptr;
; 2195 : 		_TRY_BEGIN
; 2196 : 			_Ptr = this->_Getal().allocate(_Newres + 1);
; 2197 : 		_CATCH_ALL
; 2198 : 			_Newres = _Newsize;	// allocation failed, undo roundup and retry
; 2199 : 			_TRY_BEGIN
; 2200 : 				_Ptr = this->_Getal().allocate(_Newres + 1);
; 2201 : 			_CATCH_ALL
; 2202 : 			_Tidy(true);	// failed again, discard storage and reraise
; 2203 : 			_RERAISE;
; 2204 : 			_CATCH_END
; 2205 : 		_CATCH_END
; 2206 : 
; 2207 : 		if (0 < _Oldlen)
; 2208 : 			_Traits::copy(_Ptr, this->_Myptr(),
; 2209 : 				_Oldlen);	// copy existing elements
; 2210 : 		_Tidy(true);
; 2211 : 		this->_Getal().construct(&this->_Bx._Ptr, _Ptr);
; 2212 : 		this->_Myres = _Newres;
; 2213 : 		_Eos(_Oldlen);
; 2214 : 		}
; 2215 : 
; 2216 : 	void _Eos(size_type _Newsize)
; 2217 : 		{	// set new length and null terminator
; 2218 : 		_Traits::assign(this->_Myptr()[this->_Mysize = _Newsize], _Elem());

  00047	c7 05 10 00 00
	00 00 00 00 00	 mov	 DWORD PTR ?EXE_DIR@IOUtil@@3V?$basic_string@_WU?$char_traits@_W@std@@V?$allocator@_W@2@@std@@A+16, 0
; File c:\program files (x86)\microsoft visual studio 11.0\vc\include\iosfwd

; 347  : 		_Left = _Right;

  00051	66 a3 00 00 00
	00		 mov	 WORD PTR ?EXE_DIR@IOUtil@@3V?$basic_string@_WU?$char_traits@_W@std@@V?$allocator@_W@2@@std@@A, ax
  00057	8b e5		 mov	 esp, ebp
  00059	5d		 pop	 ebp
  0005a	c3		 ret	 0
??__FEXE_DIR@IOUtil@@YAXXZ ENDP				; IOUtil::`dynamic atexit destructor for 'EXE_DIR''
text$yd	ENDS
; Function compile flags: /Ogtp
; File c:\users\glenn\documents\github\wind\project\wind\wind\ioutil.cpp
; File c:\program files (x86)\microsoft visual studio 11.0\vc\include\iosfwd
; File c:\program files (x86)\microsoft visual studio 11.0\vc\include\xstring
; File c:\program files (x86)\microsoft visual studio 11.0\vc\include\iosfwd
; File c:\program files (x86)\microsoft visual studio 11.0\vc\include\xstring
; File c:\users\glenn\documents\github\wind\project\wind\wind\ioutil.cpp
; File c:\program files (x86)\microsoft visual studio 11.0\vc\include\xstring
; File c:\program files (x86)\microsoft visual studio 11.0\vc\include\xmemory0
; File c:\users\glenn\documents\github\wind\project\wind\wind\ioutil.cpp
; File c:\program files (x86)\microsoft visual studio 11.0\vc\include\iosfwd
; File c:\program files (x86)\microsoft visual studio 11.0\vc\include\xstring
; File c:\users\glenn\documents\github\wind\project\wind\wind\ioutil.cpp
;	COMDAT ?init@IOUtil@@YAXXZ
_TEXT	SEGMENT
$T1 = -552						; size = 24
_buffer$ = -528						; size = 520
__$ArrayPad$ = -4					; size = 4
?init@IOUtil@@YAXXZ PROC				; IOUtil::init, COMDAT

; 9    : {

  00000	55		 push	 ebp
  00001	8b ec		 mov	 ebp, esp
  00003	81 ec 2c 02 00
	00		 sub	 esp, 556		; 0000022cH
  00009	a1 00 00 00 00	 mov	 eax, DWORD PTR ___security_cookie
  0000e	33 c5		 xor	 eax, ebp
  00010	89 45 fc	 mov	 DWORD PTR __$ArrayPad$[ebp], eax
  00013	56		 push	 esi

; 10   : 	wchar_t buffer[MAX_PATH];
; 11   : 	GetModuleFileName(NULL, buffer, MAX_PATH);

  00014	68 04 01 00 00	 push	 260			; 00000104H
  00019	8d 85 f0 fd ff
	ff		 lea	 eax, DWORD PTR _buffer$[ebp]
  0001f	50		 push	 eax
  00020	6a 00		 push	 0
  00022	ff 15 00 00 00
	00		 call	 DWORD PTR __imp__GetModuleFileNameW@12
; File c:\program files (x86)\microsoft visual studio 11.0\vc\include\iosfwd

; 347  : 		_Left = _Right;

  00028	33 c0		 xor	 eax, eax
; File c:\program files (x86)\microsoft visual studio 11.0\vc\include\xstring

; 2265 : 		this->_Myres = this->_BUF_SIZE - 1;

  0002a	c7 85 ec fd ff
	ff 07 00 00 00	 mov	 DWORD PTR $T1[ebp+20], 7

; 2023 : 		}
; 2024 : 
; 2025 : 	size_type find_last_of(_Elem _Ch,
; 2026 : 		size_type _Off = npos) const
; 2027 : 		{	// look for _Ch before _Off
; 2028 : 		return (rfind((const _Elem *)&_Ch, _Off, 1));
; 2029 : 		}
; 2030 : 
; 2031 : 	size_type find_first_not_of(const _Myt& _Right,
; 2032 : 		size_type _Off = 0) const _NOEXCEPT
; 2033 : 		{	// look for none of _Right at or after _Off
; 2034 : 		return (find_first_not_of(_Right._Myptr(), _Off,
; 2035 : 			_Right.size()));
; 2036 : 		}
; 2037 : 
; 2038 : 	size_type find_first_not_of(const _Elem *_Ptr,
; 2039 : 		size_type _Off, size_type _Count) const
; 2040 : 		{	// look for none of [_Ptr, _Ptr + _Count) at or after _Off
; 2041 :  #if _ITERATOR_DEBUG_LEVEL == 2
; 2042 : 		if (_Count != 0)
; 2043 : 			_DEBUG_POINTER(_Ptr);
; 2044 :  #endif /* _ITERATOR_DEBUG_LEVEL == 2 */
; 2045 : 
; 2046 : 		if (_Off < this->_Mysize)
; 2047 : 			{	// room for match, look for it
; 2048 : 			const _Elem *const _Vptr = this->_Myptr() + this->_Mysize;
; 2049 : 			for (const _Elem *_Uptr = this->_Myptr() + _Off;
; 2050 : 				_Uptr < _Vptr; ++_Uptr)
; 2051 : 				if (_Traits::find(_Ptr, _Count, *_Uptr) == 0)
; 2052 : 					return (_Uptr - this->_Myptr());
; 2053 : 			}
; 2054 : 		return (npos);
; 2055 : 		}
; 2056 : 
; 2057 : 	size_type find_first_not_of(const _Elem *_Ptr,
; 2058 : 		size_type _Off = 0) const
; 2059 : 		{	// look for one of [_Ptr, <null>) at or after _Off
; 2060 : 		_DEBUG_POINTER(_Ptr);
; 2061 : 		return (find_first_not_of(_Ptr, _Off, _Traits::length(_Ptr)));
; 2062 : 		}
; 2063 : 
; 2064 : 	size_type find_first_not_of(_Elem _Ch,
; 2065 : 		size_type _Off = 0) const
; 2066 : 		{	// look for non _Ch at or after _Off
; 2067 : 		return (find_first_not_of((const _Elem *)&_Ch, _Off, 1));
; 2068 : 		}
; 2069 : 
; 2070 : 	size_type find_last_not_of(const _Myt& _Right,
; 2071 : 		size_type _Off = npos) const _NOEXCEPT
; 2072 : 		{	// look for none of _Right before _Off
; 2073 : 		return (find_last_not_of(_Right._Myptr(), _Off, _Right.size()));
; 2074 : 		}
; 2075 : 
; 2076 : 	size_type find_last_not_of(const _Elem *_Ptr,
; 2077 : 		size_type _Off, size_type _Count) const
; 2078 : 		{	// look for none of [_Ptr, _Ptr + _Count) before _Off
; 2079 :  #if _ITERATOR_DEBUG_LEVEL == 2
; 2080 : 		if (_Count != 0)
; 2081 : 			_DEBUG_POINTER(_Ptr);
; 2082 :  #endif /* _ITERATOR_DEBUG_LEVEL == 2 */
; 2083 : 
; 2084 : 		if (0 < this->_Mysize)
; 2085 : 			{	// worth searching, do it
; 2086 : 			const _Elem *_Uptr = this->_Myptr()
; 2087 : 				+ (_Off < this->_Mysize ? _Off : this->_Mysize - 1);
; 2088 : 			for (; ; --_Uptr)
; 2089 : 				if (_Traits::find(_Ptr, _Count, *_Uptr) == 0)
; 2090 : 					return (_Uptr - this->_Myptr());
; 2091 : 				else if (_Uptr == this->_Myptr())
; 2092 : 					break;
; 2093 : 			}
; 2094 : 		return (npos);
; 2095 : 		}
; 2096 : 
; 2097 : 	size_type find_last_not_of(const _Elem *_Ptr,
; 2098 : 		size_type _Off = npos) const
; 2099 : 		{	// look for none of [_Ptr, <null>) before _Off
; 2100 : 		_DEBUG_POINTER(_Ptr);
; 2101 : 		return (find_last_not_of(_Ptr, _Off, _Traits::length(_Ptr)));
; 2102 : 		}
; 2103 : 
; 2104 : 	size_type find_last_not_of(_Elem _Ch,
; 2105 : 		size_type _Off = npos) const
; 2106 : 		{	// look for non _Ch before _Off
; 2107 : 		return (find_last_not_of((const _Elem *)&_Ch, _Off, 1));
; 2108 : 		}
; 2109 : 
; 2110 : 	_Myt substr(size_type _Off = 0, size_type _Count = npos) const
; 2111 : 		{	// return [_Off, _Off + _Count) as new string
; 2112 : 		return (_Myt(*this, _Off, _Count, get_allocator()));
; 2113 : 		}
; 2114 : 
; 2115 : 	int compare(const _Myt& _Right) const _NOEXCEPT
; 2116 : 		{	// compare [0, _Mysize) with _Right
; 2117 : 		return (compare(0, this->_Mysize, _Right._Myptr(), _Right.size()));
; 2118 : 		}
; 2119 : 
; 2120 : 	int compare(size_type _Off, size_type _N0,
; 2121 : 		const _Myt& _Right) const
; 2122 : 		{	// compare [_Off, _Off + _N0) with _Right
; 2123 : 		return (compare(_Off, _N0, _Right, 0, npos));
; 2124 : 		}
; 2125 : 
; 2126 : 	int compare(size_type _Off,
; 2127 : 		size_type _N0, const _Myt& _Right,
; 2128 : 		size_type _Roff, size_type _Count) const
; 2129 : 		{	// compare [_Off, _Off + _N0) with _Right [_Roff, _Roff + _Count)
; 2130 : 		if (_Right.size() < _Roff)
; 2131 : 			_Xran();	// _Off off end
; 2132 : 		if (_Right._Mysize - _Roff < _Count)
; 2133 : 			_Count = _Right._Mysize - _Roff;	// trim _Count to size
; 2134 : 		return (compare(_Off, _N0, _Right._Myptr() + _Roff, _Count));
; 2135 : 		}
; 2136 : 
; 2137 : 	int compare(const _Elem *_Ptr) const
; 2138 : 		{	// compare [0, _Mysize) with [_Ptr, <null>)
; 2139 : 		_DEBUG_POINTER(_Ptr);
; 2140 : 		return (compare(0, this->_Mysize, _Ptr, _Traits::length(_Ptr)));
; 2141 : 		}
; 2142 : 
; 2143 : 	int compare(size_type _Off, size_type _N0, const _Elem *_Ptr) const
; 2144 : 		{	// compare [_Off, _Off + _N0) with [_Ptr, <null>)
; 2145 : 		_DEBUG_POINTER(_Ptr);
; 2146 : 		return (compare(_Off, _N0, _Ptr, _Traits::length(_Ptr)));
; 2147 : 		}
; 2148 : 
; 2149 : 	int compare(size_type _Off,
; 2150 : 		size_type _N0, const _Elem *_Ptr, size_type _Count) const
; 2151 : 		{	// compare [_Off, _Off + _N0) with [_Ptr, _Ptr + _Count)
; 2152 :  #if _ITERATOR_DEBUG_LEVEL == 2
; 2153 : 		if (_Count != 0)
; 2154 : 			_DEBUG_POINTER(_Ptr);
; 2155 :  #endif /* _ITERATOR_DEBUG_LEVEL == 2 */
; 2156 : 
; 2157 : 		if (this->_Mysize < _Off)
; 2158 : 			_Xran();	// _Off off end
; 2159 : 		if (this->_Mysize - _Off < _N0)
; 2160 : 			_N0 = this->_Mysize - _Off;	// trim _N0 to size
; 2161 : 
; 2162 : 		size_type _Ans = _Traits::compare(this->_Myptr() + _Off, _Ptr,
; 2163 : 			_N0 < _Count ? _N0 : _Count);
; 2164 : 		return (_Ans != 0 ? (int)_Ans : _N0 < _Count ? -1
; 2165 : 			: _N0 == _Count ? 0 : +1);
; 2166 : 		}
; 2167 : 
; 2168 : 	allocator_type get_allocator() const _NOEXCEPT
; 2169 : 		{	// return allocator object for values
; 2170 : 		return (this->_Getal());
; 2171 : 		}
; 2172 : 
; 2173 : 	void _Chassign(size_type _Off, size_type _Count, _Elem _Ch)
; 2174 : 		{	// assign _Count copies of _Ch beginning at _Off
; 2175 : 		if (_Count == 1)
; 2176 : 			_Traits::assign(*(this->_Myptr() + _Off), _Ch);
; 2177 : 		else
; 2178 : 			_Traits::assign(this->_Myptr() + _Off, _Count, _Ch);
; 2179 : 		}
; 2180 : 
; 2181 : 	void _Copy(size_type _Newsize, size_type _Oldlen)
; 2182 : 		{	// copy _Oldlen elements to newly allocated buffer
; 2183 : 		size_type _Newres = _Newsize | this->_ALLOC_MASK;
; 2184 : 		if (max_size() < _Newres)
; 2185 : 			_Newres = _Newsize;	// undo roundup if too big
; 2186 : 		else if (this->_Myres / 2 <= _Newres / 3)
; 2187 : 			;
; 2188 : 		else if (this->_Myres <= max_size() - this->_Myres / 2)
; 2189 : 			_Newres = this->_Myres
; 2190 : 				+ this->_Myres / 2;	// grow exponentially if possible
; 2191 : 		else
; 2192 : 			_Newres = max_size();	// settle for max_size()
; 2193 : 
; 2194 : 		_Elem *_Ptr;
; 2195 : 		_TRY_BEGIN
; 2196 : 			_Ptr = this->_Getal().allocate(_Newres + 1);
; 2197 : 		_CATCH_ALL
; 2198 : 			_Newres = _Newsize;	// allocation failed, undo roundup and retry
; 2199 : 			_TRY_BEGIN
; 2200 : 				_Ptr = this->_Getal().allocate(_Newres + 1);
; 2201 : 			_CATCH_ALL
; 2202 : 			_Tidy(true);	// failed again, discard storage and reraise
; 2203 : 			_RERAISE;
; 2204 : 			_CATCH_END
; 2205 : 		_CATCH_END
; 2206 : 
; 2207 : 		if (0 < _Oldlen)
; 2208 : 			_Traits::copy(_Ptr, this->_Myptr(),
; 2209 : 				_Oldlen);	// copy existing elements
; 2210 : 		_Tidy(true);
; 2211 : 		this->_Getal().construct(&this->_Bx._Ptr, _Ptr);
; 2212 : 		this->_Myres = _Newres;
; 2213 : 		_Eos(_Oldlen);
; 2214 : 		}
; 2215 : 
; 2216 : 	void _Eos(size_type _Newsize)
; 2217 : 		{	// set new length and null terminator
; 2218 : 		_Traits::assign(this->_Myptr()[this->_Mysize = _Newsize], _Elem());

  00034	c7 85 e8 fd ff
	ff 00 00 00 00	 mov	 DWORD PTR $T1[ebp+16], 0
; File c:\program files (x86)\microsoft visual studio 11.0\vc\include\iosfwd

; 347  : 		_Left = _Right;

  0003e	66 89 85 d8 fd
	ff ff		 mov	 WORD PTR $T1[ebp], ax

; 306  : 			: _CSTD wcslen(_First));

  00045	66 39 85 f0 fd
	ff ff		 cmp	 WORD PTR _buffer$[ebp], ax
  0004c	75 04		 jne	 SHORT $LN50@init
  0004e	33 c9		 xor	 ecx, ecx
  00050	eb 1d		 jmp	 SHORT $LN51@init
$LN50@init:
  00052	8d 8d f0 fd ff
	ff		 lea	 ecx, DWORD PTR _buffer$[ebp]
  00058	8d 51 02	 lea	 edx, DWORD PTR [ecx+2]
  0005b	eb 03 8d 49 00	 npad	 5
$LL100@init:
  00060	66 8b 01	 mov	 ax, WORD PTR [ecx]
  00063	83 c1 02	 add	 ecx, 2
  00066	66 85 c0	 test	 ax, ax
  00069	75 f5		 jne	 SHORT $LL100@init
  0006b	2b ca		 sub	 ecx, edx
  0006d	d1 f9		 sar	 ecx, 1
$LN51@init:
; File c:\program files (x86)\microsoft visual studio 11.0\vc\include\xstring

; 1144 : 		return (assign(_Ptr, _Traits::length(_Ptr)));

  0006f	51		 push	 ecx
  00070	8d 85 f0 fd ff
	ff		 lea	 eax, DWORD PTR _buffer$[ebp]
  00076	50		 push	 eax
  00077	8d 8d d8 fd ff
	ff		 lea	 ecx, DWORD PTR $T1[ebp]
  0007d	e8 00 00 00 00	 call	 ?assign@?$basic_string@_WU?$char_traits@_W@std@@V?$allocator@_W@2@@std@@QAEAAV12@PB_WI@Z ; std::basic_string<wchar_t,std::char_traits<wchar_t>,std::allocator<wchar_t> >::assign

; 1145 : 		}
; 1146 : 
; 1147 : 	_Myt& assign(size_type _Count, _Elem _Ch)
; 1148 : 		{	// assign _Count * _Ch
; 1149 : 		if (_Count == npos)
; 1150 : 			_Xlen();	// result too long
; 1151 : 
; 1152 : 		if (_Grow(_Count))
; 1153 : 			{	// make room and assign new stuff
; 1154 : 			_Chassign(0, _Count, _Ch);
; 1155 : 			_Eos(_Count);
; 1156 : 			}
; 1157 : 		return (*this);
; 1158 : 		}
; 1159 : 
; 1160 : 	template<class _Iter>
; 1161 : 		typename enable_if<_Is_iterator<_Iter>::value,
; 1162 : 			_Myt&>::type
; 1163 : 		assign(_Iter _First, _Iter _Last)
; 1164 : 		{	// assign [First, _Last), input iterators
; 1165 : 		return (replace(begin(), end(), _First, _Last));
; 1166 : 		}
; 1167 : 
; 1168 : 	_Myt& assign(const_pointer _First, const_pointer _Last)
; 1169 : 		{	// assign [First, _Last), const pointers
; 1170 : 		return (replace(begin(), end(), _First, _Last));
; 1171 : 		}
; 1172 : 
; 1173 : 	_Myt& assign(const_iterator _First, const_iterator _Last)
; 1174 : 		{	// assign [First, _Last), const_iterators
; 1175 : 		return (replace(begin(), end(), _First, _Last));
; 1176 : 		}
; 1177 : 
; 1178 : 	_Myt& insert(size_type _Off, const _Myt& _Right)
; 1179 : 		{	// insert _Right at _Off
; 1180 : 		return (insert(_Off, _Right, 0, npos));
; 1181 : 		}
; 1182 : 
; 1183 : 	_Myt& insert(size_type _Off,
; 1184 : 		const _Myt& _Right, size_type _Roff, size_type _Count)
; 1185 : 		{	// insert _Right [_Roff, _Roff + _Count) at _Off
; 1186 : 		if (this->_Mysize < _Off || _Right.size() < _Roff)
; 1187 : 			_Xran();	// _Off or _Roff off end
; 1188 : 		size_type _Num = _Right.size() - _Roff;
; 1189 : 		if (_Num < _Count)
; 1190 : 			_Count = _Num;	// trim _Count to size
; 1191 : 		if (npos - this->_Mysize <= _Count)
; 1192 : 			_Xlen();	// result too long
; 1193 : 
; 1194 : 		if (0 < _Count && _Grow(_Num = this->_Mysize + _Count))
; 1195 : 			{	// make room and insert new stuff
; 1196 : 			_Traits::move(this->_Myptr() + _Off + _Count,
; 1197 : 				this->_Myptr() + _Off,
; 1198 : 				this->_Mysize - _Off);	// empty out hole
; 1199 : 			if (this == &_Right)
; 1200 : 				_Traits::move(this->_Myptr() + _Off,
; 1201 : 					this->_Myptr() + (_Off < _Roff ? _Roff + _Count : _Roff),
; 1202 : 						_Count);	// substring
; 1203 : 			else
; 1204 : 				_Traits::copy(this->_Myptr() + _Off,
; 1205 : 					_Right._Myptr() + _Roff, _Count);	// fill hole
; 1206 : 			_Eos(_Num);
; 1207 : 			}
; 1208 : 		return (*this);
; 1209 : 		}
; 1210 : 
; 1211 : 	_Myt& insert(size_type _Off,
; 1212 : 		const _Elem *_Ptr, size_type _Count)
; 1213 : 		{	// insert [_Ptr, _Ptr + _Count) at _Off
; 1214 :  #if _ITERATOR_DEBUG_LEVEL == 2
; 1215 : 		if (_Count != 0)
; 1216 : 			_DEBUG_POINTER(_Ptr);
; 1217 :  #endif /* _ITERATOR_DEBUG_LEVEL == 2 */
; 1218 : 
; 1219 : 		if (_Inside(_Ptr))
; 1220 : 			return (insert(_Off, *this,
; 1221 : 				_Ptr - this->_Myptr(), _Count));	// substring
; 1222 : 		if (this->_Mysize < _Off)
; 1223 : 			_Xran();	// _Off off end
; 1224 : 		if (npos - this->_Mysize <= _Count)
; 1225 : 			_Xlen();	// result too long
; 1226 : 		size_type _Num;
; 1227 : 		if (0 < _Count && _Grow(_Num = this->_Mysize + _Count))
; 1228 : 			{	// make room and insert new stuff
; 1229 : 			_Traits::move(this->_Myptr() + _Off + _Count,
; 1230 : 				this->_Myptr() + _Off,
; 1231 : 				this->_Mysize - _Off);	// empty out hole
; 1232 : 			_Traits::copy(this->_Myptr() + _Off, _Ptr, _Count);	// fill hole
; 1233 : 			_Eos(_Num);
; 1234 : 			}
; 1235 : 		return (*this);
; 1236 : 		}
; 1237 : 
; 1238 : 	_Myt& insert(size_type _Off, const _Elem *_Ptr)
; 1239 : 		{	// insert [_Ptr, <null>) at _Off
; 1240 : 		_DEBUG_POINTER(_Ptr);
; 1241 : 		return (insert(_Off, _Ptr, _Traits::length(_Ptr)));
; 1242 : 		}
; 1243 : 
; 1244 : 	_Myt& insert(size_type _Off,
; 1245 : 		size_type _Count, _Elem _Ch)
; 1246 : 		{	// insert _Count * _Ch at _Off
; 1247 : 		if (this->_Mysize < _Off)
; 1248 : 			_Xran();	// _Off off end
; 1249 : 		if (npos - this->_Mysize <= _Count)
; 1250 : 			_Xlen();	// result too long
; 1251 : 		size_type _Num;
; 1252 : 		if (0 < _Count && _Grow(_Num = this->_Mysize + _Count))
; 1253 : 			{	// make room and insert new stuff
; 1254 : 			_Traits::move(this->_Myptr() + _Off + _Count,
; 1255 : 				this->_Myptr() + _Off,
; 1256 : 				this->_Mysize - _Off);	// empty out hole
; 1257 : 			_Chassign(_Off, _Count, _Ch);	// fill hole
; 1258 : 			_Eos(_Num);
; 1259 : 			}
; 1260 : 		return (*this);
; 1261 : 		}
; 1262 : 
; 1263 : 	iterator insert(const_iterator _Where)
; 1264 : 		{	// insert <null> at _Where
; 1265 : 		return (insert(_Where, _Elem()));
; 1266 : 		}
; 1267 : 
; 1268 : 	iterator insert(const_iterator _Where, _Elem _Ch)
; 1269 : 		{	// insert _Ch at _Where
; 1270 : 		size_type _Off = _Pdif(_Where, begin());
; 1271 : 		insert(_Off, 1, _Ch);
; 1272 : 		return (begin() + _Off);
; 1273 : 		}
; 1274 : 
; 1275 : 	iterator insert(const_iterator _Where, size_type _Count, _Elem _Ch)
; 1276 : 		{	// insert _Count * _Elem at _Where
; 1277 : 		size_type _Off = _Pdif(_Where, begin());
; 1278 : 		insert(_Off, _Count, _Ch);
; 1279 : 		return (begin() + _Off);
; 1280 : 		}
; 1281 : 
; 1282 : 	template<class _Iter>
; 1283 : 		typename enable_if<_Is_iterator<_Iter>::value,
; 1284 : 			iterator>::type
; 1285 : 		insert(const_iterator _Where, _Iter _First, _Iter _Last)
; 1286 : 		{	// insert [_First, _Last) at _Where, input iterators
; 1287 : 		size_type _Off = _Pdif(_Where, begin());
; 1288 : 		replace(_Where, _Where, _First, _Last);
; 1289 : 		return (begin() + _Off);
; 1290 : 		}
; 1291 : 
; 1292 : 	iterator insert(const_iterator _Where,
; 1293 : 		const_pointer _First, const_pointer _Last)
; 1294 : 		{	// insert [_First, _Last) at _Where, const pointers
; 1295 : 		size_type _Off = _Pdif(_Where, begin());
; 1296 : 		replace(_Where, _Where, _First, _Last);
; 1297 : 		return (begin() + _Off);
; 1298 : 		}
; 1299 : 
; 1300 : 	iterator insert(const_iterator _Where,
; 1301 : 		const_iterator _First, const_iterator _Last)
; 1302 : 		{	// insert [_First, _Last) at _Where, const_iterators
; 1303 : 		size_type _Off = _Pdif(_Where, begin());
; 1304 : 		replace(_Where, _Where, _First, _Last);
; 1305 : 		return (begin() + _Off);
; 1306 : 		}
; 1307 : 
; 1308 : 	_Myt& erase(size_type _Off = 0)
; 1309 : 		{	// erase elements [_Off, ...)
; 1310 : 		if (this->_Mysize < _Off)
; 1311 : 			_Xran();	// _Off off end
; 1312 : 		_Eos(_Off);
; 1313 : 		return (*this);
; 1314 : 		}
; 1315 : 
; 1316 : 	_Myt& erase(size_type _Off, size_type _Count)
; 1317 : 		{	// erase elements [_Off, _Off + _Count)
; 1318 : 		if (this->_Mysize < _Off)
; 1319 : 			_Xran();	// _Off off end
; 1320 : 		if (this->_Mysize - _Off <= _Count)
; 1321 : 			_Eos(_Off);	// erase elements [_Off, ...)
; 1322 : 		else if (0 < _Count)
; 1323 : 			{	// move elements down
; 1324 : 			value_type *_Ptr = this->_Myptr() + _Off;
; 1325 : 			size_type _Newsize = this->_Mysize - _Count;
; 1326 : 			_Traits::move(_Ptr, _Ptr + _Count, _Newsize - _Off);
; 1327 : 			_Eos(_Newsize);
; 1328 : 			}
; 1329 : 		return (*this);
; 1330 : 		}
; 1331 : 
; 1332 : 	iterator erase(const_iterator _Where)
; 1333 : 		{	// erase element at _Where
; 1334 : 		size_type _Count = _Pdif(_Where, begin());
; 1335 : 		erase(_Count, 1);
; 1336 : 		return (_STRING_ITERATOR(this->_Myptr() + _Count));
; 1337 : 		}
; 1338 : 
; 1339 : 	iterator erase(const_iterator _First, const_iterator _Last)
; 1340 : 		{	// erase substring [_First, _Last)
; 1341 : 		_DEBUG_RANGE(_First, _Last);
; 1342 : 		size_type _Count = _Pdif(_First, begin());
; 1343 : 		erase(_Count, _Pdif(_Last, _First));
; 1344 : 		return (_STRING_ITERATOR(this->_Myptr() + _Count));
; 1345 : 		}
; 1346 : 
; 1347 : 	void clear() _NOEXCEPT
; 1348 : 		{	// erase all
; 1349 : 		_Eos(0);
; 1350 : 		}
; 1351 : 
; 1352 : 	_Myt& replace(size_type _Off, size_type _N0, const _Myt& _Right)
; 1353 : 		{	// replace [_Off, _Off + _N0) with _Right
; 1354 : 		return (replace(_Off, _N0, _Right, 0, npos));
; 1355 : 		}
; 1356 : 
; 1357 : 	_Myt& replace(size_type _Off,
; 1358 : 		size_type _N0, const _Myt& _Right, size_type _Roff, size_type _Count)
; 1359 : 		{	// replace [_Off, _Off + _N0) with _Right [_Roff, _Roff + _Count)
; 1360 : 		if (this->_Mysize < _Off || _Right.size() < _Roff)
; 1361 : 			_Xran();	// _Off or _Roff off end
; 1362 : 		if (this->_Mysize - _Off < _N0)
; 1363 : 			_N0 = this->_Mysize - _Off;	// trim _N0 to size
; 1364 : 		size_type _Num = _Right.size() - _Roff;
; 1365 : 		if (_Num < _Count)
; 1366 : 			_Count = _Num;	// trim _Count to size
; 1367 : 		if (npos - _Count <= this->_Mysize - _N0)
; 1368 : 			_Xlen();	// result too long
; 1369 : 
; 1370 : 		size_type _Nm = this->_Mysize - _N0 - _Off;	// length of kept tail
; 1371 : 		size_type _Newsize = this->_Mysize + _Count - _N0;
; 1372 : 		if (this->_Mysize < _Newsize)
; 1373 : 			_Grow(_Newsize);
; 1374 : 
; 1375 : 		if (this != &_Right)
; 1376 : 			{	// no overlap, just move down and copy in new stuff
; 1377 : 			_Traits::move(this->_Myptr() + _Off + _Count,
; 1378 : 				this->_Myptr() + _Off + _N0, _Nm);	// empty hole
; 1379 : 			_Traits::copy(this->_Myptr() + _Off,
; 1380 : 				_Right._Myptr() + _Roff, _Count);	// fill hole
; 1381 : 			}
; 1382 : 		else if (_Count <= _N0)
; 1383 : 			{	// hole doesn't get larger, just copy in substring
; 1384 : 			_Traits::move(this->_Myptr() + _Off,
; 1385 : 				this->_Myptr() + _Roff, _Count);	// fill hole
; 1386 : 			_Traits::move(this->_Myptr() + _Off + _Count,
; 1387 : 				this->_Myptr() + _Off + _N0, _Nm);	// move tail down
; 1388 : 			}
; 1389 : 		else if (_Roff <= _Off)
; 1390 : 			{	// hole gets larger, substring begins before hole
; 1391 : 			_Traits::move(this->_Myptr() + _Off + _Count,
; 1392 : 				this->_Myptr() + _Off + _N0, _Nm);	// move tail down
; 1393 : 			_Traits::move(this->_Myptr() + _Off,
; 1394 : 				this->_Myptr() + _Roff, _Count);	// fill hole
; 1395 : 			}
; 1396 : 		else if (_Off + _N0 <= _Roff)
; 1397 : 			{	// hole gets larger, substring begins after hole
; 1398 : 			_Traits::move(this->_Myptr() + _Off + _Count,
; 1399 : 				this->_Myptr() + _Off + _N0, _Nm);	// move tail down
; 1400 : 			_Traits::move(this->_Myptr() + _Off,
; 1401 : 				this->_Myptr() + (_Roff + _Count - _N0),
; 1402 : 				_Count);	// fill hole
; 1403 : 			}
; 1404 : 		else
; 1405 : 			{	// hole gets larger, substring begins in hole
; 1406 : 			_Traits::move(this->_Myptr() + _Off,
; 1407 : 				this->_Myptr() + _Roff, _N0);	// fill old hole
; 1408 : 			_Traits::move(this->_Myptr() + _Off + _Count,
; 1409 : 				this->_Myptr() + _Off + _N0, _Nm);	// move tail down
; 1410 : 			_Traits::move(this->_Myptr() + _Off + _N0,
; 1411 : 				this->_Myptr() + _Roff + _Count,
; 1412 : 				_Count - _N0);	// fill rest of new hole
; 1413 : 			}
; 1414 : 
; 1415 : 		_Eos(_Newsize);
; 1416 : 		return (*this);
; 1417 : 		}
; 1418 : 
; 1419 : 	_Myt& replace(size_type _Off,
; 1420 : 		size_type _N0, const _Elem *_Ptr, size_type _Count)
; 1421 : 		{	// replace [_Off, _Off + _N0) with [_Ptr, _Ptr + _Count)
; 1422 :  #if _ITERATOR_DEBUG_LEVEL == 2
; 1423 : 		if (_Count != 0)
; 1424 : 			_DEBUG_POINTER(_Ptr);
; 1425 :  #endif /* _ITERATOR_DEBUG_LEVEL == 2 */
; 1426 : 
; 1427 : 		if (_Inside(_Ptr))
; 1428 : 			return (replace(_Off, _N0, *this,
; 1429 : 				_Ptr - this->_Myptr(),
; 1430 : 				_Count));	// substring, replace carefully
; 1431 : 		if (this->_Mysize < _Off)
; 1432 : 			_Xran();	// _Off off end
; 1433 : 		if (this->_Mysize - _Off < _N0)
; 1434 : 			_N0 = this->_Mysize - _Off;	// trim _N0 to size
; 1435 : 		if (npos - _Count <= this->_Mysize - _N0)
; 1436 : 			_Xlen();	// result too long
; 1437 : 		size_type _Nm = this->_Mysize - _N0 - _Off;
; 1438 : 
; 1439 : 		if (_Count < _N0)
; 1440 : 			_Traits::move(this->_Myptr() + _Off + _Count,
; 1441 : 				this->_Myptr() + _Off + _N0,
; 1442 : 				_Nm);	// smaller hole, move tail up
; 1443 : 		size_type _Num;
; 1444 : 		if ((0 < _Count || 0 < _N0)
; 1445 : 			&& _Grow(_Num = this->_Mysize + _Count - _N0))
; 1446 : 			{	// make room and rearrange
; 1447 : 			if (_N0 < _Count)
; 1448 : 				_Traits::move(this->_Myptr() + _Off + _Count,
; 1449 : 					this->_Myptr() + _Off + _N0, _Nm);	// move tail down
; 1450 : 			_Traits::copy(this->_Myptr() + _Off, _Ptr, _Count);	// fill hole
; 1451 : 			_Eos(_Num);
; 1452 : 			}
; 1453 : 		return (*this);
; 1454 : 		}
; 1455 : 
; 1456 : 	_Myt& replace(size_type _Off, size_type _N0, const _Elem *_Ptr)
; 1457 : 		{	// replace [_Off, _Off + _N0) with [_Ptr, <null>)
; 1458 : 		_DEBUG_POINTER(_Ptr);
; 1459 : 		return (replace(_Off, _N0, _Ptr, _Traits::length(_Ptr)));
; 1460 : 		}
; 1461 : 
; 1462 : 	_Myt& replace(size_type _Off,
; 1463 : 		size_type _N0, size_type _Count, _Elem _Ch)
; 1464 : 		{	// replace [_Off, _Off + _N0) with _Count * _Ch
; 1465 : 		if (this->_Mysize < _Off)
; 1466 : 			_Xran();	// _Off off end
; 1467 : 		if (this->_Mysize - _Off < _N0)
; 1468 : 			_N0 = this->_Mysize - _Off;	// trim _N0 to size
; 1469 : 		if (npos - _Count <= this->_Mysize - _N0)
; 1470 : 			_Xlen();	// result too long
; 1471 : 		size_type _Nm = this->_Mysize - _N0 - _Off;
; 1472 : 
; 1473 : 		if (_Count < _N0)
; 1474 : 			_Traits::move(this->_Myptr() + _Off + _Count,
; 1475 : 				this->_Myptr() + _Off + _N0,
; 1476 : 				_Nm);	// smaller hole, move tail up
; 1477 : 		size_type _Num;
; 1478 : 		if ((0 < _Count || 0 < _N0)
; 1479 : 			&& _Grow(_Num = this->_Mysize + _Count - _N0))
; 1480 : 			{	// make room and rearrange
; 1481 : 			if (_N0 < _Count)
; 1482 : 				_Traits::move(this->_Myptr() + _Off + _Count,
; 1483 : 					this->_Myptr() + _Off + _N0, _Nm);	// move tail down
; 1484 : 			_Chassign(_Off, _Count, _Ch);	// fill hole
; 1485 : 			_Eos(_Num);
; 1486 : 			}
; 1487 : 		return (*this);
; 1488 : 		}
; 1489 : 
; 1490 : 	_Myt& replace(const_iterator _First, const_iterator _Last,
; 1491 : 		const _Myt& _Right)
; 1492 : 		{	// replace [_First, _Last) with _Right
; 1493 : 		return (replace(
; 1494 : 			_Pdif(_First, begin()), _Pdif(_Last, _First), _Right));
; 1495 : 		}
; 1496 : 
; 1497 : 	_Myt& replace(const_iterator _First, const_iterator _Last,
; 1498 : 		const _Elem *_Ptr, size_type _Count)
; 1499 : 		{	// replace [_First, _Last) with [_Ptr, _Ptr + _Count)
; 1500 : 		return (replace(
; 1501 : 			_Pdif(_First, begin()), _Pdif(_Last, _First), _Ptr, _Count));
; 1502 : 		}
; 1503 : 
; 1504 : 	_Myt& replace(const_iterator _First, const_iterator _Last,
; 1505 : 		const _Elem *_Ptr)
; 1506 : 		{	// replace [_First, _Last) with [_Ptr, <null>)
; 1507 : 		return (replace(
; 1508 : 			_Pdif(_First, begin()), _Pdif(_Last, _First), _Ptr));
; 1509 : 		}
; 1510 : 
; 1511 : 	_Myt& replace(const_iterator _First, const_iterator _Last,
; 1512 : 		size_type _Count, _Elem _Ch)
; 1513 : 		{	// replace [_First, _Last) with _Count * _Ch
; 1514 : 		return (replace(
; 1515 : 			_Pdif(_First, begin()), _Pdif(_Last, _First), _Count, _Ch));
; 1516 : 		}
; 1517 : 
; 1518 : 	template<class _Iter>
; 1519 : 		typename enable_if<_Is_iterator<_Iter>::value,
; 1520 : 			_Myt&>::type
; 1521 : 		replace(const_iterator _First, const_iterator _Last,
; 1522 : 			_Iter _First2, _Iter _Last2)
; 1523 : 		{	// replace [_First, _Last) with [_First2, _Last2), input iterators
; 1524 : 		_Myt _Right(_First2, _Last2);
; 1525 : 		replace(_First, _Last, _Right);
; 1526 : 		return (*this);
; 1527 : 		}
; 1528 : 
; 1529 : 	_Myt& replace(const_iterator _First, const_iterator _Last,
; 1530 : 		const_pointer _First2, const_pointer _Last2)
; 1531 : 		{	// replace [_First, _Last) with [_First2, _Last2), const pointers
; 1532 : 		if (_First2 == _Last2)
; 1533 : 			erase(_Pdif(_First, begin()), _Pdif(_Last, _First));
; 1534 : 		else
; 1535 : 			replace(_Pdif(_First, begin()), _Pdif(_Last, _First),
; 1536 : 				&*_First2, _Last2 - _First2);
; 1537 : 		return (*this);
; 1538 : 		}
; 1539 : 
; 1540 : 	_Myt& replace(const_iterator _First, const_iterator _Last,
; 1541 : 		pointer _First2, pointer _Last2)
; 1542 : 		{	// replace [_First, _Last) with [_First2, _Last2), const pointers
; 1543 : 		if (_First2 == _Last2)
; 1544 : 			erase(_Pdif(_First, begin()), _Pdif(_Last, _First));
; 1545 : 		else
; 1546 : 			replace(_Pdif(_First, begin()), _Pdif(_Last, _First),
; 1547 : 				&*_First2, _Last2 - _First2);
; 1548 : 		return (*this);
; 1549 : 		}
; 1550 : 
; 1551 : 	_Myt& replace(const_iterator _First, const_iterator _Last,
; 1552 : 		const_iterator _First2, const_iterator _Last2)
; 1553 : 		{	// replace [_First, _Last) with [_First2, _Last2), const_iterators
; 1554 : 		if (_First2 == _Last2)
; 1555 : 			erase(_Pdif(_First, begin()), _Pdif(_Last, _First));
; 1556 : 		else
; 1557 : 			replace(_Pdif(_First, begin()), _Pdif(_Last, _First),
; 1558 : 				&*_First2, _Last2 - _First2);
; 1559 : 		return (*this);
; 1560 : 		}
; 1561 : 
; 1562 : 	_Myt& replace(const_iterator _First, const_iterator _Last,
; 1563 : 		iterator _First2, iterator _Last2)
; 1564 : 		{	// replace [_First, _Last) with [_First2, _Last2), const_iterators
; 1565 : 		if (_First2 == _Last2)
; 1566 : 			erase(_Pdif(_First, begin()), _Pdif(_Last, _First));
; 1567 : 		else
; 1568 : 			replace(_Pdif(_First, begin()), _Pdif(_Last, _First),
; 1569 : 				&*_First2, _Last2 - _First2);
; 1570 : 		return (*this);
; 1571 : 		}
; 1572 : 
; 1573 : 	iterator begin() _NOEXCEPT
; 1574 : 		{	// return iterator for beginning of mutable sequence
; 1575 : 		return (_STRING_ITERATOR(this->_Myptr()));
; 1576 : 		}
; 1577 : 
; 1578 : 	const_iterator begin() const _NOEXCEPT
; 1579 : 		{	// return iterator for beginning of nonmutable sequence
; 1580 : 		return (_STRING_CONST_ITERATOR(this->_Myptr()));
; 1581 : 		}
; 1582 : 
; 1583 : 	iterator end() _NOEXCEPT
; 1584 : 		{	// return iterator for end of mutable sequence
; 1585 : 		return (_STRING_ITERATOR(this->_Myptr() + this->_Mysize));
; 1586 : 		}
; 1587 : 
; 1588 : 	const_iterator end() const _NOEXCEPT
; 1589 : 		{	// return iterator for end of nonmutable sequence
; 1590 : 		return (_STRING_CONST_ITERATOR(this->_Myptr() + this->_Mysize));
; 1591 : 		}
; 1592 : 
; 1593 : 	reverse_iterator rbegin() _NOEXCEPT
; 1594 : 		{	// return iterator for beginning of reversed mutable sequence
; 1595 : 		return (reverse_iterator(end()));
; 1596 : 		}
; 1597 : 
; 1598 : 	const_reverse_iterator rbegin() const _NOEXCEPT
; 1599 : 		{	// return iterator for beginning of reversed nonmutable sequence
; 1600 : 		return (const_reverse_iterator(end()));
; 1601 : 		}
; 1602 : 
; 1603 : 	reverse_iterator rend() _NOEXCEPT
; 1604 : 		{	// return iterator for end of reversed mutable sequence
; 1605 : 		return (reverse_iterator(begin()));
; 1606 : 		}
; 1607 : 
; 1608 : 	const_reverse_iterator rend() const _NOEXCEPT
; 1609 : 		{	// return iterator for end of reversed nonmutable sequence
; 1610 : 		return (const_reverse_iterator(begin()));
; 1611 : 		}
; 1612 : 
; 1613 :  #if _HAS_CPP0X
; 1614 : 	const_iterator cbegin() const _NOEXCEPT
; 1615 : 		{	// return iterator for beginning of nonmutable sequence
; 1616 : 		return (((const _Myt *)this)->begin());
; 1617 : 		}
; 1618 : 
; 1619 : 	const_iterator cend() const _NOEXCEPT
; 1620 : 		{	// return iterator for end of nonmutable sequence
; 1621 : 		return (((const _Myt *)this)->end());
; 1622 : 		}
; 1623 : 
; 1624 : 	const_reverse_iterator crbegin() const _NOEXCEPT
; 1625 : 		{	// return iterator for beginning of reversed nonmutable sequence
; 1626 : 		return (((const _Myt *)this)->rbegin());
; 1627 : 		}
; 1628 : 
; 1629 : 	const_reverse_iterator crend() const _NOEXCEPT
; 1630 : 		{	// return iterator for end of reversed nonmutable sequence
; 1631 : 		return (((const _Myt *)this)->rend());
; 1632 : 		}
; 1633 : 
; 1634 : 	void shrink_to_fit()
; 1635 : 		{	// reduce capacity
; 1636 : 		if ((size() | this->_ALLOC_MASK) < capacity())
; 1637 : 			{	// worth shrinking, do it
; 1638 : 			_Myt _Tmp(*this);
; 1639 : 			swap(_Tmp);
; 1640 : 			}
; 1641 : 		}
; 1642 :  #endif /* _HAS_CPP0X */
; 1643 : 
; 1644 : 	reference at(size_type _Off)
; 1645 : 		{	// subscript mutable sequence with checking
; 1646 : 		if (this->_Mysize <= _Off)
; 1647 : 			_Xran();	// _Off off end
; 1648 : 		return (this->_Myptr()[_Off]);
; 1649 : 		}
; 1650 : 
; 1651 : 	const_reference at(size_type _Off) const
; 1652 : 		{	// subscript nonmutable sequence with checking
; 1653 : 		if (this->_Mysize <= _Off)
; 1654 : 			_Xran();	// _Off off end
; 1655 : 		return (this->_Myptr()[_Off]);
; 1656 : 		}
; 1657 : 
; 1658 : 	reference operator[](size_type _Off)
; 1659 : 		{	// subscript mutable sequence
; 1660 :  #if _ITERATOR_DEBUG_LEVEL == 2
; 1661 : 		if (this->_Mysize < _Off)	// sic
; 1662 : 			_DEBUG_ERROR("string subscript out of range");
; 1663 : 
; 1664 :  #elif _ITERATOR_DEBUG_LEVEL == 1
; 1665 : 		_SCL_SECURE_VALIDATE_RANGE(_Off <= this->_Mysize);	// sic
; 1666 :  #endif /* _ITERATOR_DEBUG_LEVEL == 2 */
; 1667 : 
; 1668 : 		return (this->_Myptr()[_Off]);
; 1669 : 		}
; 1670 : 
; 1671 : 	const_reference operator[](size_type _Off) const
; 1672 : 		{	// subscript nonmutable sequence
; 1673 :  #if _ITERATOR_DEBUG_LEVEL == 2
; 1674 : 		if (this->_Mysize < _Off)	// sic
; 1675 : 			_DEBUG_ERROR("string subscript out of range");
; 1676 : 
; 1677 :  #elif _ITERATOR_DEBUG_LEVEL == 1
; 1678 : 		_SCL_SECURE_VALIDATE_RANGE(_Off <= this->_Mysize);	// sic
; 1679 :  #endif /* _ITERATOR_DEBUG_LEVEL == 2 */
; 1680 : 
; 1681 : 		return (this->_Myptr()[_Off]);
; 1682 : 		}
; 1683 : 
; 1684 : 	void push_back(_Elem _Ch)
; 1685 : 		{	// insert element at end
; 1686 : 		insert(end(), _Ch);
; 1687 : 		}
; 1688 : 
; 1689 :  #if _HAS_CPP0X
; 1690 : 	void pop_back()
; 1691 : 		{	// erase element at end
; 1692 : 		erase(this->_Mysize - 1);	// throws if _Mysize == 0
; 1693 : 		}
; 1694 : 
; 1695 : 	reference front()
; 1696 : 		{	// return first element of mutable sequence
; 1697 : 		return (*begin());
; 1698 : 		}
; 1699 : 
; 1700 : 	const_reference front() const
; 1701 : 		{	// return first element of nonmutable sequence
; 1702 : 		return (*begin());
; 1703 : 		}
; 1704 : 
; 1705 : 	reference back()
; 1706 : 		{	// return last element of mutable sequence
; 1707 : 		return (*(end() - 1));
; 1708 : 		}
; 1709 : 
; 1710 : 	const_reference back() const
; 1711 : 		{	// return last element of nonmutable sequence
; 1712 : 		return (*(end() - 1));
; 1713 : 		}
; 1714 :  #endif /* _HAS_CPP0X */
; 1715 : 
; 1716 : 	const _Elem *c_str() const _NOEXCEPT
; 1717 : 		{	// return pointer to null-terminated nonmutable array
; 1718 : 		return (this->_Myptr());
; 1719 : 		}
; 1720 : 
; 1721 : 	const _Elem *data() const _NOEXCEPT
; 1722 : 		{	// return pointer to nonmutable array
; 1723 : 		return (c_str());
; 1724 : 		}
; 1725 : 
; 1726 : 	size_type length() const _NOEXCEPT
; 1727 : 		{	// return length of sequence
; 1728 : 		return (this->_Mysize);
; 1729 : 		}
; 1730 : 
; 1731 : 	size_type size() const _NOEXCEPT
; 1732 : 		{	// return length of sequence
; 1733 : 		return (this->_Mysize);
; 1734 : 		}
; 1735 : 
; 1736 : 	size_type max_size() const _NOEXCEPT
; 1737 : 		{	// return maximum possible length of sequence
; 1738 : 		size_type _Num = this->_Getal().max_size();
; 1739 : 		return (_Num <= 1 ? 1 : _Num - 1);
; 1740 : 		}
; 1741 : 
; 1742 : 	void resize(size_type _Newsize)
; 1743 : 		{	// determine new length, padding with null elements as needed
; 1744 : 		resize(_Newsize, _Elem());
; 1745 : 		}
; 1746 : 
; 1747 : 	void resize(size_type _Newsize, _Elem _Ch)
; 1748 : 		{	// determine new length, padding with _Ch elements as needed
; 1749 : 		if (_Newsize <= this->_Mysize)
; 1750 : 			_Eos(_Newsize);
; 1751 : 		else
; 1752 : 			append(_Newsize - this->_Mysize, _Ch);
; 1753 : 		}
; 1754 : 
; 1755 : 	size_type capacity() const _NOEXCEPT
; 1756 : 		{	// return current length of allocated storage
; 1757 : 		return (this->_Myres);
; 1758 : 		}
; 1759 : 
; 1760 : 	void reserve(size_type _Newcap = 0)
; 1761 : 		{	// determine new minimum length of allocated storage
; 1762 : 		if (this->_Mysize <= _Newcap && this->_Myres != _Newcap)
; 1763 : 			{	// change reservation
; 1764 : 			size_type _Size = this->_Mysize;
; 1765 : 			if (_Grow(_Newcap, true))
; 1766 : 				_Eos(_Size);
; 1767 : 			}
; 1768 : 		}
; 1769 : 
; 1770 : 	bool empty() const _NOEXCEPT
; 1771 : 		{	// test if sequence is empty
; 1772 : 		return (this->_Mysize == 0);
; 1773 : 		}
; 1774 : 
; 1775 : 	_SCL_INSECURE_DEPRECATE
; 1776 : 
; 1777 : 	size_type copy(_Elem *_Ptr,
; 1778 : 		size_type _Count, size_type _Off = 0) const
; 1779 : 		{	// copy [_Off, _Off + _Count) to [_Ptr, _Ptr + _Count)
; 1780 :  #if _ITERATOR_DEBUG_LEVEL == 2
; 1781 : 		if (_Count != 0)
; 1782 : 			_DEBUG_POINTER(_Ptr);
; 1783 :  #endif /* _ITERATOR_DEBUG_LEVEL == 2 */
; 1784 : 
; 1785 : 		if (this->_Mysize < _Off)
; 1786 : 			_Xran();	// _Off off end
; 1787 : 		if (this->_Mysize - _Off < _Count)
; 1788 : 			_Count = this->_Mysize - _Off;
; 1789 : 		_Traits::copy(_Ptr, this->_Myptr() + _Off, _Count);
; 1790 : 		return (_Count);
; 1791 : 		}
; 1792 : 
; 1793 : 	size_type _Copy_s(_Elem *_Dest, size_type _Dest_size,
; 1794 : 		size_type _Count, size_type _Off = 0) const
; 1795 : 		{	// copy [_Off, _Off + _Count) to [_Dest, _Dest + _Count)
; 1796 :  #if _ITERATOR_DEBUG_LEVEL == 2
; 1797 : 		if (_Count != 0)
; 1798 : 			_DEBUG_POINTER(_Dest);
; 1799 :  #endif /* _ITERATOR_DEBUG_LEVEL == 2 */
; 1800 : 
; 1801 : 		if (this->_Mysize < _Off)
; 1802 : 			_Xran();	// _Off off end
; 1803 : 		if (this->_Mysize - _Off < _Count)
; 1804 : 			_Count = this->_Mysize - _Off;
; 1805 : 		_Traits::_Copy_s(_Dest, _Dest_size, this->_Myptr() + _Off, _Count);
; 1806 : 		return (_Count);
; 1807 : 		}
; 1808 : 
; 1809 : 	void _Swap_bx(_Myt& _Right)
; 1810 : 		{	// exchange _Bx with _Right._Bx
; 1811 : 		if (this->_BUF_SIZE <= this->_Myres)
; 1812 : 			if (this->_BUF_SIZE <= _Right._Myres)
; 1813 : 				_Swap_adl(this->_Bx._Ptr, _Right._Bx._Ptr);
; 1814 : 			else
; 1815 : 				{	// swap large with small
; 1816 : 				pointer _Ptr = this->_Bx._Ptr;
; 1817 : 				this->_Getal().destroy(&this->_Bx._Ptr);
; 1818 : 				_Traits::copy(this->_Bx._Buf,
; 1819 : 					_Right._Bx._Buf, _Right._Mysize + 1);
; 1820 : 				this->_Getal().construct(&_Right._Bx._Ptr, _Ptr);
; 1821 : 				}
; 1822 : 		else
; 1823 : 			if (_Right._Myres < this->_BUF_SIZE)
; 1824 : 				_STD swap(this->_Bx._Buf, _Right._Bx._Buf);
; 1825 : 			else
; 1826 : 				{	// swap small with large
; 1827 : 				pointer _Ptr = _Right._Bx._Ptr;
; 1828 : 				this->_Getal().destroy(&_Right._Bx._Ptr);
; 1829 : 				_Traits::copy(_Right._Bx._Buf,
; 1830 : 					this->_Bx._Buf, this->_Mysize + 1);
; 1831 : 				this->_Getal().construct(&this->_Bx._Ptr, _Ptr);
; 1832 : 				}
; 1833 : 		}
; 1834 : 
; 1835 : 	void swap(_Myt& _Right)
; 1836 : 		{	// exchange contents with _Right
; 1837 : 		if (this == &_Right)
; 1838 : 			;	// same object, do nothing
; 1839 : 		else if (this->_Getal() == _Right._Getal())
; 1840 : 			{	// same allocator, swap control information
; 1841 : 			this->_Swap_all(_Right);
; 1842 : 			_Swap_bx(_Right);
; 1843 : 			_STD swap(this->_Mysize, _Right._Mysize);
; 1844 : 			_STD swap(this->_Myres, _Right._Myres);
; 1845 : 			}
; 1846 : 
; 1847 :  #if _HAS_CPP0X
; 1848 : 		else if (_Alty::propagate_on_container_swap::value)
; 1849 : 			{	// swap allocators and control information
; 1850 : 			this->_Swap_alloc(_Right);
; 1851 : 			_Swap_bx(_Right);
; 1852 : 			_STD swap(this->_Bx, _Right._Bx);	// pointer bitwise copyable?
; 1853 : 			_STD swap(this->_Mysize, _Right._Mysize);
; 1854 : 			_STD swap(this->_Myres, _Right._Myres);
; 1855 : 			}
; 1856 :  #endif /* _HAS_CPP0X */
; 1857 : 
; 1858 : 		else
; 1859 : 			{	// different allocator, do multiple assigns
; 1860 : 			_Myt _Tmp = *this;
; 1861 : 
; 1862 : 			*this = _Right;
; 1863 : 			_Right = _Tmp;
; 1864 : 			}
; 1865 : 		}
; 1866 : 
; 1867 : 	size_type find(const _Myt& _Right, size_type _Off = 0) const _NOEXCEPT
; 1868 : 		{	// look for _Right beginning at or after _Off
; 1869 : 		return (find(_Right._Myptr(), _Off, _Right.size()));
; 1870 : 		}
; 1871 : 
; 1872 : 	size_type find(const _Elem *_Ptr,
; 1873 : 		size_type _Off, size_type _Count) const
; 1874 : 		{	// look for [_Ptr, _Ptr + _Count) beginning at or after _Off
; 1875 :  #if _ITERATOR_DEBUG_LEVEL == 2
; 1876 : 		if (_Count != 0)
; 1877 : 			_DEBUG_POINTER(_Ptr);
; 1878 :  #endif /* _ITERATOR_DEBUG_LEVEL == 2 */
; 1879 : 
; 1880 : 		if (_Count == 0 && _Off <= this->_Mysize)
; 1881 : 			return (_Off);	// null string always matches (if inside string)
; 1882 : 
; 1883 : 		size_type _Nm;
; 1884 : 		if (_Off < this->_Mysize && _Count <= (_Nm = this->_Mysize - _Off))
; 1885 : 			{	// room for match, look for it
; 1886 : 			const _Elem *_Uptr, *_Vptr;
; 1887 : 			for (_Nm -= _Count - 1, _Vptr = this->_Myptr() + _Off;
; 1888 : 				(_Uptr = _Traits::find(_Vptr, _Nm, *_Ptr)) != 0;
; 1889 : 				_Nm -= _Uptr - _Vptr + 1, _Vptr = _Uptr + 1)
; 1890 : 				if (_Traits::compare(_Uptr, _Ptr, _Count) == 0)
; 1891 : 					return (_Uptr - this->_Myptr());	// found a match
; 1892 : 			}
; 1893 : 
; 1894 : 		return (npos);	// no match
; 1895 : 		}
; 1896 : 
; 1897 : 	size_type find(const _Elem *_Ptr, size_type _Off = 0) const
; 1898 : 		{	// look for [_Ptr, <null>) beginning at or after _Off
; 1899 : 		_DEBUG_POINTER(_Ptr);
; 1900 : 		return (find(_Ptr, _Off, _Traits::length(_Ptr)));
; 1901 : 		}
; 1902 : 
; 1903 : 	size_type find(_Elem _Ch, size_type _Off = 0) const
; 1904 : 		{	// look for _Ch at or after _Off
; 1905 : 		return (find((const _Elem *)&_Ch, _Off, 1));
; 1906 : 		}
; 1907 : 
; 1908 : 	size_type rfind(const _Myt& _Right, size_type _Off = npos) const _NOEXCEPT
; 1909 : 		{	// look for _Right beginning before _Off
; 1910 : 		return (rfind(_Right._Myptr(), _Off, _Right.size()));
; 1911 : 		}
; 1912 : 
; 1913 : 	size_type rfind(const _Elem *_Ptr,
; 1914 : 		size_type _Off, size_type _Count) const
; 1915 : 		{	// look for [_Ptr, _Ptr + _Count) beginning before _Off
; 1916 :  #if _ITERATOR_DEBUG_LEVEL == 2
; 1917 : 		if (_Count != 0)
; 1918 : 			_DEBUG_POINTER(_Ptr);
; 1919 :  #endif /* _ITERATOR_DEBUG_LEVEL == 2 */
; 1920 : 
; 1921 : 		if (_Count == 0)
; 1922 : 			return (_Off < this->_Mysize ? _Off
; 1923 : 				: this->_Mysize);	// null always matches
; 1924 : 		if (_Count <= this->_Mysize)
; 1925 : 			{	// room for match, look for it
; 1926 : 			const _Elem *_Uptr = this->_Myptr() +
; 1927 : 				(_Off < this->_Mysize - _Count ? _Off
; 1928 : 					: this->_Mysize - _Count);
; 1929 : 			for (; ; --_Uptr)
; 1930 : 				if (_Traits::eq(*_Uptr, *_Ptr)
; 1931 : 					&& _Traits::compare(_Uptr, _Ptr, _Count) == 0)
; 1932 : 					return (_Uptr - this->_Myptr());	// found a match
; 1933 : 				else if (_Uptr == this->_Myptr())
; 1934 : 					break;	// at beginning, no more chance for match
; 1935 : 			}
; 1936 : 
; 1937 : 		return (npos);	// no match
; 1938 : 		}
; 1939 : 
; 1940 : 	size_type rfind(const _Elem *_Ptr, size_type _Off = npos) const
; 1941 : 		{	// look for [_Ptr, <null>) beginning before _Off
; 1942 : 		_DEBUG_POINTER(_Ptr);
; 1943 : 		return (rfind(_Ptr, _Off, _Traits::length(_Ptr)));
; 1944 : 		}
; 1945 : 
; 1946 : 	size_type rfind(_Elem _Ch, size_type _Off = npos) const
; 1947 : 		{	// look for _Ch before _Off
; 1948 : 		return (rfind((const _Elem *)&_Ch, _Off, 1));
; 1949 : 		}
; 1950 : 
; 1951 : 	size_type find_first_of(const _Myt& _Right,
; 1952 : 		size_type _Off = 0) const _NOEXCEPT
; 1953 : 		{	// look for one of _Right at or after _Off
; 1954 : 		return (find_first_of(_Right._Myptr(), _Off, _Right.size()));
; 1955 : 		}
; 1956 : 
; 1957 : 	size_type find_first_of(const _Elem *_Ptr,
; 1958 : 		size_type _Off, size_type _Count) const
; 1959 : 		{	// look for one of [_Ptr, _Ptr + _Count) at or after _Off
; 1960 :  #if _ITERATOR_DEBUG_LEVEL == 2
; 1961 : 		if (_Count != 0)
; 1962 : 			_DEBUG_POINTER(_Ptr);
; 1963 :  #endif /* _ITERATOR_DEBUG_LEVEL == 2 */
; 1964 : 
; 1965 : 		if (0 < _Count && _Off < this->_Mysize)
; 1966 : 			{	// room for match, look for it
; 1967 : 			const _Elem *const _Vptr = this->_Myptr() + this->_Mysize;
; 1968 : 			for (const _Elem *_Uptr = this->_Myptr() + _Off;
; 1969 : 				_Uptr < _Vptr; ++_Uptr)
; 1970 : 				if (_Traits::find(_Ptr, _Count, *_Uptr) != 0)
; 1971 : 					return (_Uptr - this->_Myptr());	// found a match
; 1972 : 			}
; 1973 : 
; 1974 : 		return (npos);	// no match
; 1975 : 		}
; 1976 : 
; 1977 : 	size_type find_first_of(const _Elem *_Ptr,
; 1978 : 		size_type _Off = 0) const
; 1979 : 		{	// look for one of [_Ptr, <null>) at or after _Off
; 1980 : 		_DEBUG_POINTER(_Ptr);
; 1981 : 		return (find_first_of(_Ptr, _Off, _Traits::length(_Ptr)));
; 1982 : 		}
; 1983 : 
; 1984 : 	size_type find_first_of(_Elem _Ch,
; 1985 : 		size_type _Off = 0) const
; 1986 : 		{	// look for _Ch at or after _Off
; 1987 : 		return (find((const _Elem *)&_Ch, _Off, 1));
; 1988 : 		}
; 1989 : 
; 1990 : 	size_type find_last_of(const _Myt& _Right,
; 1991 : 		size_type _Off = npos) const _NOEXCEPT
; 1992 : 		{	// look for one of _Right before _Off
; 1993 : 		return (find_last_of(_Right._Myptr(), _Off, _Right.size()));
; 1994 : 		}
; 1995 : 
; 1996 : 	size_type find_last_of(const _Elem *_Ptr,
; 1997 : 		size_type _Off, size_type _Count) const
; 1998 : 		{	// look for one of [_Ptr, _Ptr + _Count) before _Off
; 1999 :  #if _ITERATOR_DEBUG_LEVEL == 2
; 2000 : 		if (_Count != 0)
; 2001 : 			_DEBUG_POINTER(_Ptr);
; 2002 :  #endif /* _ITERATOR_DEBUG_LEVEL == 2 */
; 2003 : 
; 2004 : 		if (0 < _Count && 0 < this->_Mysize)
; 2005 : 			{	// worth searching, do it
; 2006 : 			const _Elem *_Uptr = this->_Myptr()
; 2007 : 				+ (_Off < this->_Mysize ? _Off : this->_Mysize - 1);
; 2008 : 			for (; ; --_Uptr)
; 2009 : 				if (_Traits::find(_Ptr, _Count, *_Uptr) != 0)
; 2010 : 					return (_Uptr - this->_Myptr());	// found a match
; 2011 : 				else if (_Uptr == this->_Myptr())
; 2012 : 					break;	// at beginning, no more chance for match
; 2013 : 			}
; 2014 : 
; 2015 : 		return (npos);	// no match
; 2016 : 		}
; 2017 : 
; 2018 : 	size_type find_last_of(const _Elem *_Ptr,
; 2019 : 		size_type _Off = npos) const
; 2020 : 		{	// look for one of [_Ptr, <null>) before _Off
; 2021 : 		_DEBUG_POINTER(_Ptr);
; 2022 : 		return (find_last_of(_Ptr, _Off, _Traits::length(_Ptr)));

  00082	6a 02		 push	 2
  00084	83 ec 08	 sub	 esp, 8
  00087	8d 8d d8 fd ff
	ff		 lea	 ecx, DWORD PTR $T1[ebp]
  0008d	e8 00 00 00 00	 call	 ?find_last_of@?$basic_string@_WU?$char_traits@_W@std@@V?$allocator@_W@2@@std@@QBEIPB_WII@Z ; std::basic_string<wchar_t,std::char_traits<wchar_t>,std::allocator<wchar_t> >::find_last_of

; 2256 : 		else if (this->_BUF_SIZE <= this->_Myres)

  00092	83 bd ec fd ff
	ff 08		 cmp	 DWORD PTR $T1[ebp+20], 8
; File c:\users\glenn\documents\github\wind\project\wind\wind\ioutil.cpp

; 12   : 	int pos = std::wstring(buffer).find_last_of(L"\\/");

  00099	8b f0		 mov	 esi, eax
; File c:\program files (x86)\microsoft visual studio 11.0\vc\include\xstring

; 2256 : 		else if (this->_BUF_SIZE <= this->_Myres)

  0009b	72 0e		 jb	 SHORT $LN80@init
; File c:\program files (x86)\microsoft visual studio 11.0\vc\include\xmemory0

; 586  : 		::operator delete(_Ptr);

  0009d	ff b5 d8 fd ff
	ff		 push	 DWORD PTR $T1[ebp]
  000a3	e8 00 00 00 00	 call	 ??3@YAXPAX@Z		; operator delete
  000a8	83 c4 04	 add	 esp, 4
$LN80@init:
; File c:\users\glenn\documents\github\wind\project\wind\wind\ioutil.cpp

; 13   : 	buffer[pos] = 0;

  000ab	8d 04 36	 lea	 eax, DWORD PTR [esi+esi]
  000ae	3d 08 02 00 00	 cmp	 eax, 520		; 00000208H
  000b3	73 4c		 jae	 SHORT $LN103@init
  000b5	33 c9		 xor	 ecx, ecx
  000b7	66 89 8c 05 f0
	fd ff ff	 mov	 WORD PTR _buffer$[ebp+eax], cx
; File c:\program files (x86)\microsoft visual studio 11.0\vc\include\iosfwd

; 306  : 			: _CSTD wcslen(_First));

  000bf	66 39 8d f0 fd
	ff ff		 cmp	 WORD PTR _buffer$[ebp], cx
  000c6	74 18		 je	 SHORT $LN99@init
$LN98@init:
  000c8	8d 8d f0 fd ff
	ff		 lea	 ecx, DWORD PTR _buffer$[ebp]
  000ce	8d 51 02	 lea	 edx, DWORD PTR [ecx+2]
$LL101@init:
  000d1	66 8b 01	 mov	 ax, WORD PTR [ecx]
  000d4	83 c1 02	 add	 ecx, 2
  000d7	66 85 c0	 test	 ax, ax
  000da	75 f5		 jne	 SHORT $LL101@init
  000dc	2b ca		 sub	 ecx, edx
  000de	d1 f9		 sar	 ecx, 1
$LN99@init:
; File c:\program files (x86)\microsoft visual studio 11.0\vc\include\xstring

; 1144 : 		return (assign(_Ptr, _Traits::length(_Ptr)));

  000e0	51		 push	 ecx
  000e1	8d 85 f0 fd ff
	ff		 lea	 eax, DWORD PTR _buffer$[ebp]
  000e7	50		 push	 eax
  000e8	b9 00 00 00 00	 mov	 ecx, OFFSET ?EXE_DIR@IOUtil@@3V?$basic_string@_WU?$char_traits@_W@std@@V?$allocator@_W@2@@std@@A ; IOUtil::EXE_DIR
  000ed	e8 00 00 00 00	 call	 ?assign@?$basic_string@_WU?$char_traits@_W@std@@V?$allocator@_W@2@@std@@QAEAAV12@PB_WI@Z ; std::basic_string<wchar_t,std::char_traits<wchar_t>,std::allocator<wchar_t> >::assign
; File c:\users\glenn\documents\github\wind\project\wind\wind\ioutil.cpp

; 15   : }

  000f2	8b 4d fc	 mov	 ecx, DWORD PTR __$ArrayPad$[ebp]
  000f5	33 cd		 xor	 ecx, ebp
  000f7	5e		 pop	 esi
  000f8	e8 00 00 00 00	 call	 @__security_check_cookie@4
  000fd	8b e5		 mov	 esp, ebp
  000ff	5d		 pop	 ebp
  00100	c3		 ret	 0
$LN103@init:

; 13   : 	buffer[pos] = 0;

  00101	e8 00 00 00 00	 call	 ___report_rangecheckfailure
$LN104@init:
$LN102@init:
  00106	cc		 int	 3
?init@IOUtil@@YAXXZ ENDP				; IOUtil::init
_TEXT	ENDS
; Function compile flags: /Ogtp
; File c:\program files (x86)\microsoft visual studio 11.0\vc\include\xstring
; File c:\program files (x86)\microsoft visual studio 11.0\vc\include\iosfwd
; File c:\program files (x86)\microsoft visual studio 11.0\vc\include\xstring
; File c:\program files (x86)\microsoft visual studio 11.0\vc\include\iosfwd
; File c:\program files (x86)\microsoft visual studio 11.0\vc\include\xstring
;	COMDAT ??4?$basic_string@_WU?$char_traits@_W@std@@V?$allocator@_W@2@@std@@QAEAAV01@PB_W@Z
_TEXT	SEGMENT
__Ptr$ = 8						; size = 4
??4?$basic_string@_WU?$char_traits@_W@std@@V?$allocator@_W@2@@std@@QAEAAV01@PB_W@Z PROC ; std::basic_string<wchar_t,std::char_traits<wchar_t>,std::allocator<wchar_t> >::operator=, COMDAT
; _this$dead$ = ecx

; 988  : 		{	// assign [_Ptr, <null>)

  00000	55		 push	 ebp
  00001	8b ec		 mov	 ebp, esp
; File c:\program files (x86)\microsoft visual studio 11.0\vc\include\iosfwd

; 306  : 			: _CSTD wcslen(_First));

  00003	8b 55 08	 mov	 edx, DWORD PTR __Ptr$[ebp]
  00006	66 83 3a 00	 cmp	 WORD PTR [edx], 0
  0000a	75 12		 jne	 SHORT $LN7@operator
  0000c	33 c0		 xor	 eax, eax
; File c:\program files (x86)\microsoft visual studio 11.0\vc\include\xstring

; 1144 : 		return (assign(_Ptr, _Traits::length(_Ptr)));

  0000e	50		 push	 eax
  0000f	52		 push	 edx
  00010	b9 00 00 00 00	 mov	 ecx, OFFSET ?EXE_DIR@IOUtil@@3V?$basic_string@_WU?$char_traits@_W@std@@V?$allocator@_W@2@@std@@A ; IOUtil::EXE_DIR
  00015	e8 00 00 00 00	 call	 ?assign@?$basic_string@_WU?$char_traits@_W@std@@V?$allocator@_W@2@@std@@QAEAAV12@PB_WI@Z ; std::basic_string<wchar_t,std::char_traits<wchar_t>,std::allocator<wchar_t> >::assign

; 989  : 		return (assign(_Ptr));
; 990  : 		}

  0001a	5d		 pop	 ebp
  0001b	c2 04 00	 ret	 4
$LN7@operator:
; File c:\program files (x86)\microsoft visual studio 11.0\vc\include\iosfwd

; 306  : 			: _CSTD wcslen(_First));

  0001e	8b c2		 mov	 eax, edx
  00020	56		 push	 esi
  00021	8d 70 02	 lea	 esi, DWORD PTR [eax+2]
$LL9@operator:
  00024	66 8b 08	 mov	 cx, WORD PTR [eax]
  00027	83 c0 02	 add	 eax, 2
  0002a	66 85 c9	 test	 cx, cx
  0002d	75 f5		 jne	 SHORT $LL9@operator
  0002f	2b c6		 sub	 eax, esi
  00031	5e		 pop	 esi
  00032	d1 f8		 sar	 eax, 1
; File c:\program files (x86)\microsoft visual studio 11.0\vc\include\xstring

; 1144 : 		return (assign(_Ptr, _Traits::length(_Ptr)));

  00034	50		 push	 eax
  00035	52		 push	 edx
  00036	b9 00 00 00 00	 mov	 ecx, OFFSET ?EXE_DIR@IOUtil@@3V?$basic_string@_WU?$char_traits@_W@std@@V?$allocator@_W@2@@std@@A ; IOUtil::EXE_DIR
  0003b	e8 00 00 00 00	 call	 ?assign@?$basic_string@_WU?$char_traits@_W@std@@V?$allocator@_W@2@@std@@QAEAAV12@PB_WI@Z ; std::basic_string<wchar_t,std::char_traits<wchar_t>,std::allocator<wchar_t> >::assign

; 989  : 		return (assign(_Ptr));
; 990  : 		}

  00040	5d		 pop	 ebp
  00041	c2 04 00	 ret	 4
??4?$basic_string@_WU?$char_traits@_W@std@@V?$allocator@_W@2@@std@@QAEAAV01@PB_W@Z ENDP ; std::basic_string<wchar_t,std::char_traits<wchar_t>,std::allocator<wchar_t> >::operator=
_TEXT	ENDS
; Function compile flags: /Ogtp
; File c:\program files (x86)\microsoft visual studio 11.0\vc\include\xstring
;	COMDAT ?find_last_of@?$basic_string@_WU?$char_traits@_W@std@@V?$allocator@_W@2@@std@@QBEIPB_WI@Z
_TEXT	SEGMENT
__Ptr$dead$ = 8						; size = 4
__Off$dead$ = 12					; size = 4
?find_last_of@?$basic_string@_WU?$char_traits@_W@std@@V?$allocator@_W@2@@std@@QBEIPB_WI@Z PROC ; std::basic_string<wchar_t,std::char_traits<wchar_t>,std::allocator<wchar_t> >::find_last_of, COMDAT
; _this$ = ecx

; 2021 : 		_DEBUG_POINTER(_Ptr);
; 2022 : 		return (find_last_of(_Ptr, _Off, _Traits::length(_Ptr)));

  00000	6a 02		 push	 2
  00002	83 ec 08	 sub	 esp, 8
  00005	e8 00 00 00 00	 call	 ?find_last_of@?$basic_string@_WU?$char_traits@_W@std@@V?$allocator@_W@2@@std@@QBEIPB_WII@Z ; std::basic_string<wchar_t,std::char_traits<wchar_t>,std::allocator<wchar_t> >::find_last_of

; 2023 : 		}

  0000a	c2 08 00	 ret	 8
?find_last_of@?$basic_string@_WU?$char_traits@_W@std@@V?$allocator@_W@2@@std@@QBEIPB_WI@Z ENDP ; std::basic_string<wchar_t,std::char_traits<wchar_t>,std::allocator<wchar_t> >::find_last_of
_TEXT	ENDS
; Function compile flags: /Ogtp
; File c:\program files (x86)\microsoft visual studio 11.0\vc\include\xstring
; File c:\program files (x86)\microsoft visual studio 11.0\vc\include\xstddef
; File c:\program files (x86)\microsoft visual studio 11.0\vc\include\xstring
; File c:\program files (x86)\microsoft visual studio 11.0\vc\include\iosfwd
; File c:\program files (x86)\microsoft visual studio 11.0\vc\include\wchar.h
; File c:\program files (x86)\microsoft visual studio 11.0\vc\include\xstring
; File c:\program files (x86)\microsoft visual studio 11.0\vc\include\xstddef
; File c:\program files (x86)\microsoft visual studio 11.0\vc\include\xstring
;	COMDAT ?find_last_of@?$basic_string@_WU?$char_traits@_W@std@@V?$allocator@_W@2@@std@@QBEIPB_WII@Z
_TEXT	SEGMENT
__Ptr$dead$ = 8						; size = 4
__Off$dead$ = 12					; size = 4
__Count$ = 16						; size = 4
?find_last_of@?$basic_string@_WU?$char_traits@_W@std@@V?$allocator@_W@2@@std@@QBEIPB_WII@Z PROC ; std::basic_string<wchar_t,std::char_traits<wchar_t>,std::allocator<wchar_t> >::find_last_of, COMDAT
; _this$ = ecx

; 1998 : 		{	// look for one of [_Ptr, _Ptr + _Count) before _Off

  00000	55		 push	 ebp
  00001	8b ec		 mov	 ebp, esp
  00003	53		 push	 ebx

; 1999 :  #if _ITERATOR_DEBUG_LEVEL == 2
; 2000 : 		if (_Count != 0)
; 2001 : 			_DEBUG_POINTER(_Ptr);
; 2002 :  #endif /* _ITERATOR_DEBUG_LEVEL == 2 */
; 2003 : 
; 2004 : 		if (0 < _Count && 0 < this->_Mysize)

  00004	8b 5d 10	 mov	 ebx, DWORD PTR __Count$[ebp]
  00007	56		 push	 esi
  00008	57		 push	 edi
  00009	8b f9		 mov	 edi, ecx
  0000b	85 db		 test	 ebx, ebx
  0000d	74 61		 je	 SHORT $LN38@find_last_
  0000f	8b 47 10	 mov	 eax, DWORD PTR [edi+16]
  00012	85 c0		 test	 eax, eax
  00014	74 5a		 je	 SHORT $LN38@find_last_

; 2007 : 				+ (_Off < this->_Mysize ? _Off : this->_Mysize - 1);

  00016	83 f8 ff	 cmp	 eax, -1
  00019	76 05		 jbe	 SHORT $LN10@find_last_
  0001b	83 c8 ff	 or	 eax, -1
  0001e	eb 01		 jmp	 SHORT $LN11@find_last_
$LN10@find_last_:
  00020	48		 dec	 eax
$LN11@find_last_:

; 524  : 			: this->_Bx._Buf);

  00021	83 7f 14 08	 cmp	 DWORD PTR [edi+20], 8
  00025	72 02		 jb	 SHORT $LN15@find_last_
; File c:\program files (x86)\microsoft visual studio 11.0\vc\include\xstddef

; 88   : 		reinterpret_cast<const volatile char&>(_Val)))));

  00027	8b 0f		 mov	 ecx, DWORD PTR [edi]
$LN15@find_last_:
; File c:\program files (x86)\microsoft visual studio 11.0\vc\include\xstring

; 2007 : 				+ (_Off < this->_Mysize ? _Off : this->_Mysize - 1);

  00029	8d 34 41	 lea	 esi, DWORD PTR [ecx+eax*2]
  0002c	8d 64 24 00	 npad	 4
$LL6@find_last_:
; File c:\program files (x86)\microsoft visual studio 11.0\vc\include\iosfwd

; 329  : 			: (const _Elem *)_CSTD wmemchr(_First, _Ch, _Count));

  00030	85 db		 test	 ebx, ebx
  00032	74 17		 je	 SHORT $LN42@find_last_
  00034	0f b7 16	 movzx	 edx, WORD PTR [esi]
  00037	8b cb		 mov	 ecx, ebx
  00039	b8 00 00 00 00	 mov	 eax, OFFSET $SG4294945726
  0003e	8b ff		 npad	 2
$LL25@find_last_:
; File c:\program files (x86)\microsoft visual studio 11.0\vc\include\wchar.h

; 1242 :                 if (*_S == _C)

  00040	66 39 10	 cmp	 WORD PTR [eax], dx
  00043	74 16		 je	 SHORT $LN36@find_last_

; 1241 :         {for (; 0 < _N; ++_S, --_N)

  00045	83 c0 02	 add	 eax, 2
  00048	49		 dec	 ecx
  00049	75 f5		 jne	 SHORT $LL25@find_last_
$LN42@find_last_:
; File c:\program files (x86)\microsoft visual studio 11.0\vc\include\xstring

; 2011 : 				else if (_Uptr == this->_Myptr())

  0004b	8b cf		 mov	 ecx, edi
  0004d	e8 00 00 00 00	 call	 ?_Myptr@?$_String_val@U?$_Simple_types@_W@std@@@std@@QBEPB_WXZ ; std::_String_val<std::_Simple_types<wchar_t> >::_Myptr
  00052	3b f0		 cmp	 esi, eax
  00054	74 1a		 je	 SHORT $LN38@find_last_

; 2008 : 			for (; ; --_Uptr)

  00056	83 ee 02	 sub	 esi, 2
  00059	eb d5		 jmp	 SHORT $LL6@find_last_
$LN36@find_last_:

; 524  : 			: this->_Bx._Buf);

  0005b	83 7f 14 08	 cmp	 DWORD PTR [edi+20], 8
  0005f	72 02		 jb	 SHORT $LN30@find_last_
; File c:\program files (x86)\microsoft visual studio 11.0\vc\include\xstddef

; 88   : 		reinterpret_cast<const volatile char&>(_Val)))));

  00061	8b 3f		 mov	 edi, DWORD PTR [edi]
$LN30@find_last_:
; File c:\program files (x86)\microsoft visual studio 11.0\vc\include\xstring

; 2010 : 					return (_Uptr - this->_Myptr());	// found a match

  00063	2b f7		 sub	 esi, edi
  00065	d1 fe		 sar	 esi, 1
  00067	5f		 pop	 edi
  00068	8b c6		 mov	 eax, esi
  0006a	5e		 pop	 esi
  0006b	5b		 pop	 ebx

; 2016 : 		}

  0006c	5d		 pop	 ebp
  0006d	c2 0c 00	 ret	 12			; 0000000cH
$LN38@find_last_:
  00070	5f		 pop	 edi
  00071	5e		 pop	 esi

; 2012 : 					break;	// at beginning, no more chance for match
; 2013 : 			}
; 2014 : 
; 2015 : 		return (npos);	// no match

  00072	83 c8 ff	 or	 eax, -1
  00075	5b		 pop	 ebx

; 2016 : 		}

  00076	5d		 pop	 ebp
  00077	c2 0c 00	 ret	 12			; 0000000cH
?find_last_of@?$basic_string@_WU?$char_traits@_W@std@@V?$allocator@_W@2@@std@@QBEIPB_WII@Z ENDP ; std::basic_string<wchar_t,std::char_traits<wchar_t>,std::allocator<wchar_t> >::find_last_of
_TEXT	ENDS
END
