; Listing generated by Microsoft (R) Optimizing Compiler Version 17.00.50727.1 

	TITLE	C:\Users\Glenn\Documents\GitHub\Wind\Project\Wind\Wind\memutil.cpp
	.686P
	.XMM
	include listing.inc
	.model	flat

INCLUDELIB OLDNAMES

PUBLIC	??1MiniHeap@MemUtil@@QAE@XZ			; MemUtil::MiniHeap::~MiniHeap
PUBLIC	??0MiniHeap@MemUtil@@QAE@I@Z			; MemUtil::MiniHeap::MiniHeap
PUBLIC	?clear@MiniHeap@MemUtil@@QAEXXZ			; MemUtil::MiniHeap::clear
; Function compile flags: /Ogtp
; File c:\users\glenn\documents\github\wind\project\wind\wind\memutil.cpp
;	COMDAT ?clear@MiniHeap@MemUtil@@QAEXXZ
_TEXT	SEGMENT
?clear@MiniHeap@MemUtil@@QAEXXZ PROC			; MemUtil::MiniHeap::clear, COMDAT
; _this$ = ecx

; 18   : 	pos = 0;

  00000	c7 41 08 00 00
	00 00		 mov	 DWORD PTR [ecx+8], 0

; 19   : }

  00007	c3		 ret	 0
?clear@MiniHeap@MemUtil@@QAEXXZ ENDP			; MemUtil::MiniHeap::clear
_TEXT	ENDS
; Function compile flags: /Ogtp
; File c:\users\glenn\documents\github\wind\project\wind\wind\memutil.cpp
;	COMDAT ??0MiniHeap@MemUtil@@QAE@I@Z
_TEXT	SEGMENT
_size$dead$ = 8						; size = 4
??0MiniHeap@MemUtil@@QAE@I@Z PROC			; MemUtil::MiniHeap::MiniHeap, COMDAT
; _this$ = ecx

; 7    : {

  00000	56		 push	 esi
  00001	68 02 10 00 00	 push	 4098			; 00001002H
  00006	8b f1		 mov	 esi, ecx
  00008	e8 00 00 00 00	 call	 ??2@YAPAXI@Z		; operator new
  0000d	83 c4 04	 add	 esp, 4
  00010	89 06		 mov	 DWORD PTR [esi], eax
  00012	c7 46 04 02 10
	00 00		 mov	 DWORD PTR [esi+4], 4098	; 00001002H

; 8    : 
; 9    : }

  00019	8b c6		 mov	 eax, esi
  0001b	5e		 pop	 esi
  0001c	c2 04 00	 ret	 4
??0MiniHeap@MemUtil@@QAE@I@Z ENDP			; MemUtil::MiniHeap::MiniHeap
_TEXT	ENDS
; Function compile flags: /Ogtp
; File c:\users\glenn\documents\github\wind\project\wind\wind\memutil.cpp
;	COMDAT ??1MiniHeap@MemUtil@@QAE@XZ
_TEXT	SEGMENT
??1MiniHeap@MemUtil@@QAE@XZ PROC			; MemUtil::MiniHeap::~MiniHeap, COMDAT
; _this$ = ecx

; 13   : 	delete[] heap;

  00000	ff 31		 push	 DWORD PTR [ecx]
  00002	e8 00 00 00 00	 call	 ??3@YAXPAX@Z		; operator delete
  00007	59		 pop	 ecx

; 14   : }

  00008	c3		 ret	 0
??1MiniHeap@MemUtil@@QAE@XZ ENDP			; MemUtil::MiniHeap::~MiniHeap
_TEXT	ENDS
END
