; Listing generated by Microsoft (R) Optimizing Compiler Version 17.00.50727.1 

	TITLE	C:\Users\Glenn\Documents\GitHub\Wind\Project\Wind\Wind\task.cpp
	.686P
	.XMM
	include listing.inc
	.model	flat

INCLUDELIB OLDNAMES

PUBLIC	??_7Task@Tasks@@6B@				; Tasks::Task::`vftable'
PUBLIC	??_R2TaskVBOVAOSet@Tasks@@8			; Tasks::TaskVBOVAOSet::`RTTI Base Class Array'
PUBLIC	??_R0?AVTask@Tasks@@@8				; Tasks::Task `RTTI Type Descriptor'
PUBLIC	??_R3TaskVBOVAOSet@Tasks@@8			; Tasks::TaskVBOVAOSet::`RTTI Class Hierarchy Descriptor'
PUBLIC	??_R4TaskVBOVAOSet@Tasks@@6B@			; Tasks::TaskVBOVAOSet::`RTTI Complete Object Locator'
PUBLIC	??_R1A@?0A@EA@Task@Tasks@@8			; Tasks::Task::`RTTI Base Class Descriptor at (0,-1,0,64)'
PUBLIC	??_R4Task@Tasks@@6B@				; Tasks::Task::`RTTI Complete Object Locator'
PUBLIC	??_7TaskVBOVAOSet@Tasks@@6B@			; Tasks::TaskVBOVAOSet::`vftable'
PUBLIC	??_R1A@?0A@EA@TaskVBOVAOSet@Tasks@@8		; Tasks::TaskVBOVAOSet::`RTTI Base Class Descriptor at (0,-1,0,64)'
PUBLIC	??_R0?AVTaskVBOVAOSet@Tasks@@@8			; Tasks::TaskVBOVAOSet `RTTI Type Descriptor'
PUBLIC	??_R2Task@Tasks@@8				; Tasks::Task::`RTTI Base Class Array'
PUBLIC	??_R3Task@Tasks@@8				; Tasks::Task::`RTTI Class Hierarchy Descriptor'
;	COMDAT ??_R3Task@Tasks@@8
rdata$r	SEGMENT
??_R3Task@Tasks@@8 DD 00H				; Tasks::Task::`RTTI Class Hierarchy Descriptor'
	DD	00H
	DD	01H
	DD	FLAT:??_R2Task@Tasks@@8
rdata$r	ENDS
;	COMDAT ??_R2Task@Tasks@@8
rdata$r	SEGMENT
??_R2Task@Tasks@@8 DD FLAT:??_R1A@?0A@EA@Task@Tasks@@8	; Tasks::Task::`RTTI Base Class Array'
rdata$r	ENDS
;	COMDAT ??_R0?AVTaskVBOVAOSet@Tasks@@@8
_DATA	SEGMENT
??_R0?AVTaskVBOVAOSet@Tasks@@@8 DD FLAT:??_7type_info@@6B@ ; Tasks::TaskVBOVAOSet `RTTI Type Descriptor'
	DD	00H
	DB	'.?AVTaskVBOVAOSet@Tasks@@', 00H
_DATA	ENDS
;	COMDAT ??_R1A@?0A@EA@TaskVBOVAOSet@Tasks@@8
rdata$r	SEGMENT
??_R1A@?0A@EA@TaskVBOVAOSet@Tasks@@8 DD FLAT:??_R0?AVTaskVBOVAOSet@Tasks@@@8 ; Tasks::TaskVBOVAOSet::`RTTI Base Class Descriptor at (0,-1,0,64)'
	DD	01H
	DD	00H
	DD	0ffffffffH
	DD	00H
	DD	040H
	DD	FLAT:??_R3TaskVBOVAOSet@Tasks@@8
rdata$r	ENDS
;	COMDAT ??_7TaskVBOVAOSet@Tasks@@6B@
CONST	SEGMENT
??_7TaskVBOVAOSet@Tasks@@6B@ DD FLAT:??_R4TaskVBOVAOSet@Tasks@@6B@ ; Tasks::TaskVBOVAOSet::`vftable'
	DD	FLAT:?invoke@TaskVBOVAOSet@Tasks@@UAE_NXZ
CONST	ENDS
;	COMDAT ??_R4Task@Tasks@@6B@
rdata$r	SEGMENT
??_R4Task@Tasks@@6B@ DD 00H				; Tasks::Task::`RTTI Complete Object Locator'
	DD	00H
	DD	00H
	DD	FLAT:??_R0?AVTask@Tasks@@@8
	DD	FLAT:??_R3Task@Tasks@@8
rdata$r	ENDS
;	COMDAT ??_R1A@?0A@EA@Task@Tasks@@8
rdata$r	SEGMENT
??_R1A@?0A@EA@Task@Tasks@@8 DD FLAT:??_R0?AVTask@Tasks@@@8 ; Tasks::Task::`RTTI Base Class Descriptor at (0,-1,0,64)'
	DD	00H
	DD	00H
	DD	0ffffffffH
	DD	00H
	DD	040H
	DD	FLAT:??_R3Task@Tasks@@8
rdata$r	ENDS
;	COMDAT ??_R4TaskVBOVAOSet@Tasks@@6B@
rdata$r	SEGMENT
??_R4TaskVBOVAOSet@Tasks@@6B@ DD 00H			; Tasks::TaskVBOVAOSet::`RTTI Complete Object Locator'
	DD	00H
	DD	00H
	DD	FLAT:??_R0?AVTaskVBOVAOSet@Tasks@@@8
	DD	FLAT:??_R3TaskVBOVAOSet@Tasks@@8
rdata$r	ENDS
;	COMDAT ??_R3TaskVBOVAOSet@Tasks@@8
rdata$r	SEGMENT
??_R3TaskVBOVAOSet@Tasks@@8 DD 00H			; Tasks::TaskVBOVAOSet::`RTTI Class Hierarchy Descriptor'
	DD	00H
	DD	02H
	DD	FLAT:??_R2TaskVBOVAOSet@Tasks@@8
rdata$r	ENDS
;	COMDAT ??_R0?AVTask@Tasks@@@8
_DATA	SEGMENT
??_R0?AVTask@Tasks@@@8 DD FLAT:??_7type_info@@6B@	; Tasks::Task `RTTI Type Descriptor'
	DD	00H
	DB	'.?AVTask@Tasks@@', 00H
_DATA	ENDS
;	COMDAT ??_R2TaskVBOVAOSet@Tasks@@8
rdata$r	SEGMENT
??_R2TaskVBOVAOSet@Tasks@@8 DD FLAT:??_R1A@?0A@EA@TaskVBOVAOSet@Tasks@@8 ; Tasks::TaskVBOVAOSet::`RTTI Base Class Array'
	DD	FLAT:??_R1A@?0A@EA@Task@Tasks@@8
rdata$r	ENDS
;	COMDAT ??_7Task@Tasks@@6B@
CONST	SEGMENT
??_7Task@Tasks@@6B@ DD FLAT:??_R4Task@Tasks@@6B@	; Tasks::Task::`vftable'
	DD	FLAT:?invoke@Task@Tasks@@UAE_NXZ
PUBLIC	?invoke@TaskVBOVAOSet@Tasks@@UAE_NXZ		; Tasks::TaskVBOVAOSet::invoke
PUBLIC	??0Task@Tasks@@QAE@XZ				; Tasks::Task::Task
PUBLIC	??0TaskVBOVAOSet@Tasks@@QAE@II@Z		; Tasks::TaskVBOVAOSet::TaskVBOVAOSet
PUBLIC	?invoke@Task@Tasks@@UAE_NXZ			; Tasks::Task::invoke
	ALIGN	4

__Tuple_alloc DB 01H DUP (?)
	ALIGN	4

_ignore	DB	01H DUP (?)
	ALIGN	4

_allocator_arg DB 01H DUP (?)
	ALIGN	4

_piecewise_construct DB 01H DUP (?)
_BSS	ENDS
; Function compile flags: /Ogtp
; File c:\users\glenn\documents\github\wind\project\wind\wind\task.cpp
;	COMDAT ?invoke@Task@Tasks@@UAE_NXZ
_TEXT	SEGMENT
?invoke@Task@Tasks@@UAE_NXZ PROC			; Tasks::Task::invoke, COMDAT
; _this$ = ecx

; 7    : 	return false;

  00000	32 c0		 xor	 al, al

; 8    : }

  00002	c3		 ret	 0
?invoke@Task@Tasks@@UAE_NXZ ENDP			; Tasks::Task::invoke
_TEXT	ENDS
; Function compile flags: /Ogtp
; File c:\users\glenn\documents\github\wind\project\wind\wind\task.cpp
;	COMDAT ??0TaskVBOVAOSet@Tasks@@QAE@II@Z
_TEXT	SEGMENT
_vbo$ = 8						; size = 4
_vao$ = 12						; size = 4
??0TaskVBOVAOSet@Tasks@@QAE@II@Z PROC			; Tasks::TaskVBOVAOSet::TaskVBOVAOSet, COMDAT
; _this$ = ecx

; 13   : {

  00000	55		 push	 ebp
  00001	8b ec		 mov	 ebp, esp
  00003	8b 45 08	 mov	 eax, DWORD PTR _vbo$[ebp]
  00006	89 41 04	 mov	 DWORD PTR [ecx+4], eax
  00009	8b 45 0c	 mov	 eax, DWORD PTR _vao$[ebp]
  0000c	89 41 08	 mov	 DWORD PTR [ecx+8], eax
  0000f	c7 01 00 00 00
	00		 mov	 DWORD PTR [ecx], OFFSET ??_7TaskVBOVAOSet@Tasks@@6B@

; 14   : 
; 15   : }

  00015	8b c1		 mov	 eax, ecx
  00017	5d		 pop	 ebp
  00018	c2 08 00	 ret	 8
??0TaskVBOVAOSet@Tasks@@QAE@II@Z ENDP			; Tasks::TaskVBOVAOSet::TaskVBOVAOSet
_TEXT	ENDS
; Function compile flags: /Ogtp
;	COMDAT ??0Task@Tasks@@QAE@XZ
_TEXT	SEGMENT
??0Task@Tasks@@QAE@XZ PROC				; Tasks::Task::Task, COMDAT
; _this$ = ecx
  00000	c7 01 00 00 00
	00		 mov	 DWORD PTR [ecx], OFFSET ??_7Task@Tasks@@6B@
  00006	8b c1		 mov	 eax, ecx
  00008	c3		 ret	 0
??0Task@Tasks@@QAE@XZ ENDP				; Tasks::Task::Task
_TEXT	ENDS
; Function compile flags: /Ogtp
; File c:\users\glenn\documents\github\wind\project\wind\wind\task.cpp
;	COMDAT ?invoke@TaskVBOVAOSet@Tasks@@UAE_NXZ
_TEXT	SEGMENT
?invoke@TaskVBOVAOSet@Tasks@@UAE_NXZ PROC		; Tasks::TaskVBOVAOSet::invoke, COMDAT
; _this$ = ecx

; 18   : {

  00000	56		 push	 esi
  00001	8b f1		 mov	 esi, ecx

; 19   : 	glDeleteVertexArrays(1, &vao);

  00003	8d 46 08	 lea	 eax, DWORD PTR [esi+8]
  00006	50		 push	 eax
  00007	6a 01		 push	 1
  00009	ff 15 00 00 00
	00		 call	 DWORD PTR ___glewDeleteVertexArrays

; 20   : 	glDeleteBuffers(1, &vbo);

  0000f	8d 46 04	 lea	 eax, DWORD PTR [esi+4]
  00012	50		 push	 eax
  00013	6a 01		 push	 1
  00015	ff 15 00 00 00
	00		 call	 DWORD PTR ___glewDeleteBuffers

; 21   : 	return true;

  0001b	b0 01		 mov	 al, 1
  0001d	5e		 pop	 esi

; 22   : }

  0001e	c3		 ret	 0
?invoke@TaskVBOVAOSet@Tasks@@UAE_NXZ ENDP		; Tasks::TaskVBOVAOSet::invoke
_TEXT	ENDS
END
