; Listing generated by Microsoft (R) Optimizing Compiler Version 17.00.61030.0 

include listing.inc

INCLUDELIB OLDNAMES

PUBLIC	??_C@_0BD@OLBABOEK@vector?$DMT?$DO?5too?5long?$AA@ ; `string'
PUBLIC	?loaderThread@@3HA				; loaderThread
EXTRN	_time64:PROC
?loaderThread@@3HA DD 01H DUP (?)			; loaderThread
_BSS	ENDS
;	COMDAT ??_C@_0BD@OLBABOEK@vector?$DMT?$DO?5too?5long?$AA@
CONST	SEGMENT
??_C@_0BD@OLBABOEK@vector?$DMT?$DO?5too?5long?$AA@ DB 'vector<T> too long'
	DB	00H						; `string'
	ORG $+6
$SG4294957486 DB '\', 00H, 'p', 00H, 'r', 00H, 'o', 00H, 'g', 00H, 'r', 00H
	DB	'a', 00H, 'm', 00H, 's', 00H, '\', 00H, 'g', 00H, 'e', 00H, 'n'
	DB	00H, 'e', 00H, 'r', 00H, 'a', 00H, 't', 00H, 'i', 00H, 'o', 00H
	DB	'n', 00H, '.', 00H, 'c', 00H, 'l', 00H, 00H, 00H
$SG4294957485 DB 'generateTerrain_1', 00H
PUBLIC	??_G?$shared_ptr@VCave@@@std@@QEAAPEAXI@Z	; std::shared_ptr<Cave>::`scalar deleting destructor'
PUBLIC	??$destroy@VLine@geom@@@?$allocator@VLine@geom@@@std@@QEAAXPEAVLine@geom@@@Z ; std::allocator<geom::Line>::destroy<geom::Line>
PUBLIC	??$destroy@V?$shared_ptr@VCave@@@std@@@?$allocator@V?$shared_ptr@VCave@@@std@@@std@@QEAAXPEAV?$shared_ptr@VCave@@@1@@Z ; std::allocator<std::shared_ptr<Cave> >::destroy<std::shared_ptr<Cave> >
PUBLIC	??$destroy@VLine@geom@@@?$allocator_traits@V?$allocator@VLine@geom@@@std@@@std@@SAXAEAV?$allocator@VLine@geom@@@1@PEAVLine@geom@@@Z ; std::allocator_traits<std::allocator<geom::Line> >::destroy<geom::Line>
PUBLIC	??$destroy@V?$shared_ptr@VCave@@@std@@@?$allocator_traits@V?$allocator@V?$shared_ptr@VCave@@@std@@@std@@@std@@SAXAEAV?$allocator@V?$shared_ptr@VCave@@@std@@@1@PEAV?$shared_ptr@VCave@@@1@@Z ; std::allocator_traits<std::allocator<std::shared_ptr<Cave> > >::destroy<std::shared_ptr<Cave> >
PUBLIC	??0Line@geom@@QEAA@AEBV01@@Z			; geom::Line::Line
PUBLIC	??$_Uninit_move@PEAVLine@geom@@PEAV12@V?$allocator@VLine@geom@@@std@@V12@@std@@YAPEAVLine@geom@@PEAV12@00AEAU?$_Wrap_alloc@V?$allocator@VLine@geom@@@std@@@0@0U_Nonscalar_ptr_iterator_tag@0@@Z ; std::_Uninit_move<geom::Line * __ptr64,geom::Line * __ptr64,std::allocator<geom::Line>,geom::Line>
PUBLIC	??$_Val_type@PEAVLine@geom@@@std@@YAPEAVLine@geom@@PEAV12@@Z ; std::_Val_type<geom::Line * __ptr64>
PUBLIC	??$destroy@VLine@geom@@@?$_Wrap_alloc@V?$allocator@VLine@geom@@@std@@@std@@QEAAXPEAVLine@geom@@@Z ; std::_Wrap_alloc<std::allocator<geom::Line> >::destroy<geom::Line>
PUBLIC	??$destroy@V?$shared_ptr@VCave@@@std@@@?$_Wrap_alloc@V?$allocator@V?$shared_ptr@VCave@@@std@@@std@@@std@@QEAAXPEAV?$shared_ptr@VCave@@@1@@Z ; std::_Wrap_alloc<std::allocator<std::shared_ptr<Cave> > >::destroy<std::shared_ptr<Cave> >
PUBLIC	??$construct@VLine@geom@@V12@@?$allocator@VLine@geom@@@std@@QEAAXPEAVLine@geom@@$$QEAV23@@Z ; std::allocator<geom::Line>::construct<geom::Line,geom::Line>
PUBLIC	??$_Uninitialized_move@PEAVLine@geom@@PEAV12@U?$_Wrap_alloc@V?$allocator@VLine@geom@@@std@@@std@@@std@@YAPEAVLine@geom@@PEAV12@00AEAU?$_Wrap_alloc@V?$allocator@VLine@geom@@@std@@@0@@Z ; std::_Uninitialized_move<geom::Line * __ptr64,geom::Line * __ptr64,std::_Wrap_alloc<std::allocator<geom::Line> > >
PUBLIC	??$_Destroy_range@U?$_Wrap_alloc@V?$allocator@VLine@geom@@@std@@@std@@@std@@YAXPEAVLine@geom@@0AEAU?$_Wrap_alloc@V?$allocator@VLine@geom@@@std@@@0@U_Nonscalar_ptr_iterator_tag@0@@Z ; std::_Destroy_range<std::_Wrap_alloc<std::allocator<geom::Line> > >
PUBLIC	??$_Ptr_cat@VLine@geom@@V12@@std@@YA?AU_Nonscalar_ptr_iterator_tag@0@PEAVLine@geom@@0@Z ; std::_Ptr_cat<geom::Line,geom::Line>
PUBLIC	??$_Destroy_range@U?$_Wrap_alloc@V?$allocator@V?$shared_ptr@VCave@@@std@@@std@@@std@@@std@@YAXPEAV?$shared_ptr@VCave@@@0@0AEAU?$_Wrap_alloc@V?$allocator@V?$shared_ptr@VCave@@@std@@@std@@@0@U_Nonscalar_ptr_iterator_tag@0@@Z ; std::_Destroy_range<std::_Wrap_alloc<std::allocator<std::shared_ptr<Cave> > > >
PUBLIC	??$_Ptr_cat@V?$shared_ptr@VCave@@@std@@V12@@std@@YA?AU_Nonscalar_ptr_iterator_tag@0@PEAV?$shared_ptr@VCave@@@0@0@Z ; std::_Ptr_cat<std::shared_ptr<Cave>,std::shared_ptr<Cave> >
PUBLIC	??$construct@VLine@geom@@V12@@?$allocator_traits@V?$allocator@VLine@geom@@@std@@@std@@SAXAEAV?$allocator@VLine@geom@@@1@PEAVLine@geom@@$$QEAV34@@Z ; std::allocator_traits<std::allocator<geom::Line> >::construct<geom::Line,geom::Line>
PUBLIC	?_Reset0@?$_Ptr_base@VCave@@@std@@QEAAXPEAVCave@@PEAV_Ref_count_base@2@@Z ; std::_Ptr_base<Cave>::_Reset0
PUBLIC	?_Reset@?$_Ptr_base@VCave@@@std@@QEAAXPEAVCave@@PEAV_Ref_count_base@2@@Z ; std::_Ptr_base<Cave>::_Reset
PUBLIC	??$_Allocate@VLine@geom@@@std@@YAPEAVLine@geom@@_KPEAV12@@Z ; std::_Allocate<geom::Line>
PUBLIC	??$_Umove@PEAVLine@geom@@@?$vector@VLine@geom@@V?$allocator@VLine@geom@@@std@@@std@@IEAAPEAVLine@geom@@PEAV23@00@Z ; std::vector<geom::Line,std::allocator<geom::Line> >::_Umove<geom::Line * __ptr64>
PUBLIC	??$_Destroy_range@U?$_Wrap_alloc@V?$allocator@VLine@geom@@@std@@@std@@@std@@YAXPEAVLine@geom@@0AEAU?$_Wrap_alloc@V?$allocator@VLine@geom@@@std@@@0@@Z ; std::_Destroy_range<std::_Wrap_alloc<std::allocator<geom::Line> > >
PUBLIC	??$_Destroy_range@U?$_Wrap_alloc@V?$allocator@V?$shared_ptr@VCave@@@std@@@std@@@std@@@std@@YAXPEAV?$shared_ptr@VCave@@@0@0AEAU?$_Wrap_alloc@V?$allocator@V?$shared_ptr@VCave@@@std@@@std@@@0@@Z ; std::_Destroy_range<std::_Wrap_alloc<std::allocator<std::shared_ptr<Cave> > > >
PUBLIC	??$construct@VLine@geom@@V12@@?$_Wrap_alloc@V?$allocator@VLine@geom@@@std@@@std@@QEAAXPEAVLine@geom@@$$QEAV23@@Z ; std::_Wrap_alloc<std::allocator<geom::Line> >::construct<geom::Line,geom::Line>
PUBLIC	??$forward@VLine@geom@@@std@@YA$$QEAVLine@geom@@AEAV12@@Z ; std::forward<geom::Line>
PUBLIC	??$addressof@VLine@geom@@@std@@YAPEAVLine@geom@@AEAV12@@Z ; std::addressof<geom::Line>
PUBLIC	??$_Reset@VCave@@@?$_Ptr_base@VCave@@@std@@QEAAXAEBV01@@Z ; std::_Ptr_base<Cave>::_Reset<Cave>
PUBLIC	?max_size@?$allocator@VLine@geom@@@std@@QEBA_KXZ ; std::allocator<geom::Line>::max_size
PUBLIC	?max_size@?$allocator_traits@V?$allocator@VLine@geom@@@std@@@std@@SA_KAEBV?$allocator@VLine@geom@@@2@@Z ; std::allocator_traits<std::allocator<geom::Line> >::max_size
PUBLIC	?allocate@?$allocator@VLine@geom@@@std@@QEAAPEAVLine@geom@@_K@Z ; std::allocator<geom::Line>::allocate
PUBLIC	??0?$allocator@V?$shared_ptr@VCave@@@std@@@std@@QEAA@XZ ; std::allocator<std::shared_ptr<Cave> >::allocator<std::shared_ptr<Cave> >
PUBLIC	?max_size@?$_Wrap_alloc@V?$allocator@VLine@geom@@@std@@@std@@QEBA_KXZ ; std::_Wrap_alloc<std::allocator<geom::Line> >::max_size
PUBLIC	?allocate@?$_Wrap_alloc@V?$allocator@VLine@geom@@@std@@@std@@QEAAPEAVLine@geom@@_K@Z ; std::_Wrap_alloc<std::allocator<geom::Line> >::allocate
PUBLIC	?deallocate@?$allocator@VLine@geom@@@std@@QEAAXPEAVLine@geom@@_K@Z ; std::allocator<geom::Line>::deallocate
PUBLIC	?capacity@?$vector@VLine@geom@@V?$allocator@VLine@geom@@@std@@@std@@QEBA_KXZ ; std::vector<geom::Line,std::allocator<geom::Line> >::capacity
PUBLIC	??0?$_Wrap_alloc@V?$allocator@V?$shared_ptr@VCave@@@std@@@std@@@std@@QEAA@XZ ; std::_Wrap_alloc<std::allocator<std::shared_ptr<Cave> > >::_Wrap_alloc<std::allocator<std::shared_ptr<Cave> > >
PUBLIC	?deallocate@?$allocator@V?$shared_ptr@VCave@@@std@@@std@@QEAAXPEAV?$shared_ptr@VCave@@@2@_K@Z ; std::allocator<std::shared_ptr<Cave> >::deallocate
PUBLIC	??0?$_Vector_val@U?$_Simple_types@VLine@geom@@@std@@@std@@QEAA@XZ ; std::_Vector_val<std::_Simple_types<geom::Line> >::_Vector_val<std::_Simple_types<geom::Line> >
PUBLIC	?deallocate@?$_Wrap_alloc@V?$allocator@VLine@geom@@@std@@@std@@QEAAXPEAVLine@geom@@_K@Z ; std::_Wrap_alloc<std::allocator<geom::Line> >::deallocate
PUBLIC	??0?$_Wrap_alloc@V?$allocator@VLine@geom@@@std@@@std@@QEAA@XZ ; std::_Wrap_alloc<std::allocator<geom::Line> >::_Wrap_alloc<std::allocator<geom::Line> >
PUBLIC	?_Xlen@?$vector@VLine@geom@@V?$allocator@VLine@geom@@@std@@@std@@IEBAXXZ ; std::vector<geom::Line,std::allocator<geom::Line> >::_Xlen
PUBLIC	?_Reallocate@?$vector@VLine@geom@@V?$allocator@VLine@geom@@@std@@@std@@IEAAX_K@Z ; std::vector<geom::Line,std::allocator<geom::Line> >::_Reallocate
PUBLIC	?_Grow_to@?$vector@VLine@geom@@V?$allocator@VLine@geom@@@std@@@std@@IEBA_K_K@Z ; std::vector<geom::Line,std::allocator<geom::Line> >::_Grow_to
PUBLIC	?_Destroy@?$vector@VLine@geom@@V?$allocator@VLine@geom@@@std@@@std@@IEAAXPEAVLine@geom@@0@Z ; std::vector<geom::Line,std::allocator<geom::Line> >::_Destroy
PUBLIC	?max_size@?$vector@VLine@geom@@V?$allocator@VLine@geom@@@std@@@std@@QEBA_KXZ ; std::vector<geom::Line,std::allocator<geom::Line> >::max_size
PUBLIC	?_Unused_capacity@?$vector@VLine@geom@@V?$allocator@VLine@geom@@@std@@@std@@QEBA_KXZ ; std::vector<geom::Line,std::allocator<geom::Line> >::_Unused_capacity
PUBLIC	?deallocate@?$_Wrap_alloc@V?$allocator@V?$shared_ptr@VCave@@@std@@@std@@@std@@QEAAXPEAV?$shared_ptr@VCave@@@2@_K@Z ; std::_Wrap_alloc<std::allocator<std::shared_ptr<Cave> > >::deallocate
PUBLIC	?_Getal@?$_Vector_alloc@$0A@U?$_Vec_base_types@V?$shared_ptr@VCave@@@std@@V?$allocator@V?$shared_ptr@VCave@@@std@@@2@@std@@@std@@QEBA?AU?$_Wrap_alloc@V?$allocator@V?$shared_ptr@VCave@@@std@@@std@@@2@XZ ; std::_Vector_alloc<0,std::_Vec_base_types<std::shared_ptr<Cave>,std::allocator<std::shared_ptr<Cave> > > >::_Getal
PUBLIC	?_Destroy@?$vector@V?$shared_ptr@VCave@@@std@@V?$allocator@V?$shared_ptr@VCave@@@std@@@2@@std@@IEAAXPEAV?$shared_ptr@VCave@@@2@0@Z ; std::vector<std::shared_ptr<Cave>,std::allocator<std::shared_ptr<Cave> > >::_Destroy
PUBLIC	?_Getal@?$_Vector_alloc@$0A@U?$_Vec_base_types@VLine@geom@@V?$allocator@VLine@geom@@@std@@@std@@@std@@QEBA?AU?$_Wrap_alloc@V?$allocator@VLine@geom@@@std@@@2@XZ ; std::_Vector_alloc<0,std::_Vec_base_types<geom::Line,std::allocator<geom::Line> > >::_Getal
PUBLIC	??0?$_Vector_alloc@$0A@U?$_Vec_base_types@VLine@geom@@V?$allocator@VLine@geom@@@std@@@std@@@std@@QEAA@AEBV?$allocator@VLine@geom@@@1@@Z ; std::_Vector_alloc<0,std::_Vec_base_types<geom::Line,std::allocator<geom::Line> > >::_Vector_alloc<0,std::_Vec_base_types<geom::Line,std::allocator<geom::Line> > >
PUBLIC	??0?$allocator@VLine@geom@@@std@@QEAA@XZ	; std::allocator<geom::Line>::allocator<geom::Line>
PUBLIC	?_Orphan_range@?$vector@VLine@geom@@V?$allocator@VLine@geom@@@std@@@std@@IEBAXPEAVLine@geom@@0@Z ; std::vector<geom::Line,std::allocator<geom::Line> >::_Orphan_range
PUBLIC	?_Tidy@?$vector@VLine@geom@@V?$allocator@VLine@geom@@@std@@@std@@IEAAXXZ ; std::vector<geom::Line,std::allocator<geom::Line> >::_Tidy
PUBLIC	?_Reserve@?$vector@VLine@geom@@V?$allocator@VLine@geom@@@std@@@std@@IEAAX_K@Z ; std::vector<geom::Line,std::allocator<geom::Line> >::_Reserve
PUBLIC	?_Inside@?$vector@VLine@geom@@V?$allocator@VLine@geom@@@std@@@std@@IEBA_NPEBVLine@geom@@@Z ; std::vector<geom::Line,std::allocator<geom::Line> >::_Inside
PUBLIC	?_Tidy@?$vector@V?$shared_ptr@VCave@@@std@@V?$allocator@V?$shared_ptr@VCave@@@std@@@2@@std@@IEAAXXZ ; std::vector<std::shared_ptr<Cave>,std::allocator<std::shared_ptr<Cave> > >::_Tidy
PUBLIC	?_Decref@?$_Ptr_base@VCave@@@std@@QEAAXXZ	; std::_Ptr_base<Cave>::_Decref
PUBLIC	?_Get@?$_Ptr_base@VCave@@@std@@QEBAPEAVCave@@XZ	; std::_Ptr_base<Cave>::_Get
PUBLIC	??0?$_Ptr_base@VCave@@@std@@QEAA@XZ		; std::_Ptr_base<Cave>::_Ptr_base<Cave>
PUBLIC	??A?$vector@VLine@geom@@V?$allocator@VLine@geom@@@std@@@std@@QEAAAEAVLine@geom@@_K@Z ; std::vector<geom::Line,std::allocator<geom::Line> >::operator[]
PUBLIC	?size@?$vector@VLine@geom@@V?$allocator@VLine@geom@@@std@@@std@@QEBA_KXZ ; std::vector<geom::Line,std::allocator<geom::Line> >::size
PUBLIC	??1?$vector@VLine@geom@@V?$allocator@VLine@geom@@@std@@@std@@QEAA@XZ ; std::vector<geom::Line,std::allocator<geom::Line> >::~vector<geom::Line,std::allocator<geom::Line> >
PUBLIC	?push_back@?$vector@VLine@geom@@V?$allocator@VLine@geom@@@std@@@std@@QEAAX$$QEAVLine@geom@@@Z ; std::vector<geom::Line,std::allocator<geom::Line> >::push_back
PUBLIC	??0?$vector@VLine@geom@@V?$allocator@VLine@geom@@@std@@@std@@QEAA@XZ ; std::vector<geom::Line,std::allocator<geom::Line> >::vector<geom::Line,std::allocator<geom::Line> >
PUBLIC	??A?$vector@V?$shared_ptr@VCave@@@std@@V?$allocator@V?$shared_ptr@VCave@@@std@@@2@@std@@QEAAAEAV?$shared_ptr@VCave@@@1@_K@Z ; std::vector<std::shared_ptr<Cave>,std::allocator<std::shared_ptr<Cave> > >::operator[]
PUBLIC	?size@?$vector@V?$shared_ptr@VCave@@@std@@V?$allocator@V?$shared_ptr@VCave@@@std@@@2@@std@@QEBA_KXZ ; std::vector<std::shared_ptr<Cave>,std::allocator<std::shared_ptr<Cave> > >::size
PUBLIC	??1?$vector@V?$shared_ptr@VCave@@@std@@V?$allocator@V?$shared_ptr@VCave@@@std@@@2@@std@@QEAA@XZ ; std::vector<std::shared_ptr<Cave>,std::allocator<std::shared_ptr<Cave> > >::~vector<std::shared_ptr<Cave>,std::allocator<std::shared_ptr<Cave> > >
PUBLIC	??C?$shared_ptr@VCave@@@std@@QEBAPEAVCave@@XZ	; std::shared_ptr<Cave>::operator->
PUBLIC	??1?$shared_ptr@VCave@@@std@@QEAA@XZ		; std::shared_ptr<Cave>::~shared_ptr<Cave>
PUBLIC	??0?$shared_ptr@VCave@@@std@@QEAA@AEBV01@@Z	; std::shared_ptr<Cave>::shared_ptr<Cave>
PUBLIC	?empty@?$queue@V?$shared_ptr@VChunkBase@@@std@@V?$deque@V?$shared_ptr@VChunkBase@@@std@@V?$allocator@V?$shared_ptr@VChunkBase@@@std@@@2@@2@@std@@QEBA_NXZ ; std::queue<std::shared_ptr<ChunkBase>,std::deque<std::shared_ptr<ChunkBase>,std::allocator<std::shared_ptr<ChunkBase> > > >::empty
PUBLIC	?requestChunkLoad@@YAXV?$shared_ptr@VChunkBase@@@std@@@Z ; requestChunkLoad
PUBLIC	?tick@ChunkLoadThread@@MEAA_NXZ			; ChunkLoadThread::tick
PUBLIC	?preStart@ChunkLoadThread@@MEAAXXZ		; ChunkLoadThread::preStart
PUBLIC	?staticInit@ChunkLoadThread@@SAXXZ		; ChunkLoadThread::staticInit
PUBLIC	?_Orphan_all@_Container_base0@std@@QEAAXXZ	; std::_Container_base0::_Orphan_all
PUBLIC	?temperatureNoise@ChunkLoadThread@@2VNoiseGenerator2D@Noise@@A ; ChunkLoadThread::temperatureNoise
PUBLIC	?humidityNoise@ChunkLoadThread@@2VNoiseGenerator2D@Noise@@A ; ChunkLoadThread::humidityNoise
PUBLIC	?minHeightNoise@ChunkLoadThread@@2VNoiseGenerator2D@Noise@@A ; ChunkLoadThread::minHeightNoise
PUBLIC	?solidNoise@ChunkLoadThread@@2VNoiseGenerator3D@Noise@@A ; ChunkLoadThread::solidNoise
PUBLIC	?chunkGenProgram@ChunkLoadThread@@2VProgram@cl@@A ; ChunkLoadThread::chunkGenProgram
PUBLIC	?stoneNoise@ChunkLoadThread@@2VNoiseGenerator3D@Noise@@A ; ChunkLoadThread::stoneNoise
PUBLIC	?smoothnessNoise@ChunkLoadThread@@2VNoiseGenerator3D@Noise@@A ; ChunkLoadThread::smoothnessNoise
PUBLIC	?maxHeightNoise@ChunkLoadThread@@2VNoiseGenerator2D@Noise@@A ; ChunkLoadThread::maxHeightNoise
	ALIGN	4

_Tuple_alloc DB	01H DUP (?)
	ALIGN	4

?temperatureNoise@ChunkLoadThread@@2VNoiseGenerator2D@Noise@@A DB 030H DUP (?) ; ChunkLoadThread::temperatureNoise
?humidityNoise@ChunkLoadThread@@2VNoiseGenerator2D@Noise@@A DB 030H DUP (?) ; ChunkLoadThread::humidityNoise
?minHeightNoise@ChunkLoadThread@@2VNoiseGenerator2D@Noise@@A DB 030H DUP (?) ; ChunkLoadThread::minHeightNoise
ignore	DB	01H DUP (?)
	ALIGN	4

allocator_arg DB 01H DUP (?)
	ALIGN	4

?solidNoise@ChunkLoadThread@@2VNoiseGenerator3D@Noise@@A DB 030H DUP (?) ; ChunkLoadThread::solidNoise
?chunkGenProgram@ChunkLoadThread@@2VProgram@cl@@A DB 038H DUP (?) ; ChunkLoadThread::chunkGenProgram
piecewise_construct DB 01H DUP (?)
	ALIGN	4

?stoneNoise@ChunkLoadThread@@2VNoiseGenerator3D@Noise@@A DB 030H DUP (?) ; ChunkLoadThread::stoneNoise
?smoothnessNoise@ChunkLoadThread@@2VNoiseGenerator3D@Noise@@A DB 030H DUP (?) ; ChunkLoadThread::smoothnessNoise
?maxHeightNoise@ChunkLoadThread@@2VNoiseGenerator2D@Noise@@A DB 030H DUP (?) ; ChunkLoadThread::maxHeightNoise
_BSS	ENDS
;	COMDAT pdata
pdata	SEGMENT
$pdata$??_G?$shared_ptr@VCave@@@std@@QEAAPEAXI@Z DD imagerel $LN20
	DD	imagerel $LN20+26
	DD	imagerel $unwind$??_G?$shared_ptr@VCave@@@std@@QEAAPEAXI@Z
pdata	ENDS
;	COMDAT pdata
pdata	SEGMENT
$pdata$0$??_G?$shared_ptr@VCave@@@std@@QEAAPEAXI@Z DD imagerel $LN20+26
	DD	imagerel $LN20+75
	DD	imagerel $chain$0$??_G?$shared_ptr@VCave@@@std@@QEAAPEAXI@Z
pdata	ENDS
;	COMDAT pdata
pdata	SEGMENT
$pdata$1$??_G?$shared_ptr@VCave@@@std@@QEAAPEAXI@Z DD imagerel $LN20+75
	DD	imagerel $LN20+89
	DD	imagerel $chain$1$??_G?$shared_ptr@VCave@@@std@@QEAAPEAXI@Z
pdata	ENDS
;	COMDAT pdata
pdata	SEGMENT
$pdata$??$destroy@V?$shared_ptr@VCave@@@std@@@?$allocator@V?$shared_ptr@VCave@@@std@@@std@@QEAAXPEAV?$shared_ptr@VCave@@@1@@Z DD imagerel $LN19
	DD	imagerel $LN19+19
	DD	imagerel $unwind$??$destroy@V?$shared_ptr@VCave@@@std@@@?$allocator@V?$shared_ptr@VCave@@@std@@@std@@QEAAXPEAV?$shared_ptr@VCave@@@1@@Z
pdata	ENDS
;	COMDAT pdata
pdata	SEGMENT
$pdata$0$??$destroy@V?$shared_ptr@VCave@@@std@@@?$allocator@V?$shared_ptr@VCave@@@std@@@std@@QEAAXPEAV?$shared_ptr@VCave@@@1@@Z DD imagerel $LN19+19
	DD	imagerel $LN19+54
	DD	imagerel $chain$0$??$destroy@V?$shared_ptr@VCave@@@std@@@?$allocator@V?$shared_ptr@VCave@@@std@@@std@@QEAAXPEAV?$shared_ptr@VCave@@@1@@Z
pdata	ENDS
;	COMDAT pdata
pdata	SEGMENT
$pdata$1$??$destroy@V?$shared_ptr@VCave@@@std@@@?$allocator@V?$shared_ptr@VCave@@@std@@@std@@QEAAXPEAV?$shared_ptr@VCave@@@1@@Z DD imagerel $LN19+54
	DD	imagerel $LN19+60
	DD	imagerel $chain$1$??$destroy@V?$shared_ptr@VCave@@@std@@@?$allocator@V?$shared_ptr@VCave@@@std@@@std@@QEAAXPEAV?$shared_ptr@VCave@@@1@@Z
pdata	ENDS
;	COMDAT pdata
pdata	SEGMENT
$pdata$??$destroy@V?$shared_ptr@VCave@@@std@@@?$allocator_traits@V?$allocator@V?$shared_ptr@VCave@@@std@@@std@@@std@@SAXAEAV?$allocator@V?$shared_ptr@VCave@@@std@@@1@PEAV?$shared_ptr@VCave@@@1@@Z DD imagerel $LN21
	DD	imagerel $LN21+19
	DD	imagerel $unwind$??$destroy@V?$shared_ptr@VCave@@@std@@@?$allocator_traits@V?$allocator@V?$shared_ptr@VCave@@@std@@@std@@@std@@SAXAEAV?$allocator@V?$shared_ptr@VCave@@@std@@@1@PEAV?$shared_ptr@VCave@@@1@@Z
pdata	ENDS
;	COMDAT pdata
pdata	SEGMENT
$pdata$0$??$destroy@V?$shared_ptr@VCave@@@std@@@?$allocator_traits@V?$allocator@V?$shared_ptr@VCave@@@std@@@std@@@std@@SAXAEAV?$allocator@V?$shared_ptr@VCave@@@std@@@1@PEAV?$shared_ptr@VCave@@@1@@Z DD imagerel $LN21+19
	DD	imagerel $LN21+54
	DD	imagerel $chain$0$??$destroy@V?$shared_ptr@VCave@@@std@@@?$allocator_traits@V?$allocator@V?$shared_ptr@VCave@@@std@@@std@@@std@@SAXAEAV?$allocator@V?$shared_ptr@VCave@@@std@@@1@PEAV?$shared_ptr@VCave@@@1@@Z
pdata	ENDS
;	COMDAT pdata
pdata	SEGMENT
$pdata$1$??$destroy@V?$shared_ptr@VCave@@@std@@@?$allocator_traits@V?$allocator@V?$shared_ptr@VCave@@@std@@@std@@@std@@SAXAEAV?$allocator@V?$shared_ptr@VCave@@@std@@@1@PEAV?$shared_ptr@VCave@@@1@@Z DD imagerel $LN21+54
	DD	imagerel $LN21+60
	DD	imagerel $chain$1$??$destroy@V?$shared_ptr@VCave@@@std@@@?$allocator_traits@V?$allocator@V?$shared_ptr@VCave@@@std@@@std@@@std@@SAXAEAV?$allocator@V?$shared_ptr@VCave@@@std@@@1@PEAV?$shared_ptr@VCave@@@1@@Z
pdata	ENDS
;	COMDAT pdata
pdata	SEGMENT
$pdata$??$destroy@V?$shared_ptr@VCave@@@std@@@?$_Wrap_alloc@V?$allocator@V?$shared_ptr@VCave@@@std@@@std@@@std@@QEAAXPEAV?$shared_ptr@VCave@@@1@@Z DD imagerel $LN23
	DD	imagerel $LN23+19
	DD	imagerel $unwind$??$destroy@V?$shared_ptr@VCave@@@std@@@?$_Wrap_alloc@V?$allocator@V?$shared_ptr@VCave@@@std@@@std@@@std@@QEAAXPEAV?$shared_ptr@VCave@@@1@@Z
pdata	ENDS
;	COMDAT pdata
pdata	SEGMENT
$pdata$0$??$destroy@V?$shared_ptr@VCave@@@std@@@?$_Wrap_alloc@V?$allocator@V?$shared_ptr@VCave@@@std@@@std@@@std@@QEAAXPEAV?$shared_ptr@VCave@@@1@@Z DD imagerel $LN23+19
	DD	imagerel $LN23+54
	DD	imagerel $chain$0$??$destroy@V?$shared_ptr@VCave@@@std@@@?$_Wrap_alloc@V?$allocator@V?$shared_ptr@VCave@@@std@@@std@@@std@@QEAAXPEAV?$shared_ptr@VCave@@@1@@Z
pdata	ENDS
;	COMDAT pdata
pdata	SEGMENT
$pdata$1$??$destroy@V?$shared_ptr@VCave@@@std@@@?$_Wrap_alloc@V?$allocator@V?$shared_ptr@VCave@@@std@@@std@@@std@@QEAAXPEAV?$shared_ptr@VCave@@@1@@Z DD imagerel $LN23+54
	DD	imagerel $LN23+60
	DD	imagerel $chain$1$??$destroy@V?$shared_ptr@VCave@@@std@@@?$_Wrap_alloc@V?$allocator@V?$shared_ptr@VCave@@@std@@@std@@@std@@QEAAXPEAV?$shared_ptr@VCave@@@1@@Z
pdata	ENDS
;	COMDAT pdata
pdata	SEGMENT
$pdata$??$_Uninitialized_move@PEAVLine@geom@@PEAV12@U?$_Wrap_alloc@V?$allocator@VLine@geom@@@std@@@std@@@std@@YAPEAVLine@geom@@PEAV12@00AEAU?$_Wrap_alloc@V?$allocator@VLine@geom@@@std@@@0@@Z DD imagerel $LN8
	DD	imagerel $LN8+14
	DD	imagerel $unwind$??$_Uninitialized_move@PEAVLine@geom@@PEAV12@U?$_Wrap_alloc@V?$allocator@VLine@geom@@@std@@@std@@@std@@YAPEAVLine@geom@@PEAV12@00AEAU?$_Wrap_alloc@V?$allocator@VLine@geom@@@std@@@0@@Z
pdata	ENDS
;	COMDAT pdata
pdata	SEGMENT
$pdata$??$_Destroy_range@U?$_Wrap_alloc@V?$allocator@V?$shared_ptr@VCave@@@std@@@std@@@std@@@std@@YAXPEAV?$shared_ptr@VCave@@@0@0AEAU?$_Wrap_alloc@V?$allocator@V?$shared_ptr@VCave@@@std@@@std@@@0@U_Nonscalar_ptr_iterator_tag@0@@Z DD imagerel $LN31
	DD	imagerel $LN31+10
	DD	imagerel $unwind$??$_Destroy_range@U?$_Wrap_alloc@V?$allocator@V?$shared_ptr@VCave@@@std@@@std@@@std@@@std@@YAXPEAV?$shared_ptr@VCave@@@0@0AEAU?$_Wrap_alloc@V?$allocator@V?$shared_ptr@VCave@@@std@@@std@@@0@U_Nonscalar_ptr_iterator_tag@0@@Z
pdata	ENDS
;	COMDAT pdata
pdata	SEGMENT
$pdata$1$??$_Destroy_range@U?$_Wrap_alloc@V?$allocator@V?$shared_ptr@VCave@@@std@@@std@@@std@@@std@@YAXPEAV?$shared_ptr@VCave@@@0@0AEAU?$_Wrap_alloc@V?$allocator@V?$shared_ptr@VCave@@@std@@@std@@@0@U_Nonscalar_ptr_iterator_tag@0@@Z DD imagerel $LN31+10
	DD	imagerel $LN31+97
	DD	imagerel $chain$1$??$_Destroy_range@U?$_Wrap_alloc@V?$allocator@V?$shared_ptr@VCave@@@std@@@std@@@std@@@std@@YAXPEAV?$shared_ptr@VCave@@@0@0AEAU?$_Wrap_alloc@V?$allocator@V?$shared_ptr@VCave@@@std@@@std@@@0@U_Nonscalar_ptr_iterator_tag@0@@Z
pdata	ENDS
;	COMDAT pdata
pdata	SEGMENT
$pdata$2$??$_Destroy_range@U?$_Wrap_alloc@V?$allocator@V?$shared_ptr@VCave@@@std@@@std@@@std@@@std@@YAXPEAV?$shared_ptr@VCave@@@0@0AEAU?$_Wrap_alloc@V?$allocator@V?$shared_ptr@VCave@@@std@@@std@@@0@U_Nonscalar_ptr_iterator_tag@0@@Z DD imagerel $LN31+97
	DD	imagerel $LN31+99
	DD	imagerel $chain$2$??$_Destroy_range@U?$_Wrap_alloc@V?$allocator@V?$shared_ptr@VCave@@@std@@@std@@@std@@@std@@YAXPEAV?$shared_ptr@VCave@@@0@0AEAU?$_Wrap_alloc@V?$allocator@V?$shared_ptr@VCave@@@std@@@std@@@0@U_Nonscalar_ptr_iterator_tag@0@@Z
pdata	ENDS
;	COMDAT pdata
pdata	SEGMENT
$pdata$?_Reset0@?$_Ptr_base@VCave@@@std@@QEAAXPEAVCave@@PEAV_Ref_count_base@2@@Z DD imagerel $LN15
	DD	imagerel $LN15+42
	DD	imagerel $unwind$?_Reset0@?$_Ptr_base@VCave@@@std@@QEAAXPEAVCave@@PEAV_Ref_count_base@2@@Z
pdata	ENDS
;	COMDAT pdata
pdata	SEGMENT
$pdata$0$?_Reset0@?$_Ptr_base@VCave@@@std@@QEAAXPEAVCave@@PEAV_Ref_count_base@2@@Z DD imagerel $LN15+42
	DD	imagerel $LN15+84
	DD	imagerel $chain$0$?_Reset0@?$_Ptr_base@VCave@@@std@@QEAAXPEAVCave@@PEAV_Ref_count_base@2@@Z
pdata	ENDS
;	COMDAT pdata
pdata	SEGMENT
$pdata$1$?_Reset0@?$_Ptr_base@VCave@@@std@@QEAAXPEAVCave@@PEAV_Ref_count_base@2@@Z DD imagerel $LN15+84
	DD	imagerel $LN15+105
	DD	imagerel $chain$1$?_Reset0@?$_Ptr_base@VCave@@@std@@QEAAXPEAVCave@@PEAV_Ref_count_base@2@@Z
pdata	ENDS
;	COMDAT pdata
pdata	SEGMENT
$pdata$2$?_Reset0@?$_Ptr_base@VCave@@@std@@QEAAXPEAVCave@@PEAV_Ref_count_base@2@@Z DD imagerel $LN15+105
	DD	imagerel $LN15+114
	DD	imagerel $chain$2$?_Reset0@?$_Ptr_base@VCave@@@std@@QEAAXPEAVCave@@PEAV_Ref_count_base@2@@Z
pdata	ENDS
;	COMDAT pdata
pdata	SEGMENT
$pdata$3$?_Reset0@?$_Ptr_base@VCave@@@std@@QEAAXPEAVCave@@PEAV_Ref_count_base@2@@Z DD imagerel $LN15+114
	DD	imagerel $LN15+123
	DD	imagerel $chain$3$?_Reset0@?$_Ptr_base@VCave@@@std@@QEAAXPEAVCave@@PEAV_Ref_count_base@2@@Z
pdata	ENDS
;	COMDAT pdata
pdata	SEGMENT
$pdata$??$_Allocate@VLine@geom@@@std@@YAPEAVLine@geom@@_KPEAV12@@Z DD imagerel $LN14
	DD	imagerel $LN14+44
	DD	imagerel $unwind$??$_Allocate@VLine@geom@@@std@@YAPEAVLine@geom@@_KPEAV12@@Z
pdata	ENDS
;	COMDAT pdata
pdata	SEGMENT
$pdata$??$_Umove@PEAVLine@geom@@@?$vector@VLine@geom@@V?$allocator@VLine@geom@@@std@@@std@@IEAAPEAVLine@geom@@PEAV23@00@Z DD imagerel $LN10
	DD	imagerel $LN10+26
	DD	imagerel $unwind$??$_Umove@PEAVLine@geom@@@?$vector@VLine@geom@@V?$allocator@VLine@geom@@@std@@@std@@IEAAPEAVLine@geom@@PEAV23@00@Z
pdata	ENDS
;	COMDAT pdata
pdata	SEGMENT
$pdata$??$_Destroy_range@U?$_Wrap_alloc@V?$allocator@V?$shared_ptr@VCave@@@std@@@std@@@std@@@std@@YAXPEAV?$shared_ptr@VCave@@@0@0AEAU?$_Wrap_alloc@V?$allocator@V?$shared_ptr@VCave@@@std@@@std@@@0@@Z DD imagerel $LN35
	DD	imagerel $LN35+10
	DD	imagerel $unwind$??$_Destroy_range@U?$_Wrap_alloc@V?$allocator@V?$shared_ptr@VCave@@@std@@@std@@@std@@@std@@YAXPEAV?$shared_ptr@VCave@@@0@0AEAU?$_Wrap_alloc@V?$allocator@V?$shared_ptr@VCave@@@std@@@std@@@0@@Z
pdata	ENDS
;	COMDAT pdata
pdata	SEGMENT
$pdata$1$??$_Destroy_range@U?$_Wrap_alloc@V?$allocator@V?$shared_ptr@VCave@@@std@@@std@@@std@@@std@@YAXPEAV?$shared_ptr@VCave@@@0@0AEAU?$_Wrap_alloc@V?$allocator@V?$shared_ptr@VCave@@@std@@@std@@@0@@Z DD imagerel $LN35+10
	DD	imagerel $LN35+97
	DD	imagerel $chain$1$??$_Destroy_range@U?$_Wrap_alloc@V?$allocator@V?$shared_ptr@VCave@@@std@@@std@@@std@@@std@@YAXPEAV?$shared_ptr@VCave@@@0@0AEAU?$_Wrap_alloc@V?$allocator@V?$shared_ptr@VCave@@@std@@@std@@@0@@Z
pdata	ENDS
;	COMDAT pdata
pdata	SEGMENT
$pdata$2$??$_Destroy_range@U?$_Wrap_alloc@V?$allocator@V?$shared_ptr@VCave@@@std@@@std@@@std@@@std@@YAXPEAV?$shared_ptr@VCave@@@0@0AEAU?$_Wrap_alloc@V?$allocator@V?$shared_ptr@VCave@@@std@@@std@@@0@@Z DD imagerel $LN35+97
	DD	imagerel $LN35+99
	DD	imagerel $chain$2$??$_Destroy_range@U?$_Wrap_alloc@V?$allocator@V?$shared_ptr@VCave@@@std@@@std@@@std@@@std@@YAXPEAV?$shared_ptr@VCave@@@0@0AEAU?$_Wrap_alloc@V?$allocator@V?$shared_ptr@VCave@@@std@@@std@@@0@@Z
pdata	ENDS
;	COMDAT pdata
pdata	SEGMENT
$pdata$?allocate@?$allocator@VLine@geom@@@std@@QEAAPEAVLine@geom@@_K@Z DD imagerel $LN13
	DD	imagerel $LN13+54
	DD	imagerel $unwind$?allocate@?$allocator@VLine@geom@@@std@@QEAAPEAVLine@geom@@_K@Z
pdata	ENDS
;	COMDAT pdata
pdata	SEGMENT
$pdata$?allocate@?$_Wrap_alloc@V?$allocator@VLine@geom@@@std@@@std@@QEAAPEAVLine@geom@@_K@Z DD imagerel $LN16
	DD	imagerel $LN16+54
	DD	imagerel $unwind$?allocate@?$_Wrap_alloc@V?$allocator@VLine@geom@@@std@@@std@@QEAAPEAVLine@geom@@_K@Z
pdata	ENDS
;	COMDAT pdata
pdata	SEGMENT
$pdata$?_Xlen@?$vector@VLine@geom@@V?$allocator@VLine@geom@@@std@@@std@@IEBAXXZ DD imagerel $LN4
	DD	imagerel $LN4+17
	DD	imagerel $unwind$?_Xlen@?$vector@VLine@geom@@V?$allocator@VLine@geom@@@std@@@std@@IEBAXXZ
pdata	ENDS
;	COMDAT pdata
pdata	SEGMENT
$pdata$?_Reallocate@?$vector@VLine@geom@@V?$allocator@VLine@geom@@@std@@@std@@IEAAX_K@Z DD imagerel $LN51
	DD	imagerel $LN51+73
	DD	imagerel $unwind$?_Reallocate@?$vector@VLine@geom@@V?$allocator@VLine@geom@@@std@@@std@@IEAAX_K@Z
pdata	ENDS
;	COMDAT pdata
pdata	SEGMENT
$pdata$0$?_Reallocate@?$vector@VLine@geom@@V?$allocator@VLine@geom@@@std@@@std@@IEAAX_K@Z DD imagerel $LN51+73
	DD	imagerel $LN51+149
	DD	imagerel $chain$0$?_Reallocate@?$vector@VLine@geom@@V?$allocator@VLine@geom@@@std@@@std@@IEAAX_K@Z
pdata	ENDS
;	COMDAT pdata
pdata	SEGMENT
$pdata$1$?_Reallocate@?$vector@VLine@geom@@V?$allocator@VLine@geom@@@std@@@std@@IEAAX_K@Z DD imagerel $LN51+149
	DD	imagerel $LN51+155
	DD	imagerel $chain$1$?_Reallocate@?$vector@VLine@geom@@V?$allocator@VLine@geom@@@std@@@std@@IEAAX_K@Z
pdata	ENDS
;	COMDAT pdata
pdata	SEGMENT
$pdata$?_Destroy@?$vector@V?$shared_ptr@VCave@@@std@@V?$allocator@V?$shared_ptr@VCave@@@std@@@2@@std@@IEAAXPEAV?$shared_ptr@VCave@@@2@0@Z DD imagerel $LN37
	DD	imagerel $LN37+10
	DD	imagerel $unwind$?_Destroy@?$vector@V?$shared_ptr@VCave@@@std@@V?$allocator@V?$shared_ptr@VCave@@@std@@@2@@std@@IEAAXPEAV?$shared_ptr@VCave@@@2@0@Z
pdata	ENDS
;	COMDAT pdata
pdata	SEGMENT
$pdata$1$?_Destroy@?$vector@V?$shared_ptr@VCave@@@std@@V?$allocator@V?$shared_ptr@VCave@@@std@@@2@@std@@IEAAXPEAV?$shared_ptr@VCave@@@2@0@Z DD imagerel $LN37+10
	DD	imagerel $LN37+97
	DD	imagerel $chain$1$?_Destroy@?$vector@V?$shared_ptr@VCave@@@std@@V?$allocator@V?$shared_ptr@VCave@@@std@@@2@@std@@IEAAXPEAV?$shared_ptr@VCave@@@2@0@Z
pdata	ENDS
;	COMDAT pdata
pdata	SEGMENT
$pdata$2$?_Destroy@?$vector@V?$shared_ptr@VCave@@@std@@V?$allocator@V?$shared_ptr@VCave@@@std@@@2@@std@@IEAAXPEAV?$shared_ptr@VCave@@@2@0@Z DD imagerel $LN37+97
	DD	imagerel $LN37+99
	DD	imagerel $chain$2$?_Destroy@?$vector@V?$shared_ptr@VCave@@@std@@V?$allocator@V?$shared_ptr@VCave@@@std@@@2@@std@@IEAAXPEAV?$shared_ptr@VCave@@@2@0@Z
pdata	ENDS
;	COMDAT pdata
pdata	SEGMENT
$pdata$?_Tidy@?$vector@VLine@geom@@V?$allocator@VLine@geom@@@std@@@std@@IEAAXXZ DD imagerel $LN13
	DD	imagerel $LN13+41
	DD	imagerel $unwind$?_Tidy@?$vector@VLine@geom@@V?$allocator@VLine@geom@@@std@@@std@@IEAAXXZ
pdata	ENDS
;	COMDAT pdata
pdata	SEGMENT
$pdata$?_Reserve@?$vector@VLine@geom@@V?$allocator@VLine@geom@@@std@@@std@@IEAAX_K@Z DD imagerel $LN44
	DD	imagerel $LN44+139
	DD	imagerel $unwind$?_Reserve@?$vector@VLine@geom@@V?$allocator@VLine@geom@@@std@@@std@@IEAAX_K@Z
pdata	ENDS
;	COMDAT pdata
pdata	SEGMENT
$pdata$?_Tidy@?$vector@V?$shared_ptr@VCave@@@std@@V?$allocator@V?$shared_ptr@VCave@@@std@@@2@@std@@IEAAXXZ DD imagerel $LN47
	DD	imagerel $LN47+21
	DD	imagerel $unwind$?_Tidy@?$vector@V?$shared_ptr@VCave@@@std@@V?$allocator@V?$shared_ptr@VCave@@@std@@@2@@std@@IEAAXXZ
pdata	ENDS
;	COMDAT pdata
pdata	SEGMENT
$pdata$0$?_Tidy@?$vector@V?$shared_ptr@VCave@@@std@@V?$allocator@V?$shared_ptr@VCave@@@std@@@2@@std@@IEAAXXZ DD imagerel $LN47+21
	DD	imagerel $LN47+35
	DD	imagerel $chain$0$?_Tidy@?$vector@V?$shared_ptr@VCave@@@std@@V?$allocator@V?$shared_ptr@VCave@@@std@@@2@@std@@IEAAXXZ
pdata	ENDS
;	COMDAT pdata
pdata	SEGMENT
$pdata$1$?_Tidy@?$vector@V?$shared_ptr@VCave@@@std@@V?$allocator@V?$shared_ptr@VCave@@@std@@@2@@std@@IEAAXXZ DD imagerel $LN47+35
	DD	imagerel $LN47+100
	DD	imagerel $chain$1$?_Tidy@?$vector@V?$shared_ptr@VCave@@@std@@V?$allocator@V?$shared_ptr@VCave@@@std@@@2@@std@@IEAAXXZ
pdata	ENDS
;	COMDAT pdata
pdata	SEGMENT
$pdata$2$?_Tidy@?$vector@V?$shared_ptr@VCave@@@std@@V?$allocator@V?$shared_ptr@VCave@@@std@@@2@@std@@IEAAXXZ DD imagerel $LN47+100
	DD	imagerel $LN47+126
	DD	imagerel $chain$2$?_Tidy@?$vector@V?$shared_ptr@VCave@@@std@@V?$allocator@V?$shared_ptr@VCave@@@std@@@2@@std@@IEAAXXZ
pdata	ENDS
;	COMDAT pdata
pdata	SEGMENT
$pdata$3$?_Tidy@?$vector@V?$shared_ptr@VCave@@@std@@V?$allocator@V?$shared_ptr@VCave@@@std@@@2@@std@@IEAAXXZ DD imagerel $LN47+126
	DD	imagerel $LN47+137
	DD	imagerel $chain$3$?_Tidy@?$vector@V?$shared_ptr@VCave@@@std@@V?$allocator@V?$shared_ptr@VCave@@@std@@@2@@std@@IEAAXXZ
pdata	ENDS
;	COMDAT pdata
pdata	SEGMENT
$pdata$?_Decref@?$_Ptr_base@VCave@@@std@@QEAAXXZ DD imagerel $LN12
	DD	imagerel $LN12+19
	DD	imagerel $unwind$?_Decref@?$_Ptr_base@VCave@@@std@@QEAAXXZ
pdata	ENDS
;	COMDAT pdata
pdata	SEGMENT
$pdata$0$?_Decref@?$_Ptr_base@VCave@@@std@@QEAAXXZ DD imagerel $LN12+19
	DD	imagerel $LN12+54
	DD	imagerel $chain$0$?_Decref@?$_Ptr_base@VCave@@@std@@QEAAXXZ
pdata	ENDS
;	COMDAT pdata
pdata	SEGMENT
$pdata$1$?_Decref@?$_Ptr_base@VCave@@@std@@QEAAXXZ DD imagerel $LN12+54
	DD	imagerel $LN12+60
	DD	imagerel $chain$1$?_Decref@?$_Ptr_base@VCave@@@std@@QEAAXXZ
pdata	ENDS
;	COMDAT pdata
pdata	SEGMENT
$pdata$??1?$vector@VLine@geom@@V?$allocator@VLine@geom@@@std@@@std@@QEAA@XZ DD imagerel $LN15
	DD	imagerel $LN15+41
	DD	imagerel $unwind$??1?$vector@VLine@geom@@V?$allocator@VLine@geom@@@std@@@std@@QEAA@XZ
pdata	ENDS
;	COMDAT pdata
pdata	SEGMENT
$pdata$?push_back@?$vector@VLine@geom@@V?$allocator@VLine@geom@@@std@@@std@@QEAAX$$QEAVLine@geom@@@Z DD imagerel $LN75
	DD	imagerel $LN75+144
	DD	imagerel $unwind$?push_back@?$vector@VLine@geom@@V?$allocator@VLine@geom@@@std@@@std@@QEAAX$$QEAVLine@geom@@@Z
pdata	ENDS
;	COMDAT pdata
pdata	SEGMENT
$pdata$??1?$shared_ptr@VCave@@@std@@QEAA@XZ DD imagerel $LN14
	DD	imagerel $LN14+19
	DD	imagerel $unwind$??1?$shared_ptr@VCave@@@std@@QEAA@XZ
pdata	ENDS
;	COMDAT pdata
pdata	SEGMENT
$pdata$0$??1?$shared_ptr@VCave@@@std@@QEAA@XZ DD imagerel $LN14+19
	DD	imagerel $LN14+54
	DD	imagerel $chain$0$??1?$shared_ptr@VCave@@@std@@QEAA@XZ
pdata	ENDS
;	COMDAT pdata
pdata	SEGMENT
$pdata$1$??1?$shared_ptr@VCave@@@std@@QEAA@XZ DD imagerel $LN14+54
	DD	imagerel $LN14+60
	DD	imagerel $chain$1$??1?$shared_ptr@VCave@@@std@@QEAA@XZ
pdata	ENDS
;	COMDAT pdata
pdata	SEGMENT
$pdata$??0?$shared_ptr@VCave@@@std@@QEAA@AEBV01@@Z DD imagerel $LN13
	DD	imagerel $LN13+49
	DD	imagerel $unwind$??0?$shared_ptr@VCave@@@std@@QEAA@AEBV01@@Z
pdata	ENDS
;	COMDAT pdata
pdata	SEGMENT
$pdata$?requestChunkLoad@@YAXV?$shared_ptr@VChunkBase@@@std@@@Z DD imagerel $LN31
	DD	imagerel $LN31+144
	DD	imagerel $unwind$?requestChunkLoad@@YAXV?$shared_ptr@VChunkBase@@@std@@@Z
pdata	ENDS
;	COMDAT pdata
pdata	SEGMENT
$pdata$?tick@ChunkLoadThread@@MEAA_NXZ DD imagerel $LN694
	DD	imagerel $LN694+4004
	DD	imagerel $unwind$?tick@ChunkLoadThread@@MEAA_NXZ
pdata	ENDS
;	COMDAT pdata
pdata	SEGMENT
$pdata$?preStart@ChunkLoadThread@@MEAAXXZ DD imagerel $LN12
	DD	imagerel $LN12+299
	DD	imagerel $unwind$?preStart@ChunkLoadThread@@MEAAXXZ
pdata	ENDS
;	COMDAT pdata
pdata	SEGMENT
$pdata$?staticInit@ChunkLoadThread@@SAXXZ DD imagerel $LN19
	DD	imagerel $LN19+313
	DD	imagerel $unwind$?staticInit@ChunkLoadThread@@SAXXZ
pdata	ENDS
;	COMDAT pdata
pdata	SEGMENT
$pdata$??__E?chunkGenProgram@ChunkLoadThread@@2VProgram@cl@@A@@YAXXZ DD imagerel ??__E?chunkGenProgram@ChunkLoadThread@@2VProgram@cl@@A@@YAXXZ
	DD	imagerel ??__E?chunkGenProgram@ChunkLoadThread@@2VProgram@cl@@A@@YAXXZ+76
	DD	imagerel $unwind$??__E?chunkGenProgram@ChunkLoadThread@@2VProgram@cl@@A@@YAXXZ
pdata	ENDS
;	COMDAT pdata
pdata	SEGMENT
$pdata$??__F?humidityNoise@ChunkLoadThread@@2VNoiseGenerator2D@Noise@@A@@YAXXZ DD imagerel ??__F?humidityNoise@ChunkLoadThread@@2VNoiseGenerator2D@Noise@@A@@YAXXZ
	DD	imagerel ??__F?humidityNoise@ChunkLoadThread@@2VNoiseGenerator2D@Noise@@A@@YAXXZ+32
	DD	imagerel $unwind$??__F?humidityNoise@ChunkLoadThread@@2VNoiseGenerator2D@Noise@@A@@YAXXZ
pdata	ENDS
;	COMDAT pdata
pdata	SEGMENT
$pdata$??__E?humidityNoise@ChunkLoadThread@@2VNoiseGenerator2D@Noise@@A@@YAXXZ DD imagerel ??__E?humidityNoise@ChunkLoadThread@@2VNoiseGenerator2D@Noise@@A@@YAXXZ
	DD	imagerel ??__E?humidityNoise@ChunkLoadThread@@2VNoiseGenerator2D@Noise@@A@@YAXXZ+54
	DD	imagerel $unwind$??__E?humidityNoise@ChunkLoadThread@@2VNoiseGenerator2D@Noise@@A@@YAXXZ
pdata	ENDS
;	COMDAT pdata
pdata	SEGMENT
$pdata$??__F?temperatureNoise@ChunkLoadThread@@2VNoiseGenerator2D@Noise@@A@@YAXXZ DD imagerel ??__F?temperatureNoise@ChunkLoadThread@@2VNoiseGenerator2D@Noise@@A@@YAXXZ
	DD	imagerel ??__F?temperatureNoise@ChunkLoadThread@@2VNoiseGenerator2D@Noise@@A@@YAXXZ+32
	DD	imagerel $unwind$??__F?temperatureNoise@ChunkLoadThread@@2VNoiseGenerator2D@Noise@@A@@YAXXZ
pdata	ENDS
;	COMDAT pdata
pdata	SEGMENT
$pdata$??__E?temperatureNoise@ChunkLoadThread@@2VNoiseGenerator2D@Noise@@A@@YAXXZ DD imagerel ??__E?temperatureNoise@ChunkLoadThread@@2VNoiseGenerator2D@Noise@@A@@YAXXZ
	DD	imagerel ??__E?temperatureNoise@ChunkLoadThread@@2VNoiseGenerator2D@Noise@@A@@YAXXZ+54
	DD	imagerel $unwind$??__E?temperatureNoise@ChunkLoadThread@@2VNoiseGenerator2D@Noise@@A@@YAXXZ
pdata	ENDS
;	COMDAT pdata
pdata	SEGMENT
$pdata$??__F?stoneNoise@ChunkLoadThread@@2VNoiseGenerator3D@Noise@@A@@YAXXZ DD imagerel ??__F?stoneNoise@ChunkLoadThread@@2VNoiseGenerator3D@Noise@@A@@YAXXZ
	DD	imagerel ??__F?stoneNoise@ChunkLoadThread@@2VNoiseGenerator3D@Noise@@A@@YAXXZ+32
	DD	imagerel $unwind$??__F?stoneNoise@ChunkLoadThread@@2VNoiseGenerator3D@Noise@@A@@YAXXZ
pdata	ENDS
;	COMDAT pdata
pdata	SEGMENT
$pdata$??__E?stoneNoise@ChunkLoadThread@@2VNoiseGenerator3D@Noise@@A@@YAXXZ DD imagerel ??__E?stoneNoise@ChunkLoadThread@@2VNoiseGenerator3D@Noise@@A@@YAXXZ
	DD	imagerel ??__E?stoneNoise@ChunkLoadThread@@2VNoiseGenerator3D@Noise@@A@@YAXXZ+54
	DD	imagerel $unwind$??__E?stoneNoise@ChunkLoadThread@@2VNoiseGenerator3D@Noise@@A@@YAXXZ
pdata	ENDS
;	COMDAT pdata
pdata	SEGMENT
$pdata$??__F?solidNoise@ChunkLoadThread@@2VNoiseGenerator3D@Noise@@A@@YAXXZ DD imagerel ??__F?solidNoise@ChunkLoadThread@@2VNoiseGenerator3D@Noise@@A@@YAXXZ
	DD	imagerel ??__F?solidNoise@ChunkLoadThread@@2VNoiseGenerator3D@Noise@@A@@YAXXZ+32
	DD	imagerel $unwind$??__F?solidNoise@ChunkLoadThread@@2VNoiseGenerator3D@Noise@@A@@YAXXZ
pdata	ENDS
;	COMDAT pdata
pdata	SEGMENT
$pdata$??__E?solidNoise@ChunkLoadThread@@2VNoiseGenerator3D@Noise@@A@@YAXXZ DD imagerel ??__E?solidNoise@ChunkLoadThread@@2VNoiseGenerator3D@Noise@@A@@YAXXZ
	DD	imagerel ??__E?solidNoise@ChunkLoadThread@@2VNoiseGenerator3D@Noise@@A@@YAXXZ+49
	DD	imagerel $unwind$??__E?solidNoise@ChunkLoadThread@@2VNoiseGenerator3D@Noise@@A@@YAXXZ
pdata	ENDS
;	COMDAT pdata
pdata	SEGMENT
$pdata$??__F?smoothnessNoise@ChunkLoadThread@@2VNoiseGenerator3D@Noise@@A@@YAXXZ DD imagerel ??__F?smoothnessNoise@ChunkLoadThread@@2VNoiseGenerator3D@Noise@@A@@YAXXZ
	DD	imagerel ??__F?smoothnessNoise@ChunkLoadThread@@2VNoiseGenerator3D@Noise@@A@@YAXXZ+32
	DD	imagerel $unwind$??__F?smoothnessNoise@ChunkLoadThread@@2VNoiseGenerator3D@Noise@@A@@YAXXZ
pdata	ENDS
;	COMDAT pdata
pdata	SEGMENT
$pdata$??__E?smoothnessNoise@ChunkLoadThread@@2VNoiseGenerator3D@Noise@@A@@YAXXZ DD imagerel ??__E?smoothnessNoise@ChunkLoadThread@@2VNoiseGenerator3D@Noise@@A@@YAXXZ
	DD	imagerel ??__E?smoothnessNoise@ChunkLoadThread@@2VNoiseGenerator3D@Noise@@A@@YAXXZ+54
	DD	imagerel $unwind$??__E?smoothnessNoise@ChunkLoadThread@@2VNoiseGenerator3D@Noise@@A@@YAXXZ
pdata	ENDS
;	COMDAT pdata
pdata	SEGMENT
$pdata$??__F?maxHeightNoise@ChunkLoadThread@@2VNoiseGenerator2D@Noise@@A@@YAXXZ DD imagerel ??__F?maxHeightNoise@ChunkLoadThread@@2VNoiseGenerator2D@Noise@@A@@YAXXZ
	DD	imagerel ??__F?maxHeightNoise@ChunkLoadThread@@2VNoiseGenerator2D@Noise@@A@@YAXXZ+32
	DD	imagerel $unwind$??__F?maxHeightNoise@ChunkLoadThread@@2VNoiseGenerator2D@Noise@@A@@YAXXZ
pdata	ENDS
;	COMDAT pdata
pdata	SEGMENT
$pdata$??__E?maxHeightNoise@ChunkLoadThread@@2VNoiseGenerator2D@Noise@@A@@YAXXZ DD imagerel ??__E?maxHeightNoise@ChunkLoadThread@@2VNoiseGenerator2D@Noise@@A@@YAXXZ
	DD	imagerel ??__E?maxHeightNoise@ChunkLoadThread@@2VNoiseGenerator2D@Noise@@A@@YAXXZ+53
	DD	imagerel $unwind$??__E?maxHeightNoise@ChunkLoadThread@@2VNoiseGenerator2D@Noise@@A@@YAXXZ
pdata	ENDS
;	COMDAT pdata
pdata	SEGMENT
$pdata$??__F?minHeightNoise@ChunkLoadThread@@2VNoiseGenerator2D@Noise@@A@@YAXXZ DD imagerel ??__F?minHeightNoise@ChunkLoadThread@@2VNoiseGenerator2D@Noise@@A@@YAXXZ
	DD	imagerel ??__F?minHeightNoise@ChunkLoadThread@@2VNoiseGenerator2D@Noise@@A@@YAXXZ+32
	DD	imagerel $unwind$??__F?minHeightNoise@ChunkLoadThread@@2VNoiseGenerator2D@Noise@@A@@YAXXZ
pdata	ENDS
;	COMDAT pdata
pdata	SEGMENT
$pdata$??__E?minHeightNoise@ChunkLoadThread@@2VNoiseGenerator2D@Noise@@A@@YAXXZ DD imagerel ??__E?minHeightNoise@ChunkLoadThread@@2VNoiseGenerator2D@Noise@@A@@YAXXZ
	DD	imagerel ??__E?minHeightNoise@ChunkLoadThread@@2VNoiseGenerator2D@Noise@@A@@YAXXZ+51
	DD	imagerel $unwind$??__E?minHeightNoise@ChunkLoadThread@@2VNoiseGenerator2D@Noise@@A@@YAXXZ
;	COMDAT xdata
xdata	SEGMENT
$unwind$??__E?minHeightNoise@ChunkLoadThread@@2VNoiseGenerator2D@Noise@@A@@YAXXZ DD 010401H
	DD	06204H
xdata	ENDS
;	COMDAT xdata
xdata	SEGMENT
$unwind$??__F?minHeightNoise@ChunkLoadThread@@2VNoiseGenerator2D@Noise@@A@@YAXXZ DD 010401H
	DD	04204H
xdata	ENDS
;	COMDAT xdata
xdata	SEGMENT
$unwind$??__E?maxHeightNoise@ChunkLoadThread@@2VNoiseGenerator2D@Noise@@A@@YAXXZ DD 010401H
	DD	06204H
xdata	ENDS
;	COMDAT xdata
xdata	SEGMENT
$unwind$??__F?maxHeightNoise@ChunkLoadThread@@2VNoiseGenerator2D@Noise@@A@@YAXXZ DD 010401H
	DD	04204H
xdata	ENDS
;	COMDAT xdata
xdata	SEGMENT
$unwind$??__E?smoothnessNoise@ChunkLoadThread@@2VNoiseGenerator3D@Noise@@A@@YAXXZ DD 010401H
	DD	06204H
xdata	ENDS
;	COMDAT xdata
xdata	SEGMENT
$unwind$??__F?smoothnessNoise@ChunkLoadThread@@2VNoiseGenerator3D@Noise@@A@@YAXXZ DD 010401H
	DD	04204H
xdata	ENDS
;	COMDAT xdata
xdata	SEGMENT
$unwind$??__E?solidNoise@ChunkLoadThread@@2VNoiseGenerator3D@Noise@@A@@YAXXZ DD 010401H
	DD	06204H
xdata	ENDS
;	COMDAT xdata
xdata	SEGMENT
$unwind$??__F?solidNoise@ChunkLoadThread@@2VNoiseGenerator3D@Noise@@A@@YAXXZ DD 010401H
	DD	04204H
xdata	ENDS
;	COMDAT xdata
xdata	SEGMENT
$unwind$??__E?stoneNoise@ChunkLoadThread@@2VNoiseGenerator3D@Noise@@A@@YAXXZ DD 010401H
	DD	06204H
xdata	ENDS
;	COMDAT xdata
xdata	SEGMENT
$unwind$??__F?stoneNoise@ChunkLoadThread@@2VNoiseGenerator3D@Noise@@A@@YAXXZ DD 010401H
	DD	04204H
xdata	ENDS
;	COMDAT xdata
xdata	SEGMENT
$unwind$??__E?temperatureNoise@ChunkLoadThread@@2VNoiseGenerator2D@Noise@@A@@YAXXZ DD 010401H
	DD	06204H
xdata	ENDS
;	COMDAT xdata
xdata	SEGMENT
$unwind$??__F?temperatureNoise@ChunkLoadThread@@2VNoiseGenerator2D@Noise@@A@@YAXXZ DD 010401H
	DD	04204H
xdata	ENDS
;	COMDAT xdata
xdata	SEGMENT
$unwind$??__E?humidityNoise@ChunkLoadThread@@2VNoiseGenerator2D@Noise@@A@@YAXXZ DD 010401H
	DD	06204H
xdata	ENDS
;	COMDAT xdata
xdata	SEGMENT
$unwind$??__F?humidityNoise@ChunkLoadThread@@2VNoiseGenerator2D@Noise@@A@@YAXXZ DD 010401H
	DD	04204H
xdata	ENDS
;	COMDAT xdata
xdata	SEGMENT
$ip2state$??__E?chunkGenProgram@ChunkLoadThread@@2VProgram@cl@@A@@YAXXZ DD imagerel ??__E?chunkGenProgram@ChunkLoadThread@@2VProgram@cl@@A@@YAXXZ
	DD	0ffffffffH
	DD	imagerel ??__E?chunkGenProgram@ChunkLoadThread@@2VProgram@cl@@A@@YAXXZ+25
	DD	00H
	DD	imagerel ??__E?chunkGenProgram@ChunkLoadThread@@2VProgram@cl@@A@@YAXXZ+60
	DD	0ffffffffH
xdata	ENDS
;	COMDAT xdata
xdata	SEGMENT
$stateUnwindMap$??__E?chunkGenProgram@ChunkLoadThread@@2VProgram@cl@@A@@YAXXZ DD 0ffffffffH
	DD	imagerel ?dtor$0@?0???__E?chunkGenProgram@ChunkLoadThread@@2VProgram@cl@@A@@YAXXZ@4HA
xdata	ENDS
;	COMDAT CONST
CONST	SEGMENT
$cppxdata$??__E?chunkGenProgram@ChunkLoadThread@@2VProgram@cl@@A@@YAXXZ DD 019930522H
	DD	01H
	DD	imagerel $stateUnwindMap$??__E?chunkGenProgram@ChunkLoadThread@@2VProgram@cl@@A@@YAXXZ
	DD	00H
	DD	00H
	DD	03H
	DD	imagerel $ip2state$??__E?chunkGenProgram@ChunkLoadThread@@2VProgram@cl@@A@@YAXXZ
	DD	020H
	DD	00H
	DD	01H
CONST	ENDS
;	COMDAT xdata
xdata	SEGMENT
$unwind$??__E?chunkGenProgram@ChunkLoadThread@@2VProgram@cl@@A@@YAXXZ DD 010d11H
	DD	06204H
	DD	imagerel __CxxFrameHandler3
	DD	imagerel $cppxdata$??__E?chunkGenProgram@ChunkLoadThread@@2VProgram@cl@@A@@YAXXZ
xdata	ENDS
;	COMDAT xdata
xdata	SEGMENT
$unwind$?staticInit@ChunkLoadThread@@SAXXZ DD 010401H
	DD	08204H
xdata	ENDS
;	COMDAT xdata
xdata	SEGMENT
$unwind$?preStart@ChunkLoadThread@@MEAAXXZ DD 020601H
	DD	030025206H
xdata	ENDS
;	COMDAT xdata
xdata	SEGMENT
$ip2state$?tick@ChunkLoadThread@@MEAA_NXZ DD imagerel ?tick@ChunkLoadThread@@MEAA_NXZ
	DD	0ffffffffH
	DD	imagerel ?tick@ChunkLoadThread@@MEAA_NXZ+240
	DD	00H
	DD	imagerel ?tick@ChunkLoadThread@@MEAA_NXZ+1118
	DD	01H
	DD	imagerel ?tick@ChunkLoadThread@@MEAA_NXZ+1230
	DD	02H
	DD	imagerel ?tick@ChunkLoadThread@@MEAA_NXZ+1357
	DD	03H
	DD	imagerel ?tick@ChunkLoadThread@@MEAA_NXZ+2226
	DD	02H
	DD	imagerel ?tick@ChunkLoadThread@@MEAA_NXZ+2327
	DD	03H
	DD	imagerel ?tick@ChunkLoadThread@@MEAA_NXZ+2353
	DD	02H
	DD	imagerel ?tick@ChunkLoadThread@@MEAA_NXZ+3420
	DD	04H
	DD	imagerel ?tick@ChunkLoadThread@@MEAA_NXZ+3546
	DD	05H
	DD	imagerel ?tick@ChunkLoadThread@@MEAA_NXZ+3615
	DD	04H
	DD	imagerel ?tick@ChunkLoadThread@@MEAA_NXZ+3667
	DD	02H
	DD	imagerel ?tick@ChunkLoadThread@@MEAA_NXZ+3760
	DD	01H
	DD	imagerel ?tick@ChunkLoadThread@@MEAA_NXZ+3775
	DD	00H
	DD	imagerel ?tick@ChunkLoadThread@@MEAA_NXZ+3855
	DD	0ffffffffH
xdata	ENDS
;	COMDAT xdata
xdata	SEGMENT
$stateUnwindMap$?tick@ChunkLoadThread@@MEAA_NXZ DD 0ffffffffH
	DD	imagerel ?dtor$0@?0??tick@ChunkLoadThread@@MEAA_NXZ@4HA
	DD	00H
	DD	imagerel ?dtor$1@?0??tick@ChunkLoadThread@@MEAA_NXZ@4HA
	DD	01H
	DD	imagerel ?dtor$2@?0??tick@ChunkLoadThread@@MEAA_NXZ@4HA
	DD	02H
	DD	imagerel ?dtor$3@?0??tick@ChunkLoadThread@@MEAA_NXZ@4HA
	DD	02H
	DD	imagerel ?dtor$6@?0??tick@ChunkLoadThread@@MEAA_NXZ@4HA
	DD	04H
	DD	imagerel ?dtor$8@?0??tick@ChunkLoadThread@@MEAA_NXZ@4HA
xdata	ENDS
;	COMDAT CONST
CONST	SEGMENT
$cppxdata$?tick@ChunkLoadThread@@MEAA_NXZ DD 019930522H
	DD	06H
	DD	imagerel $stateUnwindMap$?tick@ChunkLoadThread@@MEAA_NXZ
	DD	00H
	DD	00H
	DD	0fH
	DD	imagerel $ip2state$?tick@ChunkLoadThread@@MEAA_NXZ
	DD	01d8H
	DD	00H
	DD	01H
CONST	ENDS
;	COMDAT xdata
xdata	SEGMENT
$unwind$?tick@ChunkLoadThread@@MEAA_NXZ DD 0218119H
	DD	025f870H
	DD	026e868H
	DD	027d860H
	DD	028c858H
	DD	029b850H
	DD	02aa848H
	DD	02b9843H
	DD	02c883eH
	DD	02d7839H
	DD	02e6835H
	DD	0677431H
	DD	066642dH
	DD	0653429H
	DD	05e011aH
	DD	0e00af00cH
	DD	0c006d008H
	DD	05004H
	DD	imagerel __GSHandlerCheck_EH
	DD	imagerel $cppxdata$?tick@ChunkLoadThread@@MEAA_NXZ
	DD	024aH
xdata	ENDS
;	COMDAT xdata
xdata	SEGMENT
$ip2state$?requestChunkLoad@@YAXV?$shared_ptr@VChunkBase@@@std@@@Z DD imagerel ?requestChunkLoad@@YAXV?$shared_ptr@VChunkBase@@@std@@@Z
	DD	0ffffffffH
	DD	imagerel ?requestChunkLoad@@YAXV?$shared_ptr@VChunkBase@@@std@@@Z+27
	DD	00H
	DD	imagerel ?requestChunkLoad@@YAXV?$shared_ptr@VChunkBase@@@std@@@Z+95
	DD	0ffffffffH
xdata	ENDS
;	COMDAT xdata
xdata	SEGMENT
$stateUnwindMap$?requestChunkLoad@@YAXV?$shared_ptr@VChunkBase@@@std@@@Z DD 0ffffffffH
	DD	imagerel ?dtor$0@?0??requestChunkLoad@@YAXV?$shared_ptr@VChunkBase@@@std@@@Z@4HA
xdata	ENDS
;	COMDAT CONST
CONST	SEGMENT
$cppxdata$?requestChunkLoad@@YAXV?$shared_ptr@VChunkBase@@@std@@@Z DD 019930522H
	DD	01H
	DD	imagerel $stateUnwindMap$?requestChunkLoad@@YAXV?$shared_ptr@VChunkBase@@@std@@@Z
	DD	00H
	DD	00H
	DD	03H
	DD	imagerel $ip2state$?requestChunkLoad@@YAXV?$shared_ptr@VChunkBase@@@std@@@Z
	DD	020H
	DD	00H
	DD	01H
CONST	ENDS
;	COMDAT xdata
xdata	SEGMENT
$unwind$?requestChunkLoad@@YAXV?$shared_ptr@VChunkBase@@@std@@@Z DD 041811H
	DD	093418H
	DD	07006520aH
	DD	imagerel __CxxFrameHandler3
	DD	imagerel $cppxdata$?requestChunkLoad@@YAXV?$shared_ptr@VChunkBase@@@std@@@Z
xdata	ENDS
;	COMDAT xdata
xdata	SEGMENT
$unwind$??0?$shared_ptr@VCave@@@std@@QEAA@AEBV01@@Z DD 020601H
	DD	030023206H
xdata	ENDS
;	COMDAT xdata
xdata	SEGMENT
$chain$1$??1?$shared_ptr@VCave@@@std@@QEAA@XZ DD 021H
	DD	imagerel $LN14
	DD	imagerel $LN14+19
	DD	imagerel $unwind$??1?$shared_ptr@VCave@@@std@@QEAA@XZ
xdata	ENDS
;	COMDAT xdata
xdata	SEGMENT
$chain$0$??1?$shared_ptr@VCave@@@std@@QEAA@XZ DD 020521H
	DD	067405H
	DD	imagerel $LN14
	DD	imagerel $LN14+19
	DD	imagerel $unwind$??1?$shared_ptr@VCave@@@std@@QEAA@XZ
xdata	ENDS
;	COMDAT xdata
xdata	SEGMENT
$unwind$??1?$shared_ptr@VCave@@@std@@QEAA@XZ DD 020601H
	DD	030023206H
xdata	ENDS
;	COMDAT xdata
xdata	SEGMENT
$unwind$?push_back@?$vector@VLine@geom@@V?$allocator@VLine@geom@@@std@@@std@@QEAAX$$QEAVLine@geom@@@Z DD 040a01H
	DD	06340aH
	DD	07006320aH
xdata	ENDS
;	COMDAT xdata
xdata	SEGMENT
$unwind$??1?$vector@VLine@geom@@V?$allocator@VLine@geom@@@std@@@std@@QEAA@XZ DD 020601H
	DD	030023206H
xdata	ENDS
;	COMDAT xdata
xdata	SEGMENT
$chain$1$?_Decref@?$_Ptr_base@VCave@@@std@@QEAAXXZ DD 021H
	DD	imagerel $LN12
	DD	imagerel $LN12+19
	DD	imagerel $unwind$?_Decref@?$_Ptr_base@VCave@@@std@@QEAAXXZ
xdata	ENDS
;	COMDAT xdata
xdata	SEGMENT
$chain$0$?_Decref@?$_Ptr_base@VCave@@@std@@QEAAXXZ DD 020521H
	DD	067405H
	DD	imagerel $LN12
	DD	imagerel $LN12+19
	DD	imagerel $unwind$?_Decref@?$_Ptr_base@VCave@@@std@@QEAAXXZ
xdata	ENDS
;	COMDAT xdata
xdata	SEGMENT
$unwind$?_Decref@?$_Ptr_base@VCave@@@std@@QEAAXXZ DD 020601H
	DD	030023206H
xdata	ENDS
;	COMDAT xdata
xdata	SEGMENT
$chain$3$?_Tidy@?$vector@V?$shared_ptr@VCave@@@std@@V?$allocator@V?$shared_ptr@VCave@@@std@@@2@@std@@IEAAXXZ DD 021H
	DD	imagerel $LN47
	DD	imagerel $LN47+21
	DD	imagerel $unwind$?_Tidy@?$vector@V?$shared_ptr@VCave@@@std@@V?$allocator@V?$shared_ptr@VCave@@@std@@@2@@std@@IEAAXXZ
xdata	ENDS
;	COMDAT xdata
xdata	SEGMENT
$chain$2$?_Tidy@?$vector@V?$shared_ptr@VCave@@@std@@V?$allocator@V?$shared_ptr@VCave@@@std@@@2@@std@@IEAAXXZ DD 021H
	DD	imagerel $LN47+21
	DD	imagerel $LN47+35
	DD	imagerel $chain$0$?_Tidy@?$vector@V?$shared_ptr@VCave@@@std@@V?$allocator@V?$shared_ptr@VCave@@@std@@@2@@std@@IEAAXXZ
xdata	ENDS
;	COMDAT xdata
xdata	SEGMENT
$chain$1$?_Tidy@?$vector@V?$shared_ptr@VCave@@@std@@V?$allocator@V?$shared_ptr@VCave@@@std@@@2@@std@@IEAAXXZ DD 020521H
	DD	063405H
	DD	imagerel $LN47+21
	DD	imagerel $LN47+35
	DD	imagerel $chain$0$?_Tidy@?$vector@V?$shared_ptr@VCave@@@std@@V?$allocator@V?$shared_ptr@VCave@@@std@@@2@@std@@IEAAXXZ
xdata	ENDS
;	COMDAT xdata
xdata	SEGMENT
$chain$0$?_Tidy@?$vector@V?$shared_ptr@VCave@@@std@@V?$allocator@V?$shared_ptr@VCave@@@std@@@2@@std@@IEAAXXZ DD 020521H
	DD	075405H
	DD	imagerel $LN47
	DD	imagerel $LN47+21
	DD	imagerel $unwind$?_Tidy@?$vector@V?$shared_ptr@VCave@@@std@@V?$allocator@V?$shared_ptr@VCave@@@std@@@2@@std@@IEAAXXZ
xdata	ENDS
;	COMDAT xdata
xdata	SEGMENT
$unwind$?_Tidy@?$vector@V?$shared_ptr@VCave@@@std@@V?$allocator@V?$shared_ptr@VCave@@@std@@@2@@std@@IEAAXXZ DD 040a01H
	DD	08640aH
	DD	07006320aH
xdata	ENDS
;	COMDAT xdata
xdata	SEGMENT
$unwind$?_Reserve@?$vector@VLine@geom@@V?$allocator@VLine@geom@@@std@@@std@@IEAAX_K@Z DD 010401H
	DD	04204H
xdata	ENDS
;	COMDAT xdata
xdata	SEGMENT
$unwind$?_Tidy@?$vector@VLine@geom@@V?$allocator@VLine@geom@@@std@@@std@@IEAAXXZ DD 020601H
	DD	030023206H
xdata	ENDS
;	COMDAT xdata
xdata	SEGMENT
$chain$2$?_Destroy@?$vector@V?$shared_ptr@VCave@@@std@@V?$allocator@V?$shared_ptr@VCave@@@std@@@2@@std@@IEAAXPEAV?$shared_ptr@VCave@@@2@0@Z DD 021H
	DD	imagerel $LN37
	DD	imagerel $LN37+10
	DD	imagerel $unwind$?_Destroy@?$vector@V?$shared_ptr@VCave@@@std@@V?$allocator@V?$shared_ptr@VCave@@@std@@@2@@std@@IEAAXPEAV?$shared_ptr@VCave@@@2@0@Z
xdata	ENDS
;	COMDAT xdata
xdata	SEGMENT
$chain$1$?_Destroy@?$vector@V?$shared_ptr@VCave@@@std@@V?$allocator@V?$shared_ptr@VCave@@@std@@@2@@std@@IEAAXPEAV?$shared_ptr@VCave@@@2@0@Z DD 040a21H
	DD	07740aH
	DD	063405H
	DD	imagerel $LN37
	DD	imagerel $LN37+10
	DD	imagerel $unwind$?_Destroy@?$vector@V?$shared_ptr@VCave@@@std@@V?$allocator@V?$shared_ptr@VCave@@@std@@@2@@std@@IEAAXPEAV?$shared_ptr@VCave@@@2@0@Z
xdata	ENDS
;	COMDAT xdata
xdata	SEGMENT
$unwind$?_Destroy@?$vector@V?$shared_ptr@VCave@@@std@@V?$allocator@V?$shared_ptr@VCave@@@std@@@2@@std@@IEAAXPEAV?$shared_ptr@VCave@@@2@0@Z DD 020a01H
	DD	06006320aH
xdata	ENDS
;	COMDAT xdata
xdata	SEGMENT
$chain$1$?_Reallocate@?$vector@VLine@geom@@V?$allocator@VLine@geom@@@std@@@std@@IEAAX_K@Z DD 021H
	DD	imagerel $LN51
	DD	imagerel $LN51+73
	DD	imagerel $unwind$?_Reallocate@?$vector@VLine@geom@@V?$allocator@VLine@geom@@@std@@@std@@IEAAX_K@Z
xdata	ENDS
;	COMDAT xdata
xdata	SEGMENT
$chain$0$?_Reallocate@?$vector@VLine@geom@@V?$allocator@VLine@geom@@@std@@@std@@IEAAX_K@Z DD 020521H
	DD	087405H
	DD	imagerel $LN51
	DD	imagerel $LN51+73
	DD	imagerel $unwind$?_Reallocate@?$vector@VLine@geom@@V?$allocator@VLine@geom@@@std@@@std@@IEAAX_K@Z
xdata	ENDS
;	COMDAT xdata
xdata	SEGMENT
$unwind$?_Reallocate@?$vector@VLine@geom@@V?$allocator@VLine@geom@@@std@@@std@@IEAAX_K@Z DD 060f01H
	DD	0a540fH
	DD	09340fH
	DD	0600b520fH
xdata	ENDS
;	COMDAT xdata
xdata	SEGMENT
$unwind$?_Xlen@?$vector@VLine@geom@@V?$allocator@VLine@geom@@@std@@@std@@IEBAXXZ DD 010401H
	DD	04204H
xdata	ENDS
;	COMDAT xdata
xdata	SEGMENT
$unwind$?allocate@?$_Wrap_alloc@V?$allocator@VLine@geom@@@std@@@std@@QEAAPEAVLine@geom@@_K@Z DD 010401H
	DD	04204H
xdata	ENDS
;	COMDAT xdata
xdata	SEGMENT
$unwind$?allocate@?$allocator@VLine@geom@@@std@@QEAAPEAVLine@geom@@_K@Z DD 010401H
	DD	04204H
xdata	ENDS
;	COMDAT xdata
xdata	SEGMENT
$chain$2$??$_Destroy_range@U?$_Wrap_alloc@V?$allocator@V?$shared_ptr@VCave@@@std@@@std@@@std@@@std@@YAXPEAV?$shared_ptr@VCave@@@0@0AEAU?$_Wrap_alloc@V?$allocator@V?$shared_ptr@VCave@@@std@@@std@@@0@@Z DD 021H
	DD	imagerel $LN35
	DD	imagerel $LN35+10
	DD	imagerel $unwind$??$_Destroy_range@U?$_Wrap_alloc@V?$allocator@V?$shared_ptr@VCave@@@std@@@std@@@std@@@std@@YAXPEAV?$shared_ptr@VCave@@@0@0AEAU?$_Wrap_alloc@V?$allocator@V?$shared_ptr@VCave@@@std@@@std@@@0@@Z
xdata	ENDS
;	COMDAT xdata
xdata	SEGMENT
$chain$1$??$_Destroy_range@U?$_Wrap_alloc@V?$allocator@V?$shared_ptr@VCave@@@std@@@std@@@std@@@std@@YAXPEAV?$shared_ptr@VCave@@@0@0AEAU?$_Wrap_alloc@V?$allocator@V?$shared_ptr@VCave@@@std@@@std@@@0@@Z DD 040a21H
	DD	07740aH
	DD	063405H
	DD	imagerel $LN35
	DD	imagerel $LN35+10
	DD	imagerel $unwind$??$_Destroy_range@U?$_Wrap_alloc@V?$allocator@V?$shared_ptr@VCave@@@std@@@std@@@std@@@std@@YAXPEAV?$shared_ptr@VCave@@@0@0AEAU?$_Wrap_alloc@V?$allocator@V?$shared_ptr@VCave@@@std@@@std@@@0@@Z
xdata	ENDS
;	COMDAT xdata
xdata	SEGMENT
$unwind$??$_Destroy_range@U?$_Wrap_alloc@V?$allocator@V?$shared_ptr@VCave@@@std@@@std@@@std@@@std@@YAXPEAV?$shared_ptr@VCave@@@0@0AEAU?$_Wrap_alloc@V?$allocator@V?$shared_ptr@VCave@@@std@@@std@@@0@@Z DD 020a01H
	DD	06006320aH
xdata	ENDS
;	COMDAT xdata
xdata	SEGMENT
$unwind$??$_Umove@PEAVLine@geom@@@?$vector@VLine@geom@@V?$allocator@VLine@geom@@@std@@@std@@IEAAPEAVLine@geom@@PEAV23@00@Z DD 010401H
	DD	06204H
xdata	ENDS
;	COMDAT xdata
xdata	SEGMENT
$unwind$??$_Allocate@VLine@geom@@@std@@YAPEAVLine@geom@@_KPEAV12@@Z DD 010401H
	DD	04204H
xdata	ENDS
;	COMDAT xdata
xdata	SEGMENT
$chain$3$?_Reset0@?$_Ptr_base@VCave@@@std@@QEAAXPEAVCave@@PEAV_Ref_count_base@2@@Z DD 021H
	DD	imagerel $LN15
	DD	imagerel $LN15+42
	DD	imagerel $unwind$?_Reset0@?$_Ptr_base@VCave@@@std@@QEAAXPEAVCave@@PEAV_Ref_count_base@2@@Z
xdata	ENDS
;	COMDAT xdata
xdata	SEGMENT
$chain$2$?_Reset0@?$_Ptr_base@VCave@@@std@@QEAAXPEAVCave@@PEAV_Ref_count_base@2@@Z DD 020021H
	DD	06e400H
	DD	imagerel $LN15
	DD	imagerel $LN15+42
	DD	imagerel $unwind$?_Reset0@?$_Ptr_base@VCave@@@std@@QEAAXPEAVCave@@PEAV_Ref_count_base@2@@Z
xdata	ENDS
;	COMDAT xdata
xdata	SEGMENT
$chain$1$?_Reset0@?$_Ptr_base@VCave@@@std@@QEAAXPEAVCave@@PEAV_Ref_count_base@2@@Z DD 021H
	DD	imagerel $LN15
	DD	imagerel $LN15+42
	DD	imagerel $unwind$?_Reset0@?$_Ptr_base@VCave@@@std@@QEAAXPEAVCave@@PEAV_Ref_count_base@2@@Z
xdata	ENDS
;	COMDAT xdata
xdata	SEGMENT
$chain$0$?_Reset0@?$_Ptr_base@VCave@@@std@@QEAAXPEAVCave@@PEAV_Ref_count_base@2@@Z DD 020521H
	DD	06e405H
	DD	imagerel $LN15
	DD	imagerel $LN15+42
	DD	imagerel $unwind$?_Reset0@?$_Ptr_base@VCave@@@std@@QEAAXPEAVCave@@PEAV_Ref_count_base@2@@Z
xdata	ENDS
;	COMDAT xdata
xdata	SEGMENT
$unwind$?_Reset0@?$_Ptr_base@VCave@@@std@@QEAAXPEAVCave@@PEAV_Ref_count_base@2@@Z DD 081401H
	DD	096414H
	DD	085414H
	DD	073414H
	DD	070103214H
xdata	ENDS
;	COMDAT xdata
xdata	SEGMENT
$chain$2$??$_Destroy_range@U?$_Wrap_alloc@V?$allocator@V?$shared_ptr@VCave@@@std@@@std@@@std@@@std@@YAXPEAV?$shared_ptr@VCave@@@0@0AEAU?$_Wrap_alloc@V?$allocator@V?$shared_ptr@VCave@@@std@@@std@@@0@U_Nonscalar_ptr_iterator_tag@0@@Z DD 021H
	DD	imagerel $LN31
	DD	imagerel $LN31+10
	DD	imagerel $unwind$??$_Destroy_range@U?$_Wrap_alloc@V?$allocator@V?$shared_ptr@VCave@@@std@@@std@@@std@@@std@@YAXPEAV?$shared_ptr@VCave@@@0@0AEAU?$_Wrap_alloc@V?$allocator@V?$shared_ptr@VCave@@@std@@@std@@@0@U_Nonscalar_ptr_iterator_tag@0@@Z
xdata	ENDS
;	COMDAT xdata
xdata	SEGMENT
$chain$1$??$_Destroy_range@U?$_Wrap_alloc@V?$allocator@V?$shared_ptr@VCave@@@std@@@std@@@std@@@std@@YAXPEAV?$shared_ptr@VCave@@@0@0AEAU?$_Wrap_alloc@V?$allocator@V?$shared_ptr@VCave@@@std@@@std@@@0@U_Nonscalar_ptr_iterator_tag@0@@Z DD 040a21H
	DD	07740aH
	DD	063405H
	DD	imagerel $LN31
	DD	imagerel $LN31+10
	DD	imagerel $unwind$??$_Destroy_range@U?$_Wrap_alloc@V?$allocator@V?$shared_ptr@VCave@@@std@@@std@@@std@@@std@@YAXPEAV?$shared_ptr@VCave@@@0@0AEAU?$_Wrap_alloc@V?$allocator@V?$shared_ptr@VCave@@@std@@@std@@@0@U_Nonscalar_ptr_iterator_tag@0@@Z
xdata	ENDS
;	COMDAT xdata
xdata	SEGMENT
$unwind$??$_Destroy_range@U?$_Wrap_alloc@V?$allocator@V?$shared_ptr@VCave@@@std@@@std@@@std@@@std@@YAXPEAV?$shared_ptr@VCave@@@0@0AEAU?$_Wrap_alloc@V?$allocator@V?$shared_ptr@VCave@@@std@@@std@@@0@U_Nonscalar_ptr_iterator_tag@0@@Z DD 020a01H
	DD	06006320aH
xdata	ENDS
;	COMDAT xdata
xdata	SEGMENT
$unwind$??$_Uninitialized_move@PEAVLine@geom@@PEAV12@U?$_Wrap_alloc@V?$allocator@VLine@geom@@@std@@@std@@@std@@YAPEAVLine@geom@@PEAV12@00AEAU?$_Wrap_alloc@V?$allocator@VLine@geom@@@std@@@0@@Z DD 010401H
	DD	06204H
xdata	ENDS
;	COMDAT xdata
xdata	SEGMENT
$chain$1$??$destroy@V?$shared_ptr@VCave@@@std@@@?$_Wrap_alloc@V?$allocator@V?$shared_ptr@VCave@@@std@@@std@@@std@@QEAAXPEAV?$shared_ptr@VCave@@@1@@Z DD 021H
	DD	imagerel $LN23
	DD	imagerel $LN23+19
	DD	imagerel $unwind$??$destroy@V?$shared_ptr@VCave@@@std@@@?$_Wrap_alloc@V?$allocator@V?$shared_ptr@VCave@@@std@@@std@@@std@@QEAAXPEAV?$shared_ptr@VCave@@@1@@Z
xdata	ENDS
;	COMDAT xdata
xdata	SEGMENT
$chain$0$??$destroy@V?$shared_ptr@VCave@@@std@@@?$_Wrap_alloc@V?$allocator@V?$shared_ptr@VCave@@@std@@@std@@@std@@QEAAXPEAV?$shared_ptr@VCave@@@1@@Z DD 020521H
	DD	067405H
	DD	imagerel $LN23
	DD	imagerel $LN23+19
	DD	imagerel $unwind$??$destroy@V?$shared_ptr@VCave@@@std@@@?$_Wrap_alloc@V?$allocator@V?$shared_ptr@VCave@@@std@@@std@@@std@@QEAAXPEAV?$shared_ptr@VCave@@@1@@Z
xdata	ENDS
;	COMDAT xdata
xdata	SEGMENT
$unwind$??$destroy@V?$shared_ptr@VCave@@@std@@@?$_Wrap_alloc@V?$allocator@V?$shared_ptr@VCave@@@std@@@std@@@std@@QEAAXPEAV?$shared_ptr@VCave@@@1@@Z DD 020601H
	DD	030023206H
xdata	ENDS
;	COMDAT xdata
xdata	SEGMENT
$chain$1$??$destroy@V?$shared_ptr@VCave@@@std@@@?$allocator_traits@V?$allocator@V?$shared_ptr@VCave@@@std@@@std@@@std@@SAXAEAV?$allocator@V?$shared_ptr@VCave@@@std@@@1@PEAV?$shared_ptr@VCave@@@1@@Z DD 021H
	DD	imagerel $LN21
	DD	imagerel $LN21+19
	DD	imagerel $unwind$??$destroy@V?$shared_ptr@VCave@@@std@@@?$allocator_traits@V?$allocator@V?$shared_ptr@VCave@@@std@@@std@@@std@@SAXAEAV?$allocator@V?$shared_ptr@VCave@@@std@@@1@PEAV?$shared_ptr@VCave@@@1@@Z
xdata	ENDS
;	COMDAT xdata
xdata	SEGMENT
$chain$0$??$destroy@V?$shared_ptr@VCave@@@std@@@?$allocator_traits@V?$allocator@V?$shared_ptr@VCave@@@std@@@std@@@std@@SAXAEAV?$allocator@V?$shared_ptr@VCave@@@std@@@1@PEAV?$shared_ptr@VCave@@@1@@Z DD 020521H
	DD	067405H
	DD	imagerel $LN21
	DD	imagerel $LN21+19
	DD	imagerel $unwind$??$destroy@V?$shared_ptr@VCave@@@std@@@?$allocator_traits@V?$allocator@V?$shared_ptr@VCave@@@std@@@std@@@std@@SAXAEAV?$allocator@V?$shared_ptr@VCave@@@std@@@1@PEAV?$shared_ptr@VCave@@@1@@Z
xdata	ENDS
;	COMDAT xdata
xdata	SEGMENT
$unwind$??$destroy@V?$shared_ptr@VCave@@@std@@@?$allocator_traits@V?$allocator@V?$shared_ptr@VCave@@@std@@@std@@@std@@SAXAEAV?$allocator@V?$shared_ptr@VCave@@@std@@@1@PEAV?$shared_ptr@VCave@@@1@@Z DD 020601H
	DD	030023206H
xdata	ENDS
;	COMDAT xdata
xdata	SEGMENT
$chain$1$??$destroy@V?$shared_ptr@VCave@@@std@@@?$allocator@V?$shared_ptr@VCave@@@std@@@std@@QEAAXPEAV?$shared_ptr@VCave@@@1@@Z DD 021H
	DD	imagerel $LN19
	DD	imagerel $LN19+19
	DD	imagerel $unwind$??$destroy@V?$shared_ptr@VCave@@@std@@@?$allocator@V?$shared_ptr@VCave@@@std@@@std@@QEAAXPEAV?$shared_ptr@VCave@@@1@@Z
xdata	ENDS
;	COMDAT xdata
xdata	SEGMENT
$chain$0$??$destroy@V?$shared_ptr@VCave@@@std@@@?$allocator@V?$shared_ptr@VCave@@@std@@@std@@QEAAXPEAV?$shared_ptr@VCave@@@1@@Z DD 020521H
	DD	067405H
	DD	imagerel $LN19
	DD	imagerel $LN19+19
	DD	imagerel $unwind$??$destroy@V?$shared_ptr@VCave@@@std@@@?$allocator@V?$shared_ptr@VCave@@@std@@@std@@QEAAXPEAV?$shared_ptr@VCave@@@1@@Z
xdata	ENDS
;	COMDAT xdata
xdata	SEGMENT
$unwind$??$destroy@V?$shared_ptr@VCave@@@std@@@?$allocator@V?$shared_ptr@VCave@@@std@@@std@@QEAAXPEAV?$shared_ptr@VCave@@@1@@Z DD 020601H
	DD	030023206H
xdata	ENDS
;	COMDAT xdata
xdata	SEGMENT
$chain$1$??_G?$shared_ptr@VCave@@@std@@QEAAPEAXI@Z DD 021H
	DD	imagerel $LN20
	DD	imagerel $LN20+26
	DD	imagerel $unwind$??_G?$shared_ptr@VCave@@@std@@QEAAPEAXI@Z
xdata	ENDS
;	COMDAT xdata
xdata	SEGMENT
$chain$0$??_G?$shared_ptr@VCave@@@std@@QEAAPEAXI@Z DD 020521H
	DD	066405H
	DD	imagerel $LN20
	DD	imagerel $LN20+26
	DD	imagerel $unwind$??_G?$shared_ptr@VCave@@@std@@QEAAPEAXI@Z
xdata	ENDS
;	COMDAT xdata
xdata	SEGMENT
$unwind$??_G?$shared_ptr@VCave@@@std@@QEAAPEAXI@Z DD 040a01H
	DD	07340aH
	DD	07006320aH
?minHeightNoise$initializer$@ChunkLoadThread@@2P6AXXZEA DQ FLAT:??__E?minHeightNoise@ChunkLoadThread@@2VNoiseGenerator2D@Noise@@A@@YAXXZ ; ChunkLoadThread::minHeightNoise$initializer$
?maxHeightNoise$initializer$@ChunkLoadThread@@2P6AXXZEA DQ FLAT:??__E?maxHeightNoise@ChunkLoadThread@@2VNoiseGenerator2D@Noise@@A@@YAXXZ ; ChunkLoadThread::maxHeightNoise$initializer$
?smoothnessNoise$initializer$@ChunkLoadThread@@2P6AXXZEA DQ FLAT:??__E?smoothnessNoise@ChunkLoadThread@@2VNoiseGenerator3D@Noise@@A@@YAXXZ ; ChunkLoadThread::smoothnessNoise$initializer$
?solidNoise$initializer$@ChunkLoadThread@@2P6AXXZEA DQ FLAT:??__E?solidNoise@ChunkLoadThread@@2VNoiseGenerator3D@Noise@@A@@YAXXZ ; ChunkLoadThread::solidNoise$initializer$
?stoneNoise$initializer$@ChunkLoadThread@@2P6AXXZEA DQ FLAT:??__E?stoneNoise@ChunkLoadThread@@2VNoiseGenerator3D@Noise@@A@@YAXXZ ; ChunkLoadThread::stoneNoise$initializer$
?temperatureNoise$initializer$@ChunkLoadThread@@2P6AXXZEA DQ FLAT:??__E?temperatureNoise@ChunkLoadThread@@2VNoiseGenerator2D@Noise@@A@@YAXXZ ; ChunkLoadThread::temperatureNoise$initializer$
?humidityNoise$initializer$@ChunkLoadThread@@2P6AXXZEA DQ FLAT:??__E?humidityNoise@ChunkLoadThread@@2VNoiseGenerator2D@Noise@@A@@YAXXZ ; ChunkLoadThread::humidityNoise$initializer$
?chunkGenProgram$initializer$@ChunkLoadThread@@2P6AXXZEA DQ FLAT:??__E?chunkGenProgram@ChunkLoadThread@@2VProgram@cl@@A@@YAXXZ ; ChunkLoadThread::chunkGenProgram$initializer$
; Function compile flags: /Ogtp
; File c:\program files (x86)\microsoft visual studio 11.0\vc\include\xutility
;	COMDAT ?_Orphan_all@_Container_base0@std@@QEAAXXZ
_TEXT	SEGMENT
this$dead$ = 8
?_Orphan_all@_Container_base0@std@@QEAAXXZ PROC		; std::_Container_base0::_Orphan_all, COMDAT

; 40   : 		}

  00000	c2 00 00	 ret	 0
?_Orphan_all@_Container_base0@std@@QEAAXXZ ENDP		; std::_Container_base0::_Orphan_all
_TEXT	ENDS
; Function compile flags: /Ogtp
; File c:\program files (x86)\microsoft visual studio 11.0\vc\include\time.inl
;	COMDAT time
_TEXT	SEGMENT
_Time$dead$ = 8
time	PROC						; COMDAT

; 133  :     return _time64(_Time);

  00000	33 c9		 xor	 ecx, ecx
  00002	e9 00 00 00 00	 jmp	 _time64
time	ENDP
_TEXT	ENDS
; Function compile flags: /Ogtp
; File c:\users\erlend\documents\github\wind\project\wind\wind\chunkloadthread.cpp
; File c:\program files (x86)\microsoft visual studio 11.0\vc\include\time.inl
; File c:\users\erlend\documents\github\wind\project\wind\wind\chunkloadthread.cpp
;	COMDAT ??__E?minHeightNoise@ChunkLoadThread@@2VNoiseGenerator2D@Noise@@A@@YAXXZ
text$yc	SEGMENT
??__E?minHeightNoise@ChunkLoadThread@@2VNoiseGenerator2D@Noise@@A@@YAXXZ PROC ; `dynamic initializer for 'ChunkLoadThread::minHeightNoise'', COMDAT

; 9    : Noise::NoiseGenerator2D ChunkLoadThread::minHeightNoise(8, 12, 2.0f, time(0));

  00000	48 83 ec 38	 sub	 rsp, 56			; 00000038H
; File c:\program files (x86)\microsoft visual studio 11.0\vc\include\time.inl

; 133  :     return _time64(_Time);

  00004	33 c9		 xor	 ecx, ecx
  00006	e8 00 00 00 00	 call	 _time64
; File c:\users\erlend\documents\github\wind\project\wind\wind\chunkloadthread.cpp

; 9    : Noise::NoiseGenerator2D ChunkLoadThread::minHeightNoise(8, 12, 2.0f, time(0));

  0000b	48 8d 0d 00 00
	00 00		 lea	 rcx, OFFSET FLAT:?minHeightNoise@ChunkLoadThread@@2VNoiseGenerator2D@Noise@@A ; ChunkLoadThread::minHeightNoise
  00012	f3 0f 10 1d 00
	00 00 00	 movss	 xmm3, DWORD PTR __real@40000000
  0001a	89 44 24 20	 mov	 DWORD PTR [rsp+32], eax
  0001e	e8 00 00 00 00	 call	 ??0NoiseGenerator2D@Noise@@QEAA@HHMI@Z ; Noise::NoiseGenerator2D::NoiseGenerator2D
  00023	48 8d 0d 00 00
	00 00		 lea	 rcx, OFFSET FLAT:??__F?minHeightNoise@ChunkLoadThread@@2VNoiseGenerator2D@Noise@@A@@YAXXZ ; `dynamic atexit destructor for 'ChunkLoadThread::minHeightNoise''
  0002a	48 83 c4 38	 add	 rsp, 56			; 00000038H
  0002e	e9 00 00 00 00	 jmp	 atexit
??__E?minHeightNoise@ChunkLoadThread@@2VNoiseGenerator2D@Noise@@A@@YAXXZ ENDP ; `dynamic initializer for 'ChunkLoadThread::minHeightNoise''
text$yc	ENDS
; Function compile flags: /Ogtp
; File c:\users\erlend\documents\github\wind\project\wind\wind\noise.cpp
;	COMDAT ??__F?minHeightNoise@ChunkLoadThread@@2VNoiseGenerator2D@Noise@@A@@YAXXZ
text$yd	SEGMENT
??__F?minHeightNoise@ChunkLoadThread@@2VNoiseGenerator2D@Noise@@A@@YAXXZ PROC ; `dynamic atexit destructor for 'ChunkLoadThread::minHeightNoise'', COMDAT
  00000	48 83 ec 28	 sub	 rsp, 40			; 00000028H

; 187  : 	delete[] noiseMap;

  00004	48 8b 0d 28 00
	00 00		 mov	 rcx, QWORD PTR ?minHeightNoise@ChunkLoadThread@@2VNoiseGenerator2D@Noise@@A+40
  0000b	e8 00 00 00 00	 call	 ??_V@YAXPEAX@Z		; operator delete[]

; 188  : }

  00010	48 8d 0d 10 00
	00 00		 lea	 rcx, OFFSET FLAT:?minHeightNoise@ChunkLoadThread@@2VNoiseGenerator2D@Noise@@A+16
  00017	48 83 c4 28	 add	 rsp, 40			; 00000028H
  0001b	e9 00 00 00 00	 jmp	 ??1Buffer@cl@@QEAA@XZ	; cl::Buffer::~Buffer
??__F?minHeightNoise@ChunkLoadThread@@2VNoiseGenerator2D@Noise@@A@@YAXXZ ENDP ; `dynamic atexit destructor for 'ChunkLoadThread::minHeightNoise''
text$yd	ENDS
; Function compile flags: /Ogtp
; File c:\users\erlend\documents\github\wind\project\wind\wind\chunkloadthread.cpp
; File c:\program files (x86)\microsoft visual studio 11.0\vc\include\time.inl
; File c:\users\erlend\documents\github\wind\project\wind\wind\chunkloadthread.cpp
;	COMDAT ??__E?maxHeightNoise@ChunkLoadThread@@2VNoiseGenerator2D@Noise@@A@@YAXXZ
text$yc	SEGMENT
??__E?maxHeightNoise@ChunkLoadThread@@2VNoiseGenerator2D@Noise@@A@@YAXXZ PROC ; `dynamic initializer for 'ChunkLoadThread::maxHeightNoise'', COMDAT

; 10   : Noise::NoiseGenerator2D ChunkLoadThread::maxHeightNoise(8, 12, 2.0f, time(0) + 1);

  00000	48 83 ec 38	 sub	 rsp, 56			; 00000038H
; File c:\program files (x86)\microsoft visual studio 11.0\vc\include\time.inl

; 133  :     return _time64(_Time);

  00004	33 c9		 xor	 ecx, ecx
  00006	e8 00 00 00 00	 call	 _time64
; File c:\users\erlend\documents\github\wind\project\wind\wind\chunkloadthread.cpp

; 10   : Noise::NoiseGenerator2D ChunkLoadThread::maxHeightNoise(8, 12, 2.0f, time(0) + 1);

  0000b	48 8d 0d 00 00
	00 00		 lea	 rcx, OFFSET FLAT:?maxHeightNoise@ChunkLoadThread@@2VNoiseGenerator2D@Noise@@A ; ChunkLoadThread::maxHeightNoise
  00012	f3 0f 10 1d 00
	00 00 00	 movss	 xmm3, DWORD PTR __real@40000000
  0001a	ff c0		 inc	 eax
  0001c	89 44 24 20	 mov	 DWORD PTR [rsp+32], eax
  00020	e8 00 00 00 00	 call	 ??0NoiseGenerator2D@Noise@@QEAA@HHMI@Z ; Noise::NoiseGenerator2D::NoiseGenerator2D
  00025	48 8d 0d 00 00
	00 00		 lea	 rcx, OFFSET FLAT:??__F?maxHeightNoise@ChunkLoadThread@@2VNoiseGenerator2D@Noise@@A@@YAXXZ ; `dynamic atexit destructor for 'ChunkLoadThread::maxHeightNoise''
  0002c	48 83 c4 38	 add	 rsp, 56			; 00000038H
  00030	e9 00 00 00 00	 jmp	 atexit
??__E?maxHeightNoise@ChunkLoadThread@@2VNoiseGenerator2D@Noise@@A@@YAXXZ ENDP ; `dynamic initializer for 'ChunkLoadThread::maxHeightNoise''
text$yc	ENDS
; Function compile flags: /Ogtp
; File c:\users\erlend\documents\github\wind\project\wind\wind\noise.cpp
;	COMDAT ??__F?maxHeightNoise@ChunkLoadThread@@2VNoiseGenerator2D@Noise@@A@@YAXXZ
text$yd	SEGMENT
??__F?maxHeightNoise@ChunkLoadThread@@2VNoiseGenerator2D@Noise@@A@@YAXXZ PROC ; `dynamic atexit destructor for 'ChunkLoadThread::maxHeightNoise'', COMDAT
  00000	48 83 ec 28	 sub	 rsp, 40			; 00000028H

; 187  : 	delete[] noiseMap;

  00004	48 8b 0d 28 00
	00 00		 mov	 rcx, QWORD PTR ?maxHeightNoise@ChunkLoadThread@@2VNoiseGenerator2D@Noise@@A+40
  0000b	e8 00 00 00 00	 call	 ??_V@YAXPEAX@Z		; operator delete[]

; 188  : }

  00010	48 8d 0d 10 00
	00 00		 lea	 rcx, OFFSET FLAT:?maxHeightNoise@ChunkLoadThread@@2VNoiseGenerator2D@Noise@@A+16
  00017	48 83 c4 28	 add	 rsp, 40			; 00000028H
  0001b	e9 00 00 00 00	 jmp	 ??1Buffer@cl@@QEAA@XZ	; cl::Buffer::~Buffer
??__F?maxHeightNoise@ChunkLoadThread@@2VNoiseGenerator2D@Noise@@A@@YAXXZ ENDP ; `dynamic atexit destructor for 'ChunkLoadThread::maxHeightNoise''
text$yd	ENDS
; Function compile flags: /Ogtp
; File c:\users\erlend\documents\github\wind\project\wind\wind\chunkloadthread.cpp
; File c:\program files (x86)\microsoft visual studio 11.0\vc\include\time.inl
; File c:\users\erlend\documents\github\wind\project\wind\wind\chunkloadthread.cpp
;	COMDAT ??__E?smoothnessNoise@ChunkLoadThread@@2VNoiseGenerator3D@Noise@@A@@YAXXZ
text$yc	SEGMENT
??__E?smoothnessNoise@ChunkLoadThread@@2VNoiseGenerator3D@Noise@@A@@YAXXZ PROC ; `dynamic initializer for 'ChunkLoadThread::smoothnessNoise'', COMDAT

; 11   : Noise::NoiseGenerator3D ChunkLoadThread::smoothnessNoise(8, 12, 2.5f, time(0) + 2);

  00000	48 83 ec 38	 sub	 rsp, 56			; 00000038H
; File c:\program files (x86)\microsoft visual studio 11.0\vc\include\time.inl

; 133  :     return _time64(_Time);

  00004	33 c9		 xor	 ecx, ecx
  00006	e8 00 00 00 00	 call	 _time64
; File c:\users\erlend\documents\github\wind\project\wind\wind\chunkloadthread.cpp

; 11   : Noise::NoiseGenerator3D ChunkLoadThread::smoothnessNoise(8, 12, 2.5f, time(0) + 2);

  0000b	48 8d 0d 00 00
	00 00		 lea	 rcx, OFFSET FLAT:?smoothnessNoise@ChunkLoadThread@@2VNoiseGenerator3D@Noise@@A ; ChunkLoadThread::smoothnessNoise
  00012	f3 0f 10 1d 00
	00 00 00	 movss	 xmm3, DWORD PTR __real@40200000
  0001a	83 c0 02	 add	 eax, 2
  0001d	89 44 24 20	 mov	 DWORD PTR [rsp+32], eax
  00021	e8 00 00 00 00	 call	 ??0NoiseGenerator3D@Noise@@QEAA@HHMI@Z ; Noise::NoiseGenerator3D::NoiseGenerator3D
  00026	48 8d 0d 00 00
	00 00		 lea	 rcx, OFFSET FLAT:??__F?smoothnessNoise@ChunkLoadThread@@2VNoiseGenerator3D@Noise@@A@@YAXXZ ; `dynamic atexit destructor for 'ChunkLoadThread::smoothnessNoise''
  0002d	48 83 c4 38	 add	 rsp, 56			; 00000038H
  00031	e9 00 00 00 00	 jmp	 atexit
??__E?smoothnessNoise@ChunkLoadThread@@2VNoiseGenerator3D@Noise@@A@@YAXXZ ENDP ; `dynamic initializer for 'ChunkLoadThread::smoothnessNoise''
text$yc	ENDS
; Function compile flags: /Ogtp
; File c:\users\erlend\documents\github\wind\project\wind\wind\noise.cpp
;	COMDAT ??__F?smoothnessNoise@ChunkLoadThread@@2VNoiseGenerator3D@Noise@@A@@YAXXZ
text$yd	SEGMENT
??__F?smoothnessNoise@ChunkLoadThread@@2VNoiseGenerator3D@Noise@@A@@YAXXZ PROC ; `dynamic atexit destructor for 'ChunkLoadThread::smoothnessNoise'', COMDAT
  00000	48 83 ec 28	 sub	 rsp, 40			; 00000028H

; 327  : 	delete[] noiseMap;

  00004	48 8b 0d 28 00
	00 00		 mov	 rcx, QWORD PTR ?smoothnessNoise@ChunkLoadThread@@2VNoiseGenerator3D@Noise@@A+40
  0000b	e8 00 00 00 00	 call	 ??_V@YAXPEAX@Z		; operator delete[]

; 328  : }

  00010	48 8d 0d 10 00
	00 00		 lea	 rcx, OFFSET FLAT:?smoothnessNoise@ChunkLoadThread@@2VNoiseGenerator3D@Noise@@A+16
  00017	48 83 c4 28	 add	 rsp, 40			; 00000028H
  0001b	e9 00 00 00 00	 jmp	 ??1Buffer@cl@@QEAA@XZ	; cl::Buffer::~Buffer
??__F?smoothnessNoise@ChunkLoadThread@@2VNoiseGenerator3D@Noise@@A@@YAXXZ ENDP ; `dynamic atexit destructor for 'ChunkLoadThread::smoothnessNoise''
text$yd	ENDS
; Function compile flags: /Ogtp
; File c:\users\erlend\documents\github\wind\project\wind\wind\chunkloadthread.cpp
; File c:\program files (x86)\microsoft visual studio 11.0\vc\include\time.inl
; File c:\users\erlend\documents\github\wind\project\wind\wind\chunkloadthread.cpp
;	COMDAT ??__E?solidNoise@ChunkLoadThread@@2VNoiseGenerator3D@Noise@@A@@YAXXZ
text$yc	SEGMENT
??__E?solidNoise@ChunkLoadThread@@2VNoiseGenerator3D@Noise@@A@@YAXXZ PROC ; `dynamic initializer for 'ChunkLoadThread::solidNoise'', COMDAT

; 12   : Noise::NoiseGenerator3D ChunkLoadThread::solidNoise(8, 12, 0.0f, time(0) + 3);

  00000	48 83 ec 38	 sub	 rsp, 56			; 00000038H
; File c:\program files (x86)\microsoft visual studio 11.0\vc\include\time.inl

; 133  :     return _time64(_Time);

  00004	33 c9		 xor	 ecx, ecx
  00006	e8 00 00 00 00	 call	 _time64
; File c:\users\erlend\documents\github\wind\project\wind\wind\chunkloadthread.cpp

; 12   : Noise::NoiseGenerator3D ChunkLoadThread::solidNoise(8, 12, 0.0f, time(0) + 3);

  0000b	48 8d 0d 00 00
	00 00		 lea	 rcx, OFFSET FLAT:?solidNoise@ChunkLoadThread@@2VNoiseGenerator3D@Noise@@A ; ChunkLoadThread::solidNoise
  00012	83 c0 03	 add	 eax, 3
  00015	0f 57 db	 xorps	 xmm3, xmm3
  00018	89 44 24 20	 mov	 DWORD PTR [rsp+32], eax
  0001c	e8 00 00 00 00	 call	 ??0NoiseGenerator3D@Noise@@QEAA@HHMI@Z ; Noise::NoiseGenerator3D::NoiseGenerator3D
  00021	48 8d 0d 00 00
	00 00		 lea	 rcx, OFFSET FLAT:??__F?solidNoise@ChunkLoadThread@@2VNoiseGenerator3D@Noise@@A@@YAXXZ ; `dynamic atexit destructor for 'ChunkLoadThread::solidNoise''
  00028	48 83 c4 38	 add	 rsp, 56			; 00000038H
  0002c	e9 00 00 00 00	 jmp	 atexit
??__E?solidNoise@ChunkLoadThread@@2VNoiseGenerator3D@Noise@@A@@YAXXZ ENDP ; `dynamic initializer for 'ChunkLoadThread::solidNoise''
text$yc	ENDS
; Function compile flags: /Ogtp
; File c:\users\erlend\documents\github\wind\project\wind\wind\noise.cpp
;	COMDAT ??__F?solidNoise@ChunkLoadThread@@2VNoiseGenerator3D@Noise@@A@@YAXXZ
text$yd	SEGMENT
??__F?solidNoise@ChunkLoadThread@@2VNoiseGenerator3D@Noise@@A@@YAXXZ PROC ; `dynamic atexit destructor for 'ChunkLoadThread::solidNoise'', COMDAT
  00000	48 83 ec 28	 sub	 rsp, 40			; 00000028H

; 327  : 	delete[] noiseMap;

  00004	48 8b 0d 28 00
	00 00		 mov	 rcx, QWORD PTR ?solidNoise@ChunkLoadThread@@2VNoiseGenerator3D@Noise@@A+40
  0000b	e8 00 00 00 00	 call	 ??_V@YAXPEAX@Z		; operator delete[]

; 328  : }

  00010	48 8d 0d 10 00
	00 00		 lea	 rcx, OFFSET FLAT:?solidNoise@ChunkLoadThread@@2VNoiseGenerator3D@Noise@@A+16
  00017	48 83 c4 28	 add	 rsp, 40			; 00000028H
  0001b	e9 00 00 00 00	 jmp	 ??1Buffer@cl@@QEAA@XZ	; cl::Buffer::~Buffer
??__F?solidNoise@ChunkLoadThread@@2VNoiseGenerator3D@Noise@@A@@YAXXZ ENDP ; `dynamic atexit destructor for 'ChunkLoadThread::solidNoise''
text$yd	ENDS
; Function compile flags: /Ogtp
; File c:\users\erlend\documents\github\wind\project\wind\wind\chunkloadthread.cpp
; File c:\program files (x86)\microsoft visual studio 11.0\vc\include\time.inl
; File c:\users\erlend\documents\github\wind\project\wind\wind\chunkloadthread.cpp
;	COMDAT ??__E?stoneNoise@ChunkLoadThread@@2VNoiseGenerator3D@Noise@@A@@YAXXZ
text$yc	SEGMENT
??__E?stoneNoise@ChunkLoadThread@@2VNoiseGenerator3D@Noise@@A@@YAXXZ PROC ; `dynamic initializer for 'ChunkLoadThread::stoneNoise'', COMDAT

; 13   : Noise::NoiseGenerator3D ChunkLoadThread::stoneNoise(8, 12, 2.0f, time(0) + 4);

  00000	48 83 ec 38	 sub	 rsp, 56			; 00000038H
; File c:\program files (x86)\microsoft visual studio 11.0\vc\include\time.inl

; 133  :     return _time64(_Time);

  00004	33 c9		 xor	 ecx, ecx
  00006	e8 00 00 00 00	 call	 _time64
; File c:\users\erlend\documents\github\wind\project\wind\wind\chunkloadthread.cpp

; 13   : Noise::NoiseGenerator3D ChunkLoadThread::stoneNoise(8, 12, 2.0f, time(0) + 4);

  0000b	48 8d 0d 00 00
	00 00		 lea	 rcx, OFFSET FLAT:?stoneNoise@ChunkLoadThread@@2VNoiseGenerator3D@Noise@@A ; ChunkLoadThread::stoneNoise
  00012	f3 0f 10 1d 00
	00 00 00	 movss	 xmm3, DWORD PTR __real@40000000
  0001a	83 c0 04	 add	 eax, 4
  0001d	89 44 24 20	 mov	 DWORD PTR [rsp+32], eax
  00021	e8 00 00 00 00	 call	 ??0NoiseGenerator3D@Noise@@QEAA@HHMI@Z ; Noise::NoiseGenerator3D::NoiseGenerator3D
  00026	48 8d 0d 00 00
	00 00		 lea	 rcx, OFFSET FLAT:??__F?stoneNoise@ChunkLoadThread@@2VNoiseGenerator3D@Noise@@A@@YAXXZ ; `dynamic atexit destructor for 'ChunkLoadThread::stoneNoise''
  0002d	48 83 c4 38	 add	 rsp, 56			; 00000038H
  00031	e9 00 00 00 00	 jmp	 atexit
??__E?stoneNoise@ChunkLoadThread@@2VNoiseGenerator3D@Noise@@A@@YAXXZ ENDP ; `dynamic initializer for 'ChunkLoadThread::stoneNoise''
text$yc	ENDS
; Function compile flags: /Ogtp
; File c:\users\erlend\documents\github\wind\project\wind\wind\noise.cpp
;	COMDAT ??__F?stoneNoise@ChunkLoadThread@@2VNoiseGenerator3D@Noise@@A@@YAXXZ
text$yd	SEGMENT
??__F?stoneNoise@ChunkLoadThread@@2VNoiseGenerator3D@Noise@@A@@YAXXZ PROC ; `dynamic atexit destructor for 'ChunkLoadThread::stoneNoise'', COMDAT
  00000	48 83 ec 28	 sub	 rsp, 40			; 00000028H

; 327  : 	delete[] noiseMap;

  00004	48 8b 0d 28 00
	00 00		 mov	 rcx, QWORD PTR ?stoneNoise@ChunkLoadThread@@2VNoiseGenerator3D@Noise@@A+40
  0000b	e8 00 00 00 00	 call	 ??_V@YAXPEAX@Z		; operator delete[]

; 328  : }

  00010	48 8d 0d 10 00
	00 00		 lea	 rcx, OFFSET FLAT:?stoneNoise@ChunkLoadThread@@2VNoiseGenerator3D@Noise@@A+16
  00017	48 83 c4 28	 add	 rsp, 40			; 00000028H
  0001b	e9 00 00 00 00	 jmp	 ??1Buffer@cl@@QEAA@XZ	; cl::Buffer::~Buffer
??__F?stoneNoise@ChunkLoadThread@@2VNoiseGenerator3D@Noise@@A@@YAXXZ ENDP ; `dynamic atexit destructor for 'ChunkLoadThread::stoneNoise''
text$yd	ENDS
; Function compile flags: /Ogtp
; File c:\users\erlend\documents\github\wind\project\wind\wind\chunkloadthread.cpp
; File c:\program files (x86)\microsoft visual studio 11.0\vc\include\time.inl
; File c:\users\erlend\documents\github\wind\project\wind\wind\chunkloadthread.cpp
;	COMDAT ??__E?temperatureNoise@ChunkLoadThread@@2VNoiseGenerator2D@Noise@@A@@YAXXZ
text$yc	SEGMENT
??__E?temperatureNoise@ChunkLoadThread@@2VNoiseGenerator2D@Noise@@A@@YAXXZ PROC ; `dynamic initializer for 'ChunkLoadThread::temperatureNoise'', COMDAT

; 14   : Noise::NoiseGenerator2D ChunkLoadThread::temperatureNoise(8, 12, 2.0f, time(0) + 5);

  00000	48 83 ec 38	 sub	 rsp, 56			; 00000038H
; File c:\program files (x86)\microsoft visual studio 11.0\vc\include\time.inl

; 133  :     return _time64(_Time);

  00004	33 c9		 xor	 ecx, ecx
  00006	e8 00 00 00 00	 call	 _time64
; File c:\users\erlend\documents\github\wind\project\wind\wind\chunkloadthread.cpp

; 14   : Noise::NoiseGenerator2D ChunkLoadThread::temperatureNoise(8, 12, 2.0f, time(0) + 5);

  0000b	48 8d 0d 00 00
	00 00		 lea	 rcx, OFFSET FLAT:?temperatureNoise@ChunkLoadThread@@2VNoiseGenerator2D@Noise@@A ; ChunkLoadThread::temperatureNoise
  00012	f3 0f 10 1d 00
	00 00 00	 movss	 xmm3, DWORD PTR __real@40000000
  0001a	83 c0 05	 add	 eax, 5
  0001d	89 44 24 20	 mov	 DWORD PTR [rsp+32], eax
  00021	e8 00 00 00 00	 call	 ??0NoiseGenerator2D@Noise@@QEAA@HHMI@Z ; Noise::NoiseGenerator2D::NoiseGenerator2D
  00026	48 8d 0d 00 00
	00 00		 lea	 rcx, OFFSET FLAT:??__F?temperatureNoise@ChunkLoadThread@@2VNoiseGenerator2D@Noise@@A@@YAXXZ ; `dynamic atexit destructor for 'ChunkLoadThread::temperatureNoise''
  0002d	48 83 c4 38	 add	 rsp, 56			; 00000038H
  00031	e9 00 00 00 00	 jmp	 atexit
??__E?temperatureNoise@ChunkLoadThread@@2VNoiseGenerator2D@Noise@@A@@YAXXZ ENDP ; `dynamic initializer for 'ChunkLoadThread::temperatureNoise''
text$yc	ENDS
; Function compile flags: /Ogtp
; File c:\users\erlend\documents\github\wind\project\wind\wind\noise.cpp
;	COMDAT ??__F?temperatureNoise@ChunkLoadThread@@2VNoiseGenerator2D@Noise@@A@@YAXXZ
text$yd	SEGMENT
??__F?temperatureNoise@ChunkLoadThread@@2VNoiseGenerator2D@Noise@@A@@YAXXZ PROC ; `dynamic atexit destructor for 'ChunkLoadThread::temperatureNoise'', COMDAT
  00000	48 83 ec 28	 sub	 rsp, 40			; 00000028H

; 187  : 	delete[] noiseMap;

  00004	48 8b 0d 28 00
	00 00		 mov	 rcx, QWORD PTR ?temperatureNoise@ChunkLoadThread@@2VNoiseGenerator2D@Noise@@A+40
  0000b	e8 00 00 00 00	 call	 ??_V@YAXPEAX@Z		; operator delete[]

; 188  : }

  00010	48 8d 0d 10 00
	00 00		 lea	 rcx, OFFSET FLAT:?temperatureNoise@ChunkLoadThread@@2VNoiseGenerator2D@Noise@@A+16
  00017	48 83 c4 28	 add	 rsp, 40			; 00000028H
  0001b	e9 00 00 00 00	 jmp	 ??1Buffer@cl@@QEAA@XZ	; cl::Buffer::~Buffer
??__F?temperatureNoise@ChunkLoadThread@@2VNoiseGenerator2D@Noise@@A@@YAXXZ ENDP ; `dynamic atexit destructor for 'ChunkLoadThread::temperatureNoise''
text$yd	ENDS
; Function compile flags: /Ogtp
; File c:\users\erlend\documents\github\wind\project\wind\wind\chunkloadthread.cpp
; File c:\program files (x86)\microsoft visual studio 11.0\vc\include\time.inl
; File c:\users\erlend\documents\github\wind\project\wind\wind\chunkloadthread.cpp
;	COMDAT ??__E?humidityNoise@ChunkLoadThread@@2VNoiseGenerator2D@Noise@@A@@YAXXZ
text$yc	SEGMENT
??__E?humidityNoise@ChunkLoadThread@@2VNoiseGenerator2D@Noise@@A@@YAXXZ PROC ; `dynamic initializer for 'ChunkLoadThread::humidityNoise'', COMDAT

; 15   : Noise::NoiseGenerator2D ChunkLoadThread::humidityNoise(8, 12, 2.0f, time(0) + 6);

  00000	48 83 ec 38	 sub	 rsp, 56			; 00000038H
; File c:\program files (x86)\microsoft visual studio 11.0\vc\include\time.inl

; 133  :     return _time64(_Time);

  00004	33 c9		 xor	 ecx, ecx
  00006	e8 00 00 00 00	 call	 _time64
; File c:\users\erlend\documents\github\wind\project\wind\wind\chunkloadthread.cpp

; 15   : Noise::NoiseGenerator2D ChunkLoadThread::humidityNoise(8, 12, 2.0f, time(0) + 6);

  0000b	48 8d 0d 00 00
	00 00		 lea	 rcx, OFFSET FLAT:?humidityNoise@ChunkLoadThread@@2VNoiseGenerator2D@Noise@@A ; ChunkLoadThread::humidityNoise
  00012	f3 0f 10 1d 00
	00 00 00	 movss	 xmm3, DWORD PTR __real@40000000
  0001a	83 c0 06	 add	 eax, 6
  0001d	89 44 24 20	 mov	 DWORD PTR [rsp+32], eax
  00021	e8 00 00 00 00	 call	 ??0NoiseGenerator2D@Noise@@QEAA@HHMI@Z ; Noise::NoiseGenerator2D::NoiseGenerator2D
  00026	48 8d 0d 00 00
	00 00		 lea	 rcx, OFFSET FLAT:??__F?humidityNoise@ChunkLoadThread@@2VNoiseGenerator2D@Noise@@A@@YAXXZ ; `dynamic atexit destructor for 'ChunkLoadThread::humidityNoise''
  0002d	48 83 c4 38	 add	 rsp, 56			; 00000038H
  00031	e9 00 00 00 00	 jmp	 atexit
??__E?humidityNoise@ChunkLoadThread@@2VNoiseGenerator2D@Noise@@A@@YAXXZ ENDP ; `dynamic initializer for 'ChunkLoadThread::humidityNoise''
text$yc	ENDS
; Function compile flags: /Ogtp
; File c:\users\erlend\documents\github\wind\project\wind\wind\noise.cpp
;	COMDAT ??__F?humidityNoise@ChunkLoadThread@@2VNoiseGenerator2D@Noise@@A@@YAXXZ
text$yd	SEGMENT
??__F?humidityNoise@ChunkLoadThread@@2VNoiseGenerator2D@Noise@@A@@YAXXZ PROC ; `dynamic atexit destructor for 'ChunkLoadThread::humidityNoise'', COMDAT
  00000	48 83 ec 28	 sub	 rsp, 40			; 00000028H

; 187  : 	delete[] noiseMap;

  00004	48 8b 0d 28 00
	00 00		 mov	 rcx, QWORD PTR ?humidityNoise@ChunkLoadThread@@2VNoiseGenerator2D@Noise@@A+40
  0000b	e8 00 00 00 00	 call	 ??_V@YAXPEAX@Z		; operator delete[]

; 188  : }

  00010	48 8d 0d 10 00
	00 00		 lea	 rcx, OFFSET FLAT:?humidityNoise@ChunkLoadThread@@2VNoiseGenerator2D@Noise@@A+16
  00017	48 83 c4 28	 add	 rsp, 40			; 00000028H
  0001b	e9 00 00 00 00	 jmp	 ??1Buffer@cl@@QEAA@XZ	; cl::Buffer::~Buffer
??__F?humidityNoise@ChunkLoadThread@@2VNoiseGenerator2D@Noise@@A@@YAXXZ ENDP ; `dynamic atexit destructor for 'ChunkLoadThread::humidityNoise''
text$yd	ENDS
; Function compile flags: /Ogtp
; File c:\users\erlend\documents\github\wind\project\wind\wind\chunkloadthread.cpp
; File c:\program files (x86)\microsoft visual studio 11.0\vc\include\xtree
; File c:\program files (x86)\microsoft visual studio 11.0\vc\include\thr\xthread
; File c:\users\erlend\documents\github\wind\project\wind\wind\opencl.cpp
; File c:\users\erlend\documents\github\wind\project\wind\wind\chunkloadthread.cpp
;	COMDAT ??__E?chunkGenProgram@ChunkLoadThread@@2VProgram@cl@@A@@YAXXZ
text$yc	SEGMENT
$T1 = 32
??__E?chunkGenProgram@ChunkLoadThread@@2VProgram@cl@@A@@YAXXZ PROC ; `dynamic initializer for 'ChunkLoadThread::chunkGenProgram'', COMDAT

; 17   : cl::Program ChunkLoadThread::chunkGenProgram;

  00000	48 83 ec 38	 sub	 rsp, 56			; 00000038H
  00004	48 c7 44 24 20
	fe ff ff ff	 mov	 QWORD PTR $T1[rsp], -2
; File c:\program files (x86)\microsoft visual studio 11.0\vc\include\xtree

; 778  : 		this->_Myhead = _Buyheadnode();

  0000d	e8 00 00 00 00	 call	 ?_Buyheadnode@?$_Tree_alloc@$0A@U?$_Tree_base_types@U?$pair@$$CBV?$basic_string@DU?$char_traits@D@std@@V?$allocator@D@2@@std@@PEAU_cl_kernel@@@std@@V?$allocator@U?$pair@$$CBV?$basic_string@DU?$char_traits@D@std@@V?$allocator@D@2@@std@@PEAU_cl_kernel@@@std@@@2@@std@@@std@@QEAAPEAU?$_Tree_node@U?$pair@$$CBV?$basic_string@DU?$char_traits@D@std@@V?$allocator@D@2@@std@@PEAU_cl_kernel@@@std@@PEAX@2@XZ ; std::_Tree_alloc<0,std::_Tree_base_types<std::pair<std::basic_string<char,std::char_traits<char>,std::allocator<char> > const ,_cl_kernel * __ptr64>,std::allocator<std::pair<std::basic_string<char,std::char_traits<char>,std::allocator<char> > const ,_cl_kernel * __ptr64> > > >::_Buyheadnode
  00012	48 89 05 08 00
	00 00		 mov	 QWORD PTR ?chunkGenProgram@ChunkLoadThread@@2VProgram@cl@@A+8, rax
; File c:\program files (x86)\microsoft visual studio 11.0\vc\include\thr\xthread

; 63   : 	return (_Check_C_return(_Mtx_init(_Mtx, _Type)));

  00019	ba 02 00 00 00	 mov	 edx, 2
  0001e	48 8d 0d 18 00
	00 00		 lea	 rcx, OFFSET FLAT:?chunkGenProgram@ChunkLoadThread@@2VProgram@cl@@A+24
  00025	e8 00 00 00 00	 call	 _Mtx_init

; 32   : 	if (_Res != _Thrd_success)

  0002a	85 c0		 test	 eax, eax
  0002c	74 07		 je	 SHORT $LN31@chunkGenPr

; 33   : 		_Throw_C_error(_Res);

  0002e	8b c8		 mov	 ecx, eax
  00030	e8 00 00 00 00	 call	 ?_Throw_C_error@std@@YAXH@Z ; std::_Throw_C_error
$LN31@chunkGenPr:
; File c:\users\erlend\documents\github\wind\project\wind\wind\opencl.cpp

; 97   : {

  00035	c6 05 30 00 00
	00 00		 mov	 BYTE PTR ?chunkGenProgram@ChunkLoadThread@@2VProgram@cl@@A+48, 0
; File c:\users\erlend\documents\github\wind\project\wind\wind\chunkloadthread.cpp

; 17   : cl::Program ChunkLoadThread::chunkGenProgram;

  0003c	48 8d 0d 00 00
	00 00		 lea	 rcx, OFFSET FLAT:??__F?chunkGenProgram@ChunkLoadThread@@2VProgram@cl@@A@@YAXXZ ; `dynamic atexit destructor for 'ChunkLoadThread::chunkGenProgram''
  00043	48 83 c4 38	 add	 rsp, 56			; 00000038H
  00047	e9 00 00 00 00	 jmp	 atexit
??__E?chunkGenProgram@ChunkLoadThread@@2VProgram@cl@@A@@YAXXZ ENDP ; `dynamic initializer for 'ChunkLoadThread::chunkGenProgram''
text$yc	ENDS
; Function compile flags: /Ogtp
;	COMDAT text$x
text$x	SEGMENT
$T1 = 32
?dtor$0@?0???__E?chunkGenProgram@ChunkLoadThread@@2VProgram@cl@@A@@YAXXZ@4HA PROC ; ``dynamic initializer for 'ChunkLoadThread::chunkGenProgram'''::`1'::dtor$0
  00000	48 8d 0d 00 00
	00 00		 lea	 rcx, OFFSET FLAT:?chunkGenProgram@ChunkLoadThread@@2VProgram@cl@@A ; ChunkLoadThread::chunkGenProgram
  00007	48 83 c1 08	 add	 rcx, 8
  0000b	e9 00 00 00 00	 jmp	 ??1?$map@V?$basic_string@DU?$char_traits@D@std@@V?$allocator@D@2@@std@@PEAU_cl_kernel@@U?$less@V?$basic_string@DU?$char_traits@D@std@@V?$allocator@D@2@@std@@@2@V?$allocator@U?$pair@$$CBV?$basic_string@DU?$char_traits@D@std@@V?$allocator@D@2@@std@@PEAU_cl_kernel@@@std@@@2@@std@@QEAA@XZ
?dtor$0@?0???__E?chunkGenProgram@ChunkLoadThread@@2VProgram@cl@@A@@YAXXZ@4HA ENDP ; ``dynamic initializer for 'ChunkLoadThread::chunkGenProgram'''::`1'::dtor$0
text$x	ENDS
; Function compile flags: /Ogtp
;	COMDAT ??__F?chunkGenProgram@ChunkLoadThread@@2VProgram@cl@@A@@YAXXZ
text$yd	SEGMENT
??__F?chunkGenProgram@ChunkLoadThread@@2VProgram@cl@@A@@YAXXZ PROC ; `dynamic atexit destructor for 'ChunkLoadThread::chunkGenProgram'', COMDAT
  00000	48 8d 0d 00 00
	00 00		 lea	 rcx, OFFSET FLAT:?chunkGenProgram@ChunkLoadThread@@2VProgram@cl@@A ; ChunkLoadThread::chunkGenProgram
  00007	e9 00 00 00 00	 jmp	 ??1Program@cl@@QEAA@XZ	; cl::Program::~Program
??__F?chunkGenProgram@ChunkLoadThread@@2VProgram@cl@@A@@YAXXZ ENDP ; `dynamic atexit destructor for 'ChunkLoadThread::chunkGenProgram''
text$yd	ENDS
; Function compile flags: /Ogtp
; File c:\users\erlend\documents\github\wind\project\wind\wind\chunkloadthread.cpp
; File c:\users\erlend\documents\github\wind\project\wind\wind\noise.cpp
; File c:\users\erlend\documents\github\wind\project\wind\wind\chunkloadthread.cpp
; File c:\users\erlend\documents\github\wind\project\wind\wind\noise.cpp
; File c:\users\erlend\documents\github\wind\project\wind\wind\chunkloadthread.cpp
;	COMDAT ?staticInit@ChunkLoadThread@@SAXXZ
_TEXT	SEGMENT
$T1 = 32
?staticInit@ChunkLoadThread@@SAXXZ PROC			; ChunkLoadThread::staticInit, COMDAT

; 20   : {

$LN19:
  00000	48 83 ec 48	 sub	 rsp, 72			; 00000048H

; 21   : 	ChunkLoadThread::chunkGenProgram.create(IOUtil::EXE_DIR + L"\\programs\\generation.cl");

  00004	4c 8d 05 00 00
	00 00		 lea	 r8, OFFSET FLAT:$SG4294957486
  0000b	48 8d 4c 24 20	 lea	 rcx, QWORD PTR $T1[rsp]
  00010	e8 00 00 00 00	 call	 ??$?H_WU?$char_traits@_W@std@@V?$allocator@_W@1@@std@@YA?AV?$basic_string@_WU?$char_traits@_W@std@@V?$allocator@_W@2@@0@AEBV10@PEB_W@Z ; std::operator+<wchar_t,std::char_traits<wchar_t>,std::allocator<wchar_t> >
  00015	48 8d 0d 00 00
	00 00		 lea	 rcx, OFFSET FLAT:?chunkGenProgram@ChunkLoadThread@@2VProgram@cl@@A ; ChunkLoadThread::chunkGenProgram
  0001c	48 8b d0	 mov	 rdx, rax
  0001f	e8 00 00 00 00	 call	 ?create@Program@cl@@QEAA_NV?$basic_string@_WU?$char_traits@_W@std@@V?$allocator@_W@2@@std@@@Z ; cl::Program::create
; File c:\users\erlend\documents\github\wind\project\wind\wind\noise.cpp

; 239  : 	noiseMapBuffer.create(sizeof(unsigned char) * size * size, CL_MEM_READ_ONLY | CL_MEM_COPY_HOST_PTR, noiseMap);

  00024	48 63 15 04 00
	00 00		 movsxd	 rdx, DWORD PTR ?minHeightNoise@ChunkLoadThread@@2VNoiseGenerator2D@Noise@@A+4
  0002b	4c 8b 0d 28 00
	00 00		 mov	 r9, QWORD PTR ?minHeightNoise@ChunkLoadThread@@2VNoiseGenerator2D@Noise@@A+40
  00032	48 0f af d2	 imul	 rdx, rdx
  00036	48 8d 0d 10 00
	00 00		 lea	 rcx, OFFSET FLAT:?minHeightNoise@ChunkLoadThread@@2VNoiseGenerator2D@Noise@@A+16
  0003d	41 b8 24 00 00
	00		 mov	 r8d, 36			; 00000024H
  00043	e8 00 00 00 00	 call	 ?create@Buffer@cl@@QEAA_N_KHPEAX@Z ; cl::Buffer::create
  00048	48 63 15 04 00
	00 00		 movsxd	 rdx, DWORD PTR ?maxHeightNoise@ChunkLoadThread@@2VNoiseGenerator2D@Noise@@A+4
  0004f	4c 8b 0d 28 00
	00 00		 mov	 r9, QWORD PTR ?maxHeightNoise@ChunkLoadThread@@2VNoiseGenerator2D@Noise@@A+40
  00056	48 0f af d2	 imul	 rdx, rdx
  0005a	48 8d 0d 10 00
	00 00		 lea	 rcx, OFFSET FLAT:?maxHeightNoise@ChunkLoadThread@@2VNoiseGenerator2D@Noise@@A+16
  00061	41 b8 24 00 00
	00		 mov	 r8d, 36			; 00000024H
  00067	e8 00 00 00 00	 call	 ?create@Buffer@cl@@QEAA_N_KHPEAX@Z ; cl::Buffer::create

; 240  : }
; 241  : 
; 242  : void NoiseGenerator2D::fillNoiseBuffer(cl::CommandQueue& queue, cl::Buffer& buffer, unsigned int xs, unsigned int ys, float x, float y, float xd, float yd)
; 243  : {
; 244  : 	fillNoiseBuffer(queue, buffer, xs, ys, smoothness, x, y, xd, yd);
; 245  : }
; 246  : 
; 247  : void NoiseGenerator2D::fillNoiseBuffer(cl::CommandQueue& queue, cl::Buffer& buffer, unsigned int xs, unsigned int ys, float smoothness, float x, float y, float xd, float yd)
; 248  : {
; 249  : 	const size_t local_ws[] = {1, 1};
; 250  : 	const size_t global_ws[] = {xs, ys};
; 251  : 	
; 252  : 	noiseProgram.prepare("fillNoiseBuffer2d");
; 253  : 	noiseProgram.setArgument(sizeof(cl_mem), &buffer);
; 254  : 	noiseProgram.setArgument(sizeof(cl_mem), &noiseMapBuffer);
; 255  : 	noiseProgram.setArgument(sizeof(unsigned int), &sizeExponent);
; 256  : 	noiseProgram.setArgument(sizeof(float), &smoothness);
; 257  : 	noiseProgram.setArgument(sizeof(unsigned int), &octaves);
; 258  : 	noiseProgram.setArgument(sizeof(float), &x);
; 259  : 	noiseProgram.setArgument(sizeof(float), &y);
; 260  : 	noiseProgram.setArgument(sizeof(float), &xd);
; 261  : 	noiseProgram.setArgument(sizeof(float), &yd);
; 262  : 	noiseProgram.setArgument(sizeof(unsigned int), &xs);
; 263  : 	noiseProgram.setArgument(sizeof(unsigned int), &ys);
; 264  : 	noiseProgram.invoke(queue, 2, global_ws, local_ws);
; 265  : }
; 266  : 
; 267  : void NoiseGenerator2D::fillNoiseBufferWithSmoothness(cl::CommandQueue& queue, cl::Buffer& buffer, unsigned int xs, unsigned int ys, cl::Buffer& smoothness, float x, float y, float xd, float yd)
; 268  : {
; 269  : 	const size_t local_ws[] = {1, 1};
; 270  : 	const size_t global_ws[] = {xs, ys};
; 271  : 	
; 272  : 	noiseProgram.prepare("fillNoiseBufferWithSmoothness2d");
; 273  : 	noiseProgram.setArgument(sizeof(cl_mem), &buffer);
; 274  : 	noiseProgram.setArgument(sizeof(cl_mem), &noiseMapBuffer);
; 275  : 	noiseProgram.setArgument(sizeof(unsigned int), &sizeExponent);
; 276  : 	noiseProgram.setArgument(sizeof(cl_mem), &smoothness);
; 277  : 	noiseProgram.setArgument(sizeof(unsigned int), &octaves);
; 278  : 	noiseProgram.setArgument(sizeof(float), &x);
; 279  : 	noiseProgram.setArgument(sizeof(float), &y);
; 280  : 	noiseProgram.setArgument(sizeof(float), &xd);
; 281  : 	noiseProgram.setArgument(sizeof(float), &yd);
; 282  : 	noiseProgram.setArgument(sizeof(unsigned int), &xs);
; 283  : 	noiseProgram.setArgument(sizeof(unsigned int), &ys);
; 284  : 	noiseProgram.invoke(queue, 2, global_ws, local_ws);
; 285  : }
; 286  : 
; 287  : unsigned char NoiseGenerator3D::noiseAt(int &x, int &y, int &z)
; 288  : {
; 289  : 	const int andField = size - 1;
; 290  : 	return noiseMap[((x & andField) << sizeExponent | y & andField) << sizeExponent | z & andField];
; 291  : }
; 292  : 
; 293  : NoiseGenerator3D::NoiseGenerator3D()
; 294  : {
; 295  : 
; 296  : }
; 297  : 
; 298  : NoiseGenerator3D::NoiseGenerator3D(int sizeExponent, int octaves, float smoothness, unsigned int seed)
; 299  : 	: sizeExponent(sizeExponent), size(1 << sizeExponent), octaves(octaves), smoothness(smoothness), noiseMap(new unsigned char[size * size * size])
; 300  : {
; 301  : 	Random rand(seed);
; 302  : 	initNoise(rand);
; 303  : }
; 304  : 
; 305  : NoiseGenerator3D::NoiseGenerator3D(int sizeExponent, int octaves, float smoothness, Random& rand)
; 306  : 	: sizeExponent(sizeExponent), size(1 << sizeExponent), octaves(octaves), smoothness(smoothness), noiseMap(new unsigned char[size * size * size])
; 307  : {
; 308  : 	initNoise(rand);
; 309  : }
; 310  : 
; 311  : void NoiseGenerator3D::initNoise(Random& rand)
; 312  : {
; 313  : 	const int chunk_size = 32;
; 314  : 	for(int i = 0; i < size * size * size; i += chunk_size)
; 315  : 	{
; 316  : 		unsigned int r = rand.getUint();
; 317  : 		for(int j = 0; j < chunk_size; j++)
; 318  : 		{
; 319  : 			noiseMap[i + j] = r & 0x1;
; 320  : 			r >>= 1;
; 321  : 		}
; 322  : 	}
; 323  : }
; 324  : 
; 325  : NoiseGenerator3D::~NoiseGenerator3D()
; 326  : {
; 327  : 	delete[] noiseMap;
; 328  : }
; 329  : 
; 330  : float NoiseGenerator3D::getNoise(float x, float y, float z)
; 331  : {
; 332  : 	return getNoise(x, y, z, smoothness);
; 333  : }
; 334  : 
; 335  : float NoiseGenerator3D::getNoise(float x, float y, float z, float smoothness)
; 336  : {
; 337  : 	float noise = 0.0f;
; 338  : 	float value = 1.0f;
; 339  : 	float maxValue = 0.0f;
; 340  : 
; 341  : 	int ix;
; 342  : 	int ix1;
; 343  : 	int iy;
; 344  : 	int iy1;
; 345  : 	int iz;
; 346  : 	int iz1;
; 347  : 	float xMix;
; 348  : 	float xMixi;
; 349  : 	float yMix;
; 350  : 	float yMixi;
; 351  : 	float zMix;
; 352  : 	float zMixi;
; 353  : 
; 354  : 	for(int i = 0; i < octaves; i++)
; 355  : 	{
; 356  : 		maxValue += value;
; 357  : 
; 358  : 		ix = (int)floorf(x);
; 359  : 		ix1 = ix + 1;
; 360  : 		iy = (int)floorf(y);
; 361  : 		iy1 = iy + 1;
; 362  : 		iz = (int)floorf(z);
; 363  : 		iz1 = iz + 1;
; 364  : 		xMix = interpolate(x - ix);
; 365  : 		xMixi = 1.0f - xMix;
; 366  : 		yMix = interpolate(y - iy);
; 367  : 		yMixi = 1.0f - yMix;
; 368  : 		zMix = interpolate(z - iz);
; 369  : 		zMixi = 1.0f - zMix;
; 370  : 
; 371  : 		noise += (noiseAt(ix, iy, iz) * xMix * yMix * zMix
; 372  : 			+ noiseAt(ix1, iy, iz) * xMixi * yMix * zMix
; 373  : 			+ noiseAt(ix, iy1, iz) * xMix * yMixi * zMix
; 374  : 			+ noiseAt(ix1, iy1, iz) * xMixi * yMixi * zMix
; 375  : 			+ noiseAt(ix, iy, iz1) * xMix * yMix * zMixi
; 376  : 			+ noiseAt(ix1, iy, iz1) * xMixi * yMix * zMixi
; 377  : 			+ noiseAt(ix, iy1, iz1) * xMix * yMixi * zMixi
; 378  : 			+ noiseAt(ix1, iy1, iz1) * xMixi * yMixi * zMixi)
; 379  : 			* value;
; 380  : 
; 381  : 		x *= 0.5f;
; 382  : 		y *= 0.5f;
; 383  : 		z *= 0.5f;
; 384  : 		value *= smoothness;
; 385  : 	}
; 386  : 
; 387  : 	return noise / maxValue;
; 388  : }
; 389  : 
; 390  : void NoiseGenerator3D::prepareForCL()
; 391  : {
; 392  : 	noiseMapBuffer.create(sizeof(unsigned char) * size * size * size, CL_MEM_READ_ONLY | CL_MEM_COPY_HOST_PTR, noiseMap);

  0006c	48 63 05 04 00
	00 00		 movsxd	 rax, DWORD PTR ?smoothnessNoise@ChunkLoadThread@@2VNoiseGenerator3D@Noise@@A+4
  00073	4c 8b 0d 28 00
	00 00		 mov	 r9, QWORD PTR ?smoothnessNoise@ChunkLoadThread@@2VNoiseGenerator3D@Noise@@A+40
  0007a	48 8b d0	 mov	 rdx, rax
  0007d	48 8d 0d 10 00
	00 00		 lea	 rcx, OFFSET FLAT:?smoothnessNoise@ChunkLoadThread@@2VNoiseGenerator3D@Noise@@A+16
  00084	41 b8 24 00 00
	00		 mov	 r8d, 36			; 00000024H
  0008a	48 0f af d0	 imul	 rdx, rax
  0008e	48 0f af d0	 imul	 rdx, rax
  00092	e8 00 00 00 00	 call	 ?create@Buffer@cl@@QEAA_N_KHPEAX@Z ; cl::Buffer::create
  00097	48 63 05 04 00
	00 00		 movsxd	 rax, DWORD PTR ?solidNoise@ChunkLoadThread@@2VNoiseGenerator3D@Noise@@A+4
  0009e	4c 8b 0d 28 00
	00 00		 mov	 r9, QWORD PTR ?solidNoise@ChunkLoadThread@@2VNoiseGenerator3D@Noise@@A+40
  000a5	48 8b d0	 mov	 rdx, rax
  000a8	48 8d 0d 10 00
	00 00		 lea	 rcx, OFFSET FLAT:?solidNoise@ChunkLoadThread@@2VNoiseGenerator3D@Noise@@A+16
  000af	41 b8 24 00 00
	00		 mov	 r8d, 36			; 00000024H
  000b5	48 0f af d0	 imul	 rdx, rax
  000b9	48 0f af d0	 imul	 rdx, rax
  000bd	e8 00 00 00 00	 call	 ?create@Buffer@cl@@QEAA_N_KHPEAX@Z ; cl::Buffer::create
  000c2	48 63 05 04 00
	00 00		 movsxd	 rax, DWORD PTR ?stoneNoise@ChunkLoadThread@@2VNoiseGenerator3D@Noise@@A+4
  000c9	4c 8b 0d 28 00
	00 00		 mov	 r9, QWORD PTR ?stoneNoise@ChunkLoadThread@@2VNoiseGenerator3D@Noise@@A+40
  000d0	48 8b d0	 mov	 rdx, rax
  000d3	48 8d 0d 10 00
	00 00		 lea	 rcx, OFFSET FLAT:?stoneNoise@ChunkLoadThread@@2VNoiseGenerator3D@Noise@@A+16
  000da	41 b8 24 00 00
	00		 mov	 r8d, 36			; 00000024H
  000e0	48 0f af d0	 imul	 rdx, rax
  000e4	48 0f af d0	 imul	 rdx, rax
  000e8	e8 00 00 00 00	 call	 ?create@Buffer@cl@@QEAA_N_KHPEAX@Z ; cl::Buffer::create

; 239  : 	noiseMapBuffer.create(sizeof(unsigned char) * size * size, CL_MEM_READ_ONLY | CL_MEM_COPY_HOST_PTR, noiseMap);

  000ed	48 63 15 04 00
	00 00		 movsxd	 rdx, DWORD PTR ?temperatureNoise@ChunkLoadThread@@2VNoiseGenerator2D@Noise@@A+4
  000f4	4c 8b 0d 28 00
	00 00		 mov	 r9, QWORD PTR ?temperatureNoise@ChunkLoadThread@@2VNoiseGenerator2D@Noise@@A+40
  000fb	48 0f af d2	 imul	 rdx, rdx
  000ff	48 8d 0d 10 00
	00 00		 lea	 rcx, OFFSET FLAT:?temperatureNoise@ChunkLoadThread@@2VNoiseGenerator2D@Noise@@A+16
  00106	41 b8 24 00 00
	00		 mov	 r8d, 36			; 00000024H
  0010c	e8 00 00 00 00	 call	 ?create@Buffer@cl@@QEAA_N_KHPEAX@Z ; cl::Buffer::create
  00111	48 63 15 04 00
	00 00		 movsxd	 rdx, DWORD PTR ?humidityNoise@ChunkLoadThread@@2VNoiseGenerator2D@Noise@@A+4
  00118	4c 8b 0d 28 00
	00 00		 mov	 r9, QWORD PTR ?humidityNoise@ChunkLoadThread@@2VNoiseGenerator2D@Noise@@A+40
  0011f	48 0f af d2	 imul	 rdx, rdx
  00123	48 8d 0d 10 00
	00 00		 lea	 rcx, OFFSET FLAT:?humidityNoise@ChunkLoadThread@@2VNoiseGenerator2D@Noise@@A+16
  0012a	41 b8 24 00 00
	00		 mov	 r8d, 36			; 00000024H
; File c:\users\erlend\documents\github\wind\project\wind\wind\chunkloadthread.cpp

; 29   : }

  00130	48 83 c4 48	 add	 rsp, 72			; 00000048H
; File c:\users\erlend\documents\github\wind\project\wind\wind\noise.cpp

; 239  : 	noiseMapBuffer.create(sizeof(unsigned char) * size * size, CL_MEM_READ_ONLY | CL_MEM_COPY_HOST_PTR, noiseMap);

  00134	e9 00 00 00 00	 jmp	 ?create@Buffer@cl@@QEAA_N_KHPEAX@Z ; cl::Buffer::create
?staticInit@ChunkLoadThread@@SAXXZ ENDP			; ChunkLoadThread::staticInit
_TEXT	ENDS
; Function compile flags: /Ogtp
; File c:\users\erlend\documents\github\wind\project\wind\wind\chunkloadthread.cpp
; File c:\users\erlend\documents\github\wind\project\wind\wind\opencl.cpp
; File c:\users\erlend\documents\github\wind\project\wind\wind\chunkloadthread.cpp
; File c:\users\erlend\documents\github\wind\project\wind\wind\opencl.cpp
; File c:\users\erlend\documents\github\wind\project\wind\wind\chunkloadthread.cpp
;	COMDAT ?preStart@ChunkLoadThread@@MEAAXXZ
_TEXT	SEGMENT
error$1 = 32
this$ = 64
?preStart@ChunkLoadThread@@MEAAXXZ PROC			; ChunkLoadThread::preStart, COMDAT

; 32   : {

$LN12:
  00000	40 53		 push	 rbx
  00002	48 83 ec 30	 sub	 rsp, 48			; 00000030H
; File c:\users\erlend\documents\github\wind\project\wind\wind\opencl.cpp

; 55   : 	queue = clCreateCommandQueue(cl::context, cl::device, 0, &error);

  00006	48 8b 15 00 00
	00 00		 mov	 rdx, QWORD PTR ?device@cl@@3PEAU_cl_device_id@@EA ; cl::device
; File c:\users\erlend\documents\github\wind\project\wind\wind\chunkloadthread.cpp

; 32   : {

  0000d	48 8b d9	 mov	 rbx, rcx
; File c:\users\erlend\documents\github\wind\project\wind\wind\opencl.cpp

; 55   : 	queue = clCreateCommandQueue(cl::context, cl::device, 0, &error);

  00010	48 8b 0d 00 00
	00 00		 mov	 rcx, QWORD PTR ?context@cl@@3PEAU_cl_context@@EA ; cl::context
  00017	4c 8d 4c 24 20	 lea	 r9, QWORD PTR error$1[rsp]
  0001c	45 33 c0	 xor	 r8d, r8d
  0001f	c7 44 24 20 00
	00 00 00	 mov	 DWORD PTR error$1[rsp], 0
  00027	ff 15 00 00 00
	00		 call	 QWORD PTR __imp_clCreateCommandQueue

; 56   : 	if(error != CL_SUCCESS)

  0002d	83 7c 24 20 00	 cmp	 DWORD PTR error$1[rsp], 0
  00032	48 89 83 38 08
	00 00		 mov	 QWORD PTR [rbx+2104], rax
  00039	74 0c		 je	 SHORT $LN3@preStart
  0003b	48 8d 4c 24 20	 lea	 rcx, QWORD PTR error$1[rsp]
  00040	e8 00 00 00 00	 call	 ?create@CommandQueue@cl@@QEAA_NXZ ; cl::CommandQueue::create
  00045	eb 07		 jmp	 SHORT $LN4@preStart
$LN3@preStart:

; 57   : 	{
; 58   : 		GLWindow::instance->postError("Could not create command queue: " + to_string(error), "Command queue creation error");
; 59   : 		return false;
; 60   : 	}
; 61   : 
; 62   : 	okay = true;

  00047	c6 83 58 08 00
	00 01		 mov	 BYTE PTR [rbx+2136], 1
$LN4@preStart:
; File c:\users\erlend\documents\github\wind\project\wind\wind\chunkloadthread.cpp

; 34   : 	blockBuffer.create(sizeof(unsigned short) * 16 * 16 * 16, CL_MEM_READ_WRITE);

  0004e	45 33 c9	 xor	 r9d, r9d
  00051	48 8d 8b 60 08
	00 00		 lea	 rcx, QWORD PTR [rbx+2144]
  00058	ba 00 20 00 00	 mov	 edx, 8192		; 00002000H
  0005d	45 8d 41 01	 lea	 r8d, QWORD PTR [r9+1]
  00061	e8 00 00 00 00	 call	 ?create@Buffer@cl@@QEAA_N_KHPEAX@Z ; cl::Buffer::create

; 35   : 	minHeightNoiseBuffer.create(sizeof(float) * 18 * 18, CL_MEM_READ_WRITE);

  00066	45 33 c9	 xor	 r9d, r9d
  00069	48 8d 8b 78 08
	00 00		 lea	 rcx, QWORD PTR [rbx+2168]
  00070	45 8d 41 01	 lea	 r8d, QWORD PTR [r9+1]
  00074	ba 10 05 00 00	 mov	 edx, 1296		; 00000510H
  00079	e8 00 00 00 00	 call	 ?create@Buffer@cl@@QEAA_N_KHPEAX@Z ; cl::Buffer::create

; 36   : 	maxHeightNoiseBuffer.create(sizeof(float) * 18 * 18, CL_MEM_READ_WRITE);

  0007e	45 33 c9	 xor	 r9d, r9d
  00081	48 8d 8b 90 08
	00 00		 lea	 rcx, QWORD PTR [rbx+2192]
  00088	45 8d 41 01	 lea	 r8d, QWORD PTR [r9+1]
  0008c	ba 10 05 00 00	 mov	 edx, 1296		; 00000510H
  00091	e8 00 00 00 00	 call	 ?create@Buffer@cl@@QEAA_N_KHPEAX@Z ; cl::Buffer::create

; 37   : 	smoothnessNoiseBuffer.create(sizeof(float) * 18 * 18 * 18, CL_MEM_READ_WRITE);

  00096	45 33 c9	 xor	 r9d, r9d
  00099	48 8d 8b a8 08
	00 00		 lea	 rcx, QWORD PTR [rbx+2216]
  000a0	45 8d 41 01	 lea	 r8d, QWORD PTR [r9+1]
  000a4	ba 20 5b 00 00	 mov	 edx, 23328		; 00005b20H
  000a9	e8 00 00 00 00	 call	 ?create@Buffer@cl@@QEAA_N_KHPEAX@Z ; cl::Buffer::create

; 38   : 	solidNoiseBuffer.create(sizeof(float) * 18 * 18 * 18, CL_MEM_READ_WRITE);

  000ae	45 33 c9	 xor	 r9d, r9d
  000b1	48 8d 8b c0 08
	00 00		 lea	 rcx, QWORD PTR [rbx+2240]
  000b8	45 8d 41 01	 lea	 r8d, QWORD PTR [r9+1]
  000bc	ba 20 5b 00 00	 mov	 edx, 23328		; 00005b20H
  000c1	e8 00 00 00 00	 call	 ?create@Buffer@cl@@QEAA_N_KHPEAX@Z ; cl::Buffer::create

; 39   : 	stoneNoiseBuffer.create(sizeof(float) * 18 * 18 * 18, CL_MEM_READ_WRITE);

  000c6	45 33 c9	 xor	 r9d, r9d
  000c9	48 8d 8b d8 08
	00 00		 lea	 rcx, QWORD PTR [rbx+2264]
  000d0	45 8d 41 01	 lea	 r8d, QWORD PTR [r9+1]
  000d4	ba 20 5b 00 00	 mov	 edx, 23328		; 00005b20H
  000d9	e8 00 00 00 00	 call	 ?create@Buffer@cl@@QEAA_N_KHPEAX@Z ; cl::Buffer::create

; 40   : 	temperatureNoiseBuffer.create(sizeof(float) * 18 * 18, CL_MEM_READ_WRITE);

  000de	45 33 c9	 xor	 r9d, r9d
  000e1	48 8d 8b f0 08
	00 00		 lea	 rcx, QWORD PTR [rbx+2288]
  000e8	45 8d 41 01	 lea	 r8d, QWORD PTR [r9+1]
  000ec	ba 10 05 00 00	 mov	 edx, 1296		; 00000510H
  000f1	e8 00 00 00 00	 call	 ?create@Buffer@cl@@QEAA_N_KHPEAX@Z ; cl::Buffer::create

; 41   : 	humidityNoiseBuffer.create(sizeof(float) * 18 * 18, CL_MEM_READ_WRITE);

  000f6	45 33 c9	 xor	 r9d, r9d
  000f9	48 8d 8b 08 09
	00 00		 lea	 rcx, QWORD PTR [rbx+2312]
  00100	45 8d 41 01	 lea	 r8d, QWORD PTR [r9+1]
  00104	ba 10 05 00 00	 mov	 edx, 1296		; 00000510H
  00109	e8 00 00 00 00	 call	 ?create@Buffer@cl@@QEAA_N_KHPEAX@Z ; cl::Buffer::create

; 42   : 	caveLinesBuffer.create(sizeof(geom::Line) * 256, CL_MEM_READ_ONLY);

  0010e	45 33 c9	 xor	 r9d, r9d
  00111	48 8d 8b 20 09
	00 00		 lea	 rcx, QWORD PTR [rbx+2336]
  00118	45 8d 41 04	 lea	 r8d, QWORD PTR [r9+4]
  0011c	ba 00 20 00 00	 mov	 edx, 8192		; 00002000H

; 43   : }

  00121	48 83 c4 30	 add	 rsp, 48			; 00000030H
  00125	5b		 pop	 rbx

; 42   : 	caveLinesBuffer.create(sizeof(geom::Line) * 256, CL_MEM_READ_ONLY);

  00126	e9 00 00 00 00	 jmp	 ?create@Buffer@cl@@QEAA_N_KHPEAX@Z ; cl::Buffer::create
?preStart@ChunkLoadThread@@MEAAXXZ ENDP			; ChunkLoadThread::preStart
_TEXT	ENDS
; Function compile flags: /Ogtp
; File c:\users\erlend\documents\github\wind\project\wind\wind\chunkloadthread.cpp
; File c:\program files (x86)\microsoft visual studio 11.0\vc\include\deque
; File c:\users\erlend\documents\github\wind\project\wind\wind\chunkloadthread.cpp
; File c:\program files (x86)\microsoft visual studio 11.0\vc\include\deque
; File c:\program files (x86)\microsoft visual studio 11.0\vc\include\xutility
; File c:\program files (x86)\microsoft visual studio 11.0\vc\include\deque
; File c:\program files (x86)\microsoft visual studio 11.0\vc\include\memory
; File c:\program files (x86)\microsoft visual studio 11.0\vc\include\queue
; File c:\users\erlend\documents\github\wind\project\wind\wind\chunkloadthread.cpp
; File c:\users\erlend\documents\github\wind\project\wind\wind\noise.cpp
; File c:\users\erlend\documents\github\wind\project\wind\wind\chunkloadthread.cpp
; File c:\users\erlend\documents\github\wind\project\wind\wind\world.cpp
; File c:\users\erlend\documents\github\wind\project\wind\wind\geometry.cpp
; File c:\program files (x86)\microsoft visual studio 11.0\vc\include\vector
; File c:\users\erlend\documents\github\wind\project\wind\wind\chunkloadthread.cpp
; File c:\program files (x86)\microsoft visual studio 11.0\vc\include\vector
; File c:\users\erlend\documents\github\wind\project\wind\wind\chunkloadthread.cpp
; File c:\program files (x86)\microsoft visual studio 11.0\vc\include\memory
; File c:\users\erlend\documents\github\wind\project\wind\wind\chunkloadthread.cpp
; File c:\program files (x86)\microsoft visual studio 11.0\vc\include\memory
; File c:\users\erlend\documents\github\wind\project\wind\wind\chunkloadthread.cpp
; File c:\users\erlend\documents\github\wind\project\wind\wind\geometry.cpp
; File c:\users\erlend\documents\github\wind\project\wind\wind\chunkloadthread.cpp
; File c:\users\erlend\documents\github\wind\project\wind\wind\geometry.cpp
; File c:\users\erlend\documents\github\wind\project\wind\wind\chunkloadthread.cpp
; File c:\users\erlend\documents\github\wind\project\wind\wind\geometry.cpp
; File c:\program files (x86)\microsoft visual studio 11.0\vc\include\vector
; File c:\program files (x86)\microsoft visual studio 11.0\vc\include\xmemory0
; File c:\users\erlend\documents\github\wind\project\wind\wind\geometry.cpp
; File c:\program files (x86)\microsoft visual studio 11.0\vc\include\vector
; File c:\program files (x86)\microsoft visual studio 11.0\vc\include\xmemory0
; File c:\users\erlend\documents\github\wind\project\wind\wind\geometry.cpp
; File c:\program files (x86)\microsoft visual studio 11.0\vc\include\vector
; File c:\users\erlend\documents\github\wind\project\wind\wind\chunkloadthread.cpp
; File c:\program files (x86)\microsoft visual studio 11.0\vc\include\memory
; File c:\users\erlend\documents\github\wind\project\wind\wind\chunkloadthread.cpp
; File c:\program files (x86)\microsoft visual studio 11.0\vc\include\vector
; File c:\users\erlend\documents\github\wind\project\wind\wind\chunkloadthread.cpp
; File c:\program files (x86)\microsoft visual studio 11.0\vc\include\xstring
; File c:\program files (x86)\microsoft visual studio 11.0\vc\include\iosfwd
; File c:\program files (x86)\microsoft visual studio 11.0\vc\include\xstring
; File c:\users\erlend\documents\github\wind\project\wind\wind\chunkloadthread.cpp
; File c:\users\erlend\documents\github\wind\project\wind\wind\opencl.cpp
; File c:\users\erlend\documents\github\wind\project\wind\wind\chunkloadthread.cpp
; File c:\users\erlend\documents\github\wind\project\wind\wind\opencl.cpp
; File c:\users\erlend\documents\github\wind\project\wind\wind\chunkloadthread.cpp
; File c:\users\erlend\documents\github\wind\project\wind\wind\opencl.cpp
; File c:\users\erlend\documents\github\wind\project\wind\wind\chunkloadthread.cpp
; File c:\users\erlend\documents\github\wind\project\wind\wind\opencl.cpp
; File c:\users\erlend\documents\github\wind\project\wind\wind\chunkloadthread.cpp
; File c:\users\erlend\documents\github\wind\project\wind\wind\opencl.cpp
; File c:\users\erlend\documents\github\wind\project\wind\wind\chunkloadthread.cpp
; File c:\users\erlend\documents\github\wind\project\wind\wind\opencl.cpp
; File c:\users\erlend\documents\github\wind\project\wind\wind\chunkloadthread.cpp
; File c:\users\erlend\documents\github\wind\project\wind\wind\opencl.cpp
; File c:\users\erlend\documents\github\wind\project\wind\wind\chunkloadthread.cpp
; File c:\users\erlend\documents\github\wind\project\wind\wind\opencl.cpp
; File c:\users\erlend\documents\github\wind\project\wind\wind\chunkloadthread.cpp
; File c:\users\erlend\documents\github\wind\project\wind\wind\opencl.cpp
; File c:\users\erlend\documents\github\wind\project\wind\wind\chunkloadthread.cpp
; File c:\users\erlend\documents\github\wind\project\wind\wind\opencl.cpp
; File c:\users\erlend\documents\github\wind\project\wind\wind\chunkloadthread.cpp
; File c:\program files (x86)\microsoft visual studio 11.0\vc\include\thr\xthread
; File c:\users\erlend\documents\github\wind\project\wind\wind\world.cpp
; File c:\program files (x86)\microsoft visual studio 11.0\vc\include\thr\xthread
; File c:\program files (x86)\microsoft visual studio 11.0\vc\include\memory
; File c:\users\erlend\documents\github\wind\project\wind\wind\chunkloadthread.cpp
; File c:\users\erlend\documents\github\wind\project\wind\wind\world.cpp
; File c:\program files (x86)\microsoft visual studio 11.0\vc\include\memory
; File c:\users\erlend\documents\github\wind\project\wind\wind\chunkdrawthread.cpp
; File c:\program files (x86)\microsoft visual studio 11.0\vc\include\thr\xthread
; File c:\program files (x86)\microsoft visual studio 11.0\vc\include\queue
; File c:\program files (x86)\microsoft visual studio 11.0\vc\include\thr\xthread
; File c:\program files (x86)\microsoft visual studio 11.0\vc\include\memory
; File c:\users\erlend\documents\github\wind\project\wind\wind\chunkloadthread.cpp
; File c:\program files (x86)\microsoft visual studio 11.0\vc\include\vector
; File c:\program files (x86)\microsoft visual studio 11.0\vc\include\xmemory0
; File c:\program files (x86)\microsoft visual studio 11.0\vc\include\vector
; File c:\program files (x86)\microsoft visual studio 11.0\vc\include\xmemory0
; File c:\program files (x86)\microsoft visual studio 11.0\vc\include\memory
; File c:\program files (x86)\microsoft visual studio 11.0\vc\include\xmemory0
; File c:\program files (x86)\microsoft visual studio 11.0\vc\include\memory
; File c:\users\erlend\documents\github\wind\project\wind\wind\chunkloadthread.cpp
;	COMDAT ?tick@ChunkLoadThread@@MEAA_NXZ
_TEXT	SEGMENT
chunkX$ = 112
chunkZ$ = 116
boundingBox$1$ = 120
chunkY$ = 124
lines$ = 128
tv3591 = 152
i$1$ = 156
tv3589 = 160
tv3590 = 164
c$1 = 168
$T2 = 184
amountOfLines$ = 200
$T3 = 208
tv3615 = 224
$T4 = 224
boundingBox$ = 232
$T5 = 264
caves$1$ = 272
$T6 = 280
$T7 = 320
caves$ = 336
$T8 = 360
$T9 = 376
this$GSCopy$1$ = 392
tv3613 = 400
$T10 = 408
$T11 = 424
$T12 = 440
$T13 = 472
chunk$ = 480
cave$14 = 496
$T15 = 512
global_ws$ = 536
local_ws$ = 560
__$ArrayPad$ = 584
this$ = 800
?tick@ChunkLoadThread@@MEAA_NXZ PROC			; ChunkLoadThread::tick, COMDAT

; 46   : {

$LN694:
  00000	48 8b c4	 mov	 rax, rsp
  00003	55		 push	 rbp
  00004	41 54		 push	 r12
  00006	41 55		 push	 r13
  00008	41 56		 push	 r14
  0000a	41 57		 push	 r15
  0000c	48 8d a8 e8 fd
	ff ff		 lea	 rbp, QWORD PTR [rax-536]
  00013	48 81 ec f0 02
	00 00		 sub	 rsp, 752		; 000002f0H
  0001a	48 c7 85 d8 00
	00 00 fe ff ff
	ff		 mov	 QWORD PTR $T13[rbp-256], -2
  00025	48 89 58 10	 mov	 QWORD PTR [rax+16], rbx
  00029	48 89 70 18	 mov	 QWORD PTR [rax+24], rsi
  0002d	48 89 78 20	 mov	 QWORD PTR [rax+32], rdi
  00031	0f 29 70 c8	 movaps	 XMMWORD PTR [rax-56], xmm6
  00035	0f 29 78 b8	 movaps	 XMMWORD PTR [rax-72], xmm7
  00039	44 0f 29 40 a8	 movaps	 XMMWORD PTR [rax-88], xmm8
  0003e	44 0f 29 48 98	 movaps	 XMMWORD PTR [rax-104], xmm9
  00043	44 0f 29 50 88	 movaps	 XMMWORD PTR [rax-120], xmm10
  00048	44 0f 29 98 78
	ff ff ff	 movaps	 XMMWORD PTR [rax-136], xmm11
  00050	44 0f 29 a0 68
	ff ff ff	 movaps	 XMMWORD PTR [rax-152], xmm12
  00058	44 0f 29 a8 58
	ff ff ff	 movaps	 XMMWORD PTR [rax-168], xmm13
  00060	44 0f 29 b0 48
	ff ff ff	 movaps	 XMMWORD PTR [rax-184], xmm14
  00068	44 0f 29 b8 38
	ff ff ff	 movaps	 XMMWORD PTR [rax-200], xmm15
  00070	48 8b 05 00 00
	00 00		 mov	 rax, QWORD PTR __security_cookie
  00077	48 33 c4	 xor	 rax, rsp
  0007a	48 89 85 48 01
	00 00		 mov	 QWORD PTR __$ArrayPad$[rbp-256], rax
  00081	4c 8b f1	 mov	 r14, rcx
  00084	48 89 8d 88 00
	00 00		 mov	 QWORD PTR this$GSCopy$1$[rbp-256], rcx
; File c:\program files (x86)\microsoft visual studio 11.0\vc\include\deque

; 1382 : 		return (this->_Mysize == 0);

  0008b	48 83 b9 58 09
	00 00 00	 cmp	 QWORD PTR [rcx+2392], 0
; File c:\users\erlend\documents\github\wind\project\wind\wind\chunkloadthread.cpp

; 47   : 	if(ChunkLoadThread::loadQueue.empty())

  00093	0f 84 a1 0e 00
	00		 je	 $LN659@tick
; File c:\program files (x86)\microsoft visual studio 11.0\vc\include\deque

; 1426 : 		return (*begin());

  00099	48 8d 95 00 01
	00 00		 lea	 rdx, QWORD PTR $T15[rbp-256]
  000a0	48 81 c1 38 09
	00 00		 add	 rcx, 2360		; 00000938H
  000a7	e8 00 00 00 00	 call	 ?begin@?$deque@V?$shared_ptr@VChunkBase@@@std@@V?$allocator@V?$shared_ptr@VChunkBase@@@std@@@2@@std@@QEAA?AV?$_Deque_iterator@V?$_Deque_val@U?$_Deque_simple_types@V?$shared_ptr@VChunkBase@@@std@@@std@@@std@@@2@XZ ; std::deque<std::shared_ptr<ChunkBase>,std::allocator<std::shared_ptr<ChunkBase> > >::begin
  000ac	48 8b c8	 mov	 rcx, rax
; File c:\program files (x86)\microsoft visual studio 11.0\vc\include\xutility

; 178  : 		return (_Myproxy == 0 ? 0 : _Myproxy->_Mycont);

  000af	48 8b 00	 mov	 rax, QWORD PTR [rax]
  000b2	48 85 c0	 test	 rax, rax
  000b5	74 03		 je	 SHORT $LN63@tick
  000b7	48 8b 00	 mov	 rax, QWORD PTR [rax]
$LN63@tick:
; File c:\program files (x86)\microsoft visual studio 11.0\vc\include\deque

; 787  : 		return ((_Off / _DEQUESIZ) & (this->_Mapsize - 1));

  000ba	48 8b 50 10	 mov	 rdx, QWORD PTR [rax+16]
  000be	48 ff ca	 dec	 rdx
  000c1	48 23 51 10	 and	 rdx, QWORD PTR [rcx+16]

; 1426 : 		return (*begin());

  000c5	48 8b 40 08	 mov	 rax, QWORD PTR [rax+8]
  000c9	48 8b 14 d0	 mov	 rdx, QWORD PTR [rax+rdx*8]
; File c:\program files (x86)\microsoft visual studio 11.0\vc\include\memory

; 357  : 		_Reset(_Other._Ptr, _Other._Rep);

  000cd	4c 8b 6a 08	 mov	 r13, QWORD PTR [rdx+8]
  000d1	4c 89 6d 08	 mov	 QWORD PTR $T5[rbp-256], r13
  000d5	4c 8b 22	 mov	 r12, QWORD PTR [rdx]

; 358  : 		}
; 359  : 
; 360  : 	template<class _Ty2>
; 361  : 		void _Reset(const _Ptr_base<_Ty2>& _Other, bool _Throw)
; 362  : 		{	// release resource and take ownership from weak_ptr _Other._Ptr
; 363  : 		_Reset(_Other._Ptr, _Other._Rep, _Throw);
; 364  : 		}
; 365  : 
; 366  : 	template<class _Ty2>
; 367  : 		void _Reset(const _Ptr_base<_Ty2>& _Other, const _Static_tag&)
; 368  : 		{	// release resource and take ownership of _Other._Ptr
; 369  : 		_Reset(static_cast<_Elem *>(_Other._Ptr), _Other._Rep);
; 370  : 		}
; 371  : 
; 372  : 	template<class _Ty2>
; 373  : 		void _Reset(const _Ptr_base<_Ty2>& _Other, const _Const_tag&)
; 374  : 		{	// release resource and take ownership of _Other._Ptr
; 375  : 		_Reset(const_cast<_Elem *>(_Other._Ptr), _Other._Rep);
; 376  : 		}
; 377  : 
; 378  : 	template<class _Ty2>
; 379  : 		void _Reset(const _Ptr_base<_Ty2>& _Other, const _Dynamic_tag&)
; 380  : 		{	// release resource and take ownership of _Other._Ptr
; 381  : 		_Elem *_Ptr = dynamic_cast<_Elem *>(_Other._Ptr);
; 382  : 		if (_Ptr)
; 383  : 			_Reset(_Ptr, _Other._Rep);
; 384  : 		else
; 385  : 			_Reset();
; 386  : 		}
; 387  : 
; 388  : 	template<class _Ty2>
; 389  : 		void _Reset(auto_ptr<_Ty2>&& _Other)
; 390  : 		{	// release resource and take _Other.get()
; 391  : 		_Ty2 *_Px = _Other.get();
; 392  : 		_Reset0(_Px, new _Ref_count<_Elem>(_Px));
; 393  : 		_Other.release();
; 394  : 		_Enable_shared(_Px, _Rep);
; 395  : 		}
; 396  : 
; 397  :  #if _HAS_CPP0X
; 398  : 	template<class _Ty2>
; 399  : 		void _Reset(_Ty *_Ptr, const _Ptr_base<_Ty2>& _Other)
; 400  : 		{	// release resource and alias _Ptr with _Other_rep
; 401  : 		_Reset(_Ptr, _Other._Rep);
; 402  : 		}
; 403  :  #endif /* _HAS_CPP0X */
; 404  : 
; 405  : 	void _Reset(_Ty *_Other_ptr, _Ref_count_base *_Other_rep)
; 406  : 		{	// release resource and take _Other_ptr through _Other_rep
; 407  : 		if (_Other_rep)

  000d8	4d 85 ed	 test	 r13, r13
  000db	74 05		 je	 SHORT $LN83@tick

; 108  : 		_MT_INCR(_Ignored, _Uses);

  000dd	f0 41 ff 45 08	 lock inc DWORD PTR [r13+8]
$LN83@tick:

; 426  : 		_Rep = _Other_rep;

  000e2	4c 89 ad e8 00
	00 00		 mov	 QWORD PTR chunk$[rbp-248], r13

; 427  : 		_Ptr = _Other_ptr;

  000e9	4c 89 a5 e0 00
	00 00		 mov	 QWORD PTR chunk$[rbp-256], r12
; File c:\program files (x86)\microsoft visual studio 11.0\vc\include\queue

; 160  : 		c.pop_front();

  000f0	49 8d 8e 38 09
	00 00		 lea	 rcx, QWORD PTR [r14+2360]
  000f7	e8 00 00 00 00	 call	 ?pop_front@?$deque@V?$shared_ptr@VChunkBase@@@std@@V?$allocator@V?$shared_ptr@VChunkBase@@@std@@@2@@std@@QEAAXXZ ; std::deque<std::shared_ptr<ChunkBase>,std::allocator<std::shared_ptr<ChunkBase> > >::pop_front
; File c:\users\erlend\documents\github\wind\project\wind\wind\chunkloadthread.cpp

; 55   : 	const int chunkX = chunk->pos.x;

  000fc	41 8b 54 24 18	 mov	 edx, DWORD PTR [r12+24]
  00101	89 54 24 70	 mov	 DWORD PTR chunkX$[rsp], edx

; 56   : 	const int chunkY = chunk->pos.y;

  00105	41 8b 4c 24 1c	 mov	 ecx, DWORD PTR [r12+28]
  0010a	89 4c 24 7c	 mov	 DWORD PTR chunkY$[rsp], ecx

; 57   : 	const int chunkZ = chunk->pos.z;

  0010e	41 8b 44 24 20	 mov	 eax, DWORD PTR [r12+32]
  00113	89 44 24 74	 mov	 DWORD PTR chunkZ$[rsp], eax
  00117	66 0f 6e d0	 movd	 xmm2, eax

; 58   : 
; 59   : 	smoothnessNoise.fillNoiseBuffer(queue, smoothnessNoiseBuffer, 18, 18, 18, chunkX * 16.0f - 1.0f, chunkY * 16.0f - 1.0f, chunkZ * 16.0f - 1.0f, 16.0f, 16.0f, 16.0f);

  0011b	0f 5b d2	 cvtdq2ps xmm2, xmm2
  0011e	f3 44 0f 10 15
	00 00 00 00	 movss	 xmm10, DWORD PTR __real@41800000
  00127	f3 41 0f 59 d2	 mulss	 xmm2, xmm10
  0012c	f3 44 0f 10 0d
	00 00 00 00	 movss	 xmm9, DWORD PTR __real@3f800000
  00135	f3 41 0f 5c d1	 subss	 xmm2, xmm9
  0013a	66 0f 6e c9	 movd	 xmm1, ecx
  0013e	0f 5b c9	 cvtdq2ps xmm1, xmm1
  00141	f3 41 0f 59 ca	 mulss	 xmm1, xmm10
  00146	f3 41 0f 5c c9	 subss	 xmm1, xmm9
  0014b	66 0f 6e c2	 movd	 xmm0, edx
  0014f	0f 5b c0	 cvtdq2ps xmm0, xmm0
  00152	f3 41 0f 59 c2	 mulss	 xmm0, xmm10
  00157	f3 41 0f 5c c1	 subss	 xmm0, xmm9
  0015c	49 8d 9e a8 08
	00 00		 lea	 rbx, QWORD PTR [r14+2216]
  00163	4d 8d be 38 08
	00 00		 lea	 r15, QWORD PTR [r14+2104]
  0016a	4c 89 7d e0	 mov	 QWORD PTR tv3615[rbp-256], r15
; File c:\users\erlend\documents\github\wind\project\wind\wind\noise.cpp

; 397  : 	fillNoiseBuffer(queue, buffer, xs, ys, zs, smoothness, x, y, z, xd, yd, zd);

  0016e	f3 44 0f 11 54
	24 60		 movss	 DWORD PTR [rsp+96], xmm10
  00175	f3 44 0f 11 54
	24 58		 movss	 DWORD PTR [rsp+88], xmm10
  0017c	f3 44 0f 11 54
	24 50		 movss	 DWORD PTR [rsp+80], xmm10
  00183	f3 0f 11 54 24
	48		 movss	 DWORD PTR [rsp+72], xmm2
  00189	f3 0f 11 4c 24
	40		 movss	 DWORD PTR [rsp+64], xmm1
  0018f	f3 0f 11 44 24
	38		 movss	 DWORD PTR [rsp+56], xmm0
  00195	f3 0f 10 05 0c
	00 00 00	 movss	 xmm0, DWORD PTR ?smoothnessNoise@ChunkLoadThread@@2VNoiseGenerator3D@Noise@@A+12
  0019d	f3 0f 11 44 24
	30		 movss	 DWORD PTR [rsp+48], xmm0
  001a3	4c 8b c3	 mov	 r8, rbx
  001a6	49 8b d7	 mov	 rdx, r15
  001a9	48 8d 0d 00 00
	00 00		 lea	 rcx, OFFSET FLAT:?smoothnessNoise@ChunkLoadThread@@2VNoiseGenerator3D@Noise@@A ; ChunkLoadThread::smoothnessNoise
  001b0	e8 00 00 00 00	 call	 ?fillNoiseBuffer@NoiseGenerator3D@Noise@@QEAAXAEAVCommandQueue@cl@@AEAVBuffer@4@IIIMMMMMMM@Z ; Noise::NoiseGenerator3D::fillNoiseBuffer
; File c:\users\erlend\documents\github\wind\project\wind\wind\chunkloadthread.cpp

; 60   : 	queue.sync();

  001b5	49 8b cf	 mov	 rcx, r15
  001b8	e8 00 00 00 00	 call	 ?sync@CommandQueue@cl@@QEAA_NXZ ; cl::CommandQueue::sync
  001bd	66 0f 6e 4c 24
	74		 movd	 xmm1, DWORD PTR chunkZ$[rsp]

; 61   : 	minHeightNoise.fillNoiseBuffer(queue, minHeightNoiseBuffer, 18, 18, 2.0f, chunkX * 16.0f - 1.0f, chunkZ * 16.0f - 1.0f, 4.0f, 4.0f);

  001c3	0f 5b c9	 cvtdq2ps xmm1, xmm1
  001c6	f3 41 0f 59 ca	 mulss	 xmm1, xmm10
  001cb	f3 41 0f 5c c9	 subss	 xmm1, xmm9
  001d0	66 0f 6e 44 24
	70		 movd	 xmm0, DWORD PTR chunkX$[rsp]
  001d6	0f 5b c0	 cvtdq2ps xmm0, xmm0
  001d9	f3 41 0f 59 c2	 mulss	 xmm0, xmm10
  001de	f3 41 0f 5c c1	 subss	 xmm0, xmm9
  001e3	4d 8d 86 78 08
	00 00		 lea	 r8, QWORD PTR [r14+2168]
  001ea	f3 44 0f 10 05
	00 00 00 00	 movss	 xmm8, DWORD PTR __real@40800000
  001f3	f3 44 0f 11 44
	24 48		 movss	 DWORD PTR [rsp+72], xmm8
  001fa	f3 44 0f 11 44
	24 40		 movss	 DWORD PTR [rsp+64], xmm8
  00201	f3 0f 11 4c 24
	38		 movss	 DWORD PTR [rsp+56], xmm1
  00207	f3 0f 11 44 24
	30		 movss	 DWORD PTR [rsp+48], xmm0
  0020d	f3 0f 10 3d 00
	00 00 00	 movss	 xmm7, DWORD PTR __real@40000000
  00215	f3 0f 11 7c 24
	28		 movss	 DWORD PTR [rsp+40], xmm7
  0021b	49 8b d7	 mov	 rdx, r15
  0021e	48 8d 0d 00 00
	00 00		 lea	 rcx, OFFSET FLAT:?minHeightNoise@ChunkLoadThread@@2VNoiseGenerator2D@Noise@@A ; ChunkLoadThread::minHeightNoise
  00225	e8 00 00 00 00	 call	 ?fillNoiseBuffer@NoiseGenerator2D@Noise@@QEAAXAEAVCommandQueue@cl@@AEAVBuffer@4@IIMMMMM@Z ; Noise::NoiseGenerator2D::fillNoiseBuffer
  0022a	66 0f 6e 4c 24
	74		 movd	 xmm1, DWORD PTR chunkZ$[rsp]

; 62   : 	maxHeightNoise.fillNoiseBuffer(queue, maxHeightNoiseBuffer, 18, 18, 2.0f, chunkX * 16.0f - 1.0f, chunkZ * 16.0f - 1.0f, 4.0f, 4.0f);

  00230	0f 5b c9	 cvtdq2ps xmm1, xmm1
  00233	f3 41 0f 59 ca	 mulss	 xmm1, xmm10
  00238	f3 41 0f 5c c9	 subss	 xmm1, xmm9
  0023d	66 0f 6e 44 24
	70		 movd	 xmm0, DWORD PTR chunkX$[rsp]
  00243	0f 5b c0	 cvtdq2ps xmm0, xmm0
  00246	f3 41 0f 59 c2	 mulss	 xmm0, xmm10
  0024b	f3 41 0f 5c c1	 subss	 xmm0, xmm9
  00250	4d 8d 86 90 08
	00 00		 lea	 r8, QWORD PTR [r14+2192]
  00257	f3 44 0f 11 44
	24 48		 movss	 DWORD PTR [rsp+72], xmm8
  0025e	f3 44 0f 11 44
	24 40		 movss	 DWORD PTR [rsp+64], xmm8
  00265	f3 0f 11 4c 24
	38		 movss	 DWORD PTR [rsp+56], xmm1
  0026b	f3 0f 11 44 24
	30		 movss	 DWORD PTR [rsp+48], xmm0
  00271	f3 0f 11 7c 24
	28		 movss	 DWORD PTR [rsp+40], xmm7
  00277	49 8b d7	 mov	 rdx, r15
  0027a	48 8d 0d 00 00
	00 00		 lea	 rcx, OFFSET FLAT:?maxHeightNoise@ChunkLoadThread@@2VNoiseGenerator2D@Noise@@A ; ChunkLoadThread::maxHeightNoise
  00281	e8 00 00 00 00	 call	 ?fillNoiseBuffer@NoiseGenerator2D@Noise@@QEAAXAEAVCommandQueue@cl@@AEAVBuffer@4@IIMMMMM@Z ; Noise::NoiseGenerator2D::fillNoiseBuffer
  00286	66 0f 6e 5c 24
	74		 movd	 xmm3, DWORD PTR chunkZ$[rsp]

; 63   : 	solidNoise.fillNoiseBufferWithSmoothness(queue, solidNoiseBuffer, 18, 18, 18, smoothnessNoiseBuffer, chunkX * 16.0f - 1.0f, chunkY * 16.0f - 1.0f, chunkZ * 16.0f - 1.0f, 20.0f, 25.0f, 20.0f);

  0028c	0f 5b db	 cvtdq2ps xmm3, xmm3
  0028f	f3 41 0f 59 da	 mulss	 xmm3, xmm10
  00294	f3 41 0f 5c d9	 subss	 xmm3, xmm9
  00299	66 0f 6e 54 24
	7c		 movd	 xmm2, DWORD PTR chunkY$[rsp]
  0029f	0f 5b d2	 cvtdq2ps xmm2, xmm2
  002a2	f3 41 0f 59 d2	 mulss	 xmm2, xmm10
  002a7	f3 41 0f 5c d1	 subss	 xmm2, xmm9
  002ac	66 0f 6e 4c 24
	70		 movd	 xmm1, DWORD PTR chunkX$[rsp]
  002b2	0f 5b c9	 cvtdq2ps xmm1, xmm1
  002b5	f3 41 0f 59 ca	 mulss	 xmm1, xmm10
  002ba	f3 41 0f 5c c9	 subss	 xmm1, xmm9
  002bf	4d 8d 86 c0 08
	00 00		 lea	 r8, QWORD PTR [r14+2240]
  002c6	f3 0f 10 35 00
	00 00 00	 movss	 xmm6, DWORD PTR __real@41a00000
  002ce	f3 0f 11 74 24
	60		 movss	 DWORD PTR [rsp+96], xmm6
  002d4	f3 0f 10 05 00
	00 00 00	 movss	 xmm0, DWORD PTR __real@41c80000
  002dc	f3 0f 11 44 24
	58		 movss	 DWORD PTR [rsp+88], xmm0
  002e2	f3 0f 11 74 24
	50		 movss	 DWORD PTR [rsp+80], xmm6
  002e8	f3 0f 11 5c 24
	48		 movss	 DWORD PTR [rsp+72], xmm3
  002ee	f3 0f 11 54 24
	40		 movss	 DWORD PTR [rsp+64], xmm2
  002f4	f3 0f 11 4c 24
	38		 movss	 DWORD PTR [rsp+56], xmm1
  002fa	48 89 5c 24 30	 mov	 QWORD PTR [rsp+48], rbx
  002ff	49 8b d7	 mov	 rdx, r15
  00302	e8 00 00 00 00	 call	 ?fillNoiseBufferWithSmoothness@NoiseGenerator3D@Noise@@QEAAXAEAVCommandQueue@cl@@AEAVBuffer@4@III1MMMMMM@Z ; Noise::NoiseGenerator3D::fillNoiseBufferWithSmoothness
  00307	66 0f 6e 54 24
	74		 movd	 xmm2, DWORD PTR chunkZ$[rsp]

; 64   : 	stoneNoise.fillNoiseBuffer(queue, stoneNoiseBuffer, 18, 18, 18, 2.0f, chunkX * 16.0f - 1.0f, chunkY * 16.0f - 1.0f, chunkZ * 16.0f - 1.0f, 20.0f, 20.0f, 20.0f);

  0030d	0f 5b d2	 cvtdq2ps xmm2, xmm2
  00310	f3 41 0f 59 d2	 mulss	 xmm2, xmm10
  00315	f3 41 0f 5c d1	 subss	 xmm2, xmm9
  0031a	66 0f 6e 4c 24
	7c		 movd	 xmm1, DWORD PTR chunkY$[rsp]
  00320	0f 5b c9	 cvtdq2ps xmm1, xmm1
  00323	f3 41 0f 59 ca	 mulss	 xmm1, xmm10
  00328	f3 41 0f 5c c9	 subss	 xmm1, xmm9
  0032d	66 0f 6e 44 24
	70		 movd	 xmm0, DWORD PTR chunkX$[rsp]
  00333	0f 5b c0	 cvtdq2ps xmm0, xmm0
  00336	f3 41 0f 59 c2	 mulss	 xmm0, xmm10
  0033b	f3 41 0f 5c c1	 subss	 xmm0, xmm9
  00340	4d 8d 86 d8 08
	00 00		 lea	 r8, QWORD PTR [r14+2264]
  00347	f3 0f 11 74 24
	60		 movss	 DWORD PTR [rsp+96], xmm6
  0034d	f3 0f 11 74 24
	58		 movss	 DWORD PTR [rsp+88], xmm6
  00353	f3 0f 11 74 24
	50		 movss	 DWORD PTR [rsp+80], xmm6
  00359	f3 0f 11 54 24
	48		 movss	 DWORD PTR [rsp+72], xmm2
  0035f	f3 0f 11 4c 24
	40		 movss	 DWORD PTR [rsp+64], xmm1
  00365	f3 0f 11 44 24
	38		 movss	 DWORD PTR [rsp+56], xmm0
  0036b	f3 0f 11 7c 24
	30		 movss	 DWORD PTR [rsp+48], xmm7
  00371	49 8b d7	 mov	 rdx, r15
  00374	48 8d 0d 00 00
	00 00		 lea	 rcx, OFFSET FLAT:?stoneNoise@ChunkLoadThread@@2VNoiseGenerator3D@Noise@@A ; ChunkLoadThread::stoneNoise
  0037b	e8 00 00 00 00	 call	 ?fillNoiseBuffer@NoiseGenerator3D@Noise@@QEAAXAEAVCommandQueue@cl@@AEAVBuffer@4@IIIMMMMMMM@Z ; Noise::NoiseGenerator3D::fillNoiseBuffer
  00380	66 0f 6e 4c 24
	74		 movd	 xmm1, DWORD PTR chunkZ$[rsp]

; 65   : 	temperatureNoise.fillNoiseBuffer(queue, temperatureNoiseBuffer, 18, 18, 2.0f, chunkX * 16.0f - 1.0f, chunkZ * 16.0f - 1.0f, 4.0f, 4.0f);

  00386	0f 5b c9	 cvtdq2ps xmm1, xmm1
  00389	f3 41 0f 59 ca	 mulss	 xmm1, xmm10
  0038e	f3 41 0f 5c c9	 subss	 xmm1, xmm9
  00393	66 0f 6e 44 24
	70		 movd	 xmm0, DWORD PTR chunkX$[rsp]
  00399	0f 5b c0	 cvtdq2ps xmm0, xmm0
  0039c	f3 41 0f 59 c2	 mulss	 xmm0, xmm10
  003a1	f3 41 0f 5c c1	 subss	 xmm0, xmm9
  003a6	4d 8d 86 f0 08
	00 00		 lea	 r8, QWORD PTR [r14+2288]
  003ad	f3 44 0f 11 44
	24 48		 movss	 DWORD PTR [rsp+72], xmm8
  003b4	f3 44 0f 11 44
	24 40		 movss	 DWORD PTR [rsp+64], xmm8
  003bb	f3 0f 11 4c 24
	38		 movss	 DWORD PTR [rsp+56], xmm1
  003c1	f3 0f 11 44 24
	30		 movss	 DWORD PTR [rsp+48], xmm0
  003c7	f3 0f 11 7c 24
	28		 movss	 DWORD PTR [rsp+40], xmm7
  003cd	49 8b d7	 mov	 rdx, r15
  003d0	48 8d 0d 00 00
	00 00		 lea	 rcx, OFFSET FLAT:?temperatureNoise@ChunkLoadThread@@2VNoiseGenerator2D@Noise@@A ; ChunkLoadThread::temperatureNoise
  003d7	e8 00 00 00 00	 call	 ?fillNoiseBuffer@NoiseGenerator2D@Noise@@QEAAXAEAVCommandQueue@cl@@AEAVBuffer@4@IIMMMMM@Z ; Noise::NoiseGenerator2D::fillNoiseBuffer
  003dc	66 0f 6e 4c 24
	74		 movd	 xmm1, DWORD PTR chunkZ$[rsp]

; 66   : 	humidityNoise.fillNoiseBuffer(queue, humidityNoiseBuffer, 18, 18, 2.0f, chunkX * 16.0f - 1.0f, chunkZ * 16.0f - 1.0f, 4.0f, 4.0f);

  003e2	0f 5b c9	 cvtdq2ps xmm1, xmm1
  003e5	f3 41 0f 59 ca	 mulss	 xmm1, xmm10
  003ea	f3 41 0f 5c c9	 subss	 xmm1, xmm9
  003ef	66 0f 6e 44 24
	70		 movd	 xmm0, DWORD PTR chunkX$[rsp]
  003f5	0f 5b c0	 cvtdq2ps xmm0, xmm0
  003f8	f3 41 0f 59 c2	 mulss	 xmm0, xmm10
  003fd	f3 41 0f 5c c1	 subss	 xmm0, xmm9
  00402	4d 8d 86 08 09
	00 00		 lea	 r8, QWORD PTR [r14+2312]
  00409	f3 44 0f 11 44
	24 48		 movss	 DWORD PTR [rsp+72], xmm8
  00410	f3 44 0f 11 44
	24 40		 movss	 DWORD PTR [rsp+64], xmm8
  00417	f3 0f 11 4c 24
	38		 movss	 DWORD PTR [rsp+56], xmm1
  0041d	f3 0f 11 44 24
	30		 movss	 DWORD PTR [rsp+48], xmm0
  00423	f3 0f 11 7c 24
	28		 movss	 DWORD PTR [rsp+40], xmm7
  00429	49 8b d7	 mov	 rdx, r15
  0042c	48 8d 0d 00 00
	00 00		 lea	 rcx, OFFSET FLAT:?humidityNoise@ChunkLoadThread@@2VNoiseGenerator2D@Noise@@A ; ChunkLoadThread::humidityNoise
  00433	e8 00 00 00 00	 call	 ?fillNoiseBuffer@NoiseGenerator2D@Noise@@QEAAXAEAVCommandQueue@cl@@AEAVBuffer@4@IIMMMMM@Z ; Noise::NoiseGenerator2D::fillNoiseBuffer

; 67   : 
; 68   : 	std::vector<std::shared_ptr<Cave>> caves = CaveCache::getCavesInRegion(chunk->pos);

  00438	41 8b 44 24 18	 mov	 eax, DWORD PTR [r12+24]
  0043d	89 45 40	 mov	 DWORD PTR $T7[rbp-256], eax
  00440	41 8b 44 24 1c	 mov	 eax, DWORD PTR [r12+28]
  00445	89 45 44	 mov	 DWORD PTR $T7[rbp-252], eax
  00448	41 8b 44 24 20	 mov	 eax, DWORD PTR [r12+32]
  0044d	89 45 48	 mov	 DWORD PTR $T7[rbp-248], eax
  00450	48 8d 55 40	 lea	 rdx, QWORD PTR $T7[rbp-256]
  00454	48 8d 4d 50	 lea	 rcx, QWORD PTR caves$[rbp-256]
  00458	e8 00 00 00 00	 call	 ?getCavesInRegion@CaveCache@@SA?AV?$vector@V?$shared_ptr@VCave@@@std@@V?$allocator@V?$shared_ptr@VCave@@@std@@@2@@std@@VChunkPosition@@@Z ; CaveCache::getCavesInRegion
  0045d	90		 npad	 1
  0045e	66 41 0f 6e 5c
	24 20		 movd	 xmm3, DWORD PTR [r12+32]
; File c:\users\erlend\documents\github\wind\project\wind\wind\world.cpp

; 105  : 	return geom::AxisAlignedCube(geom::Vector(pos.x, pos.y, pos.z) * 16.0f, geom::Vector(16.0f, 16.0f, 16.0f));

  00465	0f 5b db	 cvtdq2ps xmm3, xmm3
  00468	66 45 0f 6e 7c
	24 1c		 movd	 xmm15, DWORD PTR [r12+28]
  0046f	45 0f 5b ff	 cvtdq2ps xmm15, xmm15
  00473	66 45 0f 6e 74
	24 18		 movd	 xmm14, DWORD PTR [r12+24]
  0047a	45 0f 5b f6	 cvtdq2ps xmm14, xmm14
; File c:\users\erlend\documents\github\wind\project\wind\wind\geometry.cpp

; 63   : 	return Vector(x * f, y * f, z * f);

  0047e	f3 41 0f 59 da	 mulss	 xmm3, xmm10
  00483	f3 45 0f 59 fa	 mulss	 xmm15, xmm10
  00488	f3 45 0f 59 f2	 mulss	 xmm14, xmm10

; 11   : 	
; 12   : }
; 13   : 
; 14   : Vector::Vector(float x, float y, float z, float w)
; 15   : 	: x(x), y(y), z(z), w(w)
; 16   : {
; 17   : 	
; 18   : }
; 19   : 
; 20   : Vector Vector::normalize()
; 21   : {
; 22   : 	return *this /= ~*this;
; 23   : }
; 24   : 
; 25   : Vector Vector::wDivide()
; 26   : {
; 27   : 	x /= w;
; 28   : 	y /= w;
; 29   : 	z /= w;
; 30   : 	return *this;
; 31   : }
; 32   : 
; 33   : Vector Vector::operator+(const Vector &vec) const
; 34   : {
; 35   : 	return Vector(x + vec.x, y + vec.y, z + vec.z);
; 36   : }
; 37   : 
; 38   : Vector Vector::operator-(const Vector &vec) const
; 39   : {
; 40   : 	return Vector(x - vec.x, y - vec.y, z - vec.z);

  0048d	f3 0f 10 05 00
	00 00 00	 movss	 xmm0, DWORD PTR __real@41000000
  00495	f3 0f 5c d8	 subss	 xmm3, xmm0
  00499	f3 0f 11 5c 24
	78		 movss	 DWORD PTR boundingBox$1$[rsp], xmm3
  0049f	f3 44 0f 5c f8	 subss	 xmm15, xmm0
  004a4	f3 44 0f 5c f0	 subss	 xmm14, xmm0

; 10   : {

  004a9	f3 44 0f 11 75
	e8		 movss	 DWORD PTR boundingBox$[rbp-256], xmm14
  004af	f3 44 0f 11 7d
	ec		 movss	 DWORD PTR boundingBox$[rbp-252], xmm15
  004b5	f3 0f 11 5d f0	 movss	 DWORD PTR boundingBox$[rbp-248], xmm3
; File c:\program files (x86)\microsoft visual studio 11.0\vc\include\vector

; 486  : 		_Myfirst = pointer();

  004ba	45 33 d2	 xor	 r10d, r10d
  004bd	4c 89 55 80	 mov	 QWORD PTR lines$[rbp-256], r10

; 487  : 		_Mylast = pointer();

  004c1	33 d2		 xor	 edx, edx
  004c3	48 89 55 88	 mov	 QWORD PTR lines$[rbp-248], rdx

; 488  : 		_Myend = pointer();

  004c7	45 33 c0	 xor	 r8d, r8d
  004ca	4c 89 45 90	 mov	 QWORD PTR lines$[rbp-240], r8
; File c:\users\erlend\documents\github\wind\project\wind\wind\chunkloadthread.cpp

; 71   : 	for(int i = 0; i < caves.size(); i++)

  004ce	33 ff		 xor	 edi, edi
  004d0	89 7d 9c	 mov	 DWORD PTR i$1$[rbp-256], edi
; File c:\program files (x86)\microsoft visual studio 11.0\vc\include\vector

; 1087 : 		return (this->_Mylast - this->_Myfirst);

  004d3	48 8b 45 58	 mov	 rax, QWORD PTR caves$[rbp-248]
  004d7	48 8b 5d 50	 mov	 rbx, QWORD PTR caves$[rbp-256]
  004db	48 89 5d 10	 mov	 QWORD PTR caves$1$[rbp-256], rbx
  004df	48 2b c3	 sub	 rax, rbx
  004e2	48 c1 f8 04	 sar	 rax, 4
  004e6	48 89 85 90 00
	00 00		 mov	 QWORD PTR tv3613[rbp-256], rax
; File c:\users\erlend\documents\github\wind\project\wind\wind\chunkloadthread.cpp

; 71   : 	for(int i = 0; i < caves.size(); i++)

  004ed	83 ce ff	 or	 esi, -1
  004f0	48 85 c0	 test	 rax, rax
  004f3	0f 84 47 04 00
	00		 je	 $LN687@tick
$LN693@tick:
; File c:\program files (x86)\microsoft visual studio 11.0\vc\include\memory

; 426  : 		_Rep = _Other_rep;

  004f9	f3 0f 10 05 00
	00 00 00	 movss	 xmm0, DWORD PTR __real@42000000
  00501	49 bb ff ff ff
	ff ff ff ff 07	 mov	 r11, 576460752303423487	; 07ffffffffffffffH

; 357  : 		_Reset(_Other._Ptr, _Other._Rep);

  0050b	4c 8b 73 08	 mov	 r14, QWORD PTR [rbx+8]
  0050f	4c 8b 2b	 mov	 r13, QWORD PTR [rbx]

; 358  : 		}
; 359  : 
; 360  : 	template<class _Ty2>
; 361  : 		void _Reset(const _Ptr_base<_Ty2>& _Other, bool _Throw)
; 362  : 		{	// release resource and take ownership from weak_ptr _Other._Ptr
; 363  : 		_Reset(_Other._Ptr, _Other._Rep, _Throw);
; 364  : 		}
; 365  : 
; 366  : 	template<class _Ty2>
; 367  : 		void _Reset(const _Ptr_base<_Ty2>& _Other, const _Static_tag&)
; 368  : 		{	// release resource and take ownership of _Other._Ptr
; 369  : 		_Reset(static_cast<_Elem *>(_Other._Ptr), _Other._Rep);
; 370  : 		}
; 371  : 
; 372  : 	template<class _Ty2>
; 373  : 		void _Reset(const _Ptr_base<_Ty2>& _Other, const _Const_tag&)
; 374  : 		{	// release resource and take ownership of _Other._Ptr
; 375  : 		_Reset(const_cast<_Elem *>(_Other._Ptr), _Other._Rep);
; 376  : 		}
; 377  : 
; 378  : 	template<class _Ty2>
; 379  : 		void _Reset(const _Ptr_base<_Ty2>& _Other, const _Dynamic_tag&)
; 380  : 		{	// release resource and take ownership of _Other._Ptr
; 381  : 		_Elem *_Ptr = dynamic_cast<_Elem *>(_Other._Ptr);
; 382  : 		if (_Ptr)
; 383  : 			_Reset(_Ptr, _Other._Rep);
; 384  : 		else
; 385  : 			_Reset();
; 386  : 		}
; 387  : 
; 388  : 	template<class _Ty2>
; 389  : 		void _Reset(auto_ptr<_Ty2>&& _Other)
; 390  : 		{	// release resource and take _Other.get()
; 391  : 		_Ty2 *_Px = _Other.get();
; 392  : 		_Reset0(_Px, new _Ref_count<_Elem>(_Px));
; 393  : 		_Other.release();
; 394  : 		_Enable_shared(_Px, _Rep);
; 395  : 		}
; 396  : 
; 397  :  #if _HAS_CPP0X
; 398  : 	template<class _Ty2>
; 399  : 		void _Reset(_Ty *_Ptr, const _Ptr_base<_Ty2>& _Other)
; 400  : 		{	// release resource and alias _Ptr with _Other_rep
; 401  : 		_Reset(_Ptr, _Other._Rep);
; 402  : 		}
; 403  :  #endif /* _HAS_CPP0X */
; 404  : 
; 405  : 	void _Reset(_Ty *_Other_ptr, _Ref_count_base *_Other_rep)
; 406  : 		{	// release resource and take _Other_ptr through _Other_rep
; 407  : 		if (_Other_rep)

  00512	4d 85 f6	 test	 r14, r14
  00515	74 28		 je	 SHORT $LN177@tick

; 108  : 		_MT_INCR(_Ignored, _Uses);

  00517	f0 41 ff 46 08	 lock inc DWORD PTR [r14+8]
  0051c	f3 0f 10 5d f0	 movss	 xmm3, DWORD PTR boundingBox$[rbp-248]
  00521	f3 0f 11 5c 24
	78		 movss	 DWORD PTR boundingBox$1$[rsp], xmm3
  00527	f3 44 0f 10 7d
	ec		 movss	 xmm15, DWORD PTR boundingBox$[rbp-252]
  0052d	f3 44 0f 10 75
	e8		 movss	 xmm14, DWORD PTR boundingBox$[rbp-256]
  00533	4c 8b 45 90	 mov	 r8, QWORD PTR lines$[rbp-240]
  00537	48 8b 55 88	 mov	 rdx, QWORD PTR lines$[rbp-248]
  0053b	4c 8b 55 80	 mov	 r10, QWORD PTR lines$[rbp-256]
$LN177@tick:

; 426  : 		_Rep = _Other_rep;

  0053f	4c 89 b5 f8 00
	00 00		 mov	 QWORD PTR cave$14[rbp-248], r14

; 427  : 		_Ptr = _Other_ptr;

  00546	4c 89 ad f0 00
	00 00		 mov	 QWORD PTR cave$14[rbp-256], r13
; File c:\users\erlend\documents\github\wind\project\wind\wind\chunkloadthread.cpp

; 74   : 		for(int i = 1; i <= cave->length; i++)

  0054d	41 bf 01 00 00
	00		 mov	 r15d, 1
  00553	45 39 7d 0c	 cmp	 DWORD PTR [r13+12], r15d
  00557	0f 8c 55 03 00
	00		 jl	 $LN31@tick
  0055d	41 0f 28 e7	 movaps	 xmm4, xmm15
  00561	f3 0f 58 e0	 addss	 xmm4, xmm0
  00565	f3 0f 11 65 98	 movss	 DWORD PTR tv3591[rbp-256], xmm4
  0056a	0f 28 eb	 movaps	 xmm5, xmm3
  0056d	f3 0f 58 e8	 addss	 xmm5, xmm0
  00571	f3 0f 11 6d a4	 movss	 DWORD PTR tv3590[rbp-256], xmm5
  00576	45 0f 28 ce	 movaps	 xmm9, xmm14
  0057a	f3 44 0f 58 c8	 addss	 xmm9, xmm0
  0057f	f3 44 0f 11 4d
	a0		 movss	 DWORD PTR tv3589[rbp-256], xmm9
; File c:\program files (x86)\microsoft visual studio 11.0\vc\include\memory

; 426  : 		_Rep = _Other_rep;

  00585	bf 10 00 00 00	 mov	 edi, 16
  0058a	66 0f 1f 44 00
	00		 npad	 6
$LL33@tick:
; File c:\users\erlend\documents\github\wind\project\wind\wind\chunkloadthread.cpp

; 76   : 			geom::Vector& back = cave->nodes[i - 1].pos;

  00590	4d 8b 4d 30	 mov	 r9, QWORD PTR [r13+48]
; File c:\users\erlend\documents\github\wind\project\wind\wind\geometry.cpp

; 10   : {

  00594	f3 42 0f 10 74
	0f f0		 movss	 xmm6, DWORD PTR [rdi+r9-16]
  0059b	f3 0f 11 b5 98
	00 00 00	 movss	 DWORD PTR $T10[rbp-256], xmm6
  005a3	f3 42 0f 10 7c
	0f f4		 movss	 xmm7, DWORD PTR [rdi+r9-12]
  005aa	f3 0f 11 bd 9c
	00 00 00	 movss	 DWORD PTR $T10[rbp-252], xmm7
  005b2	f3 46 0f 10 44
	0f f8		 movss	 xmm8, DWORD PTR [rdi+r9-8]
  005b9	f3 44 0f 11 85
	a0 00 00 00	 movss	 DWORD PTR $T10[rbp-248], xmm8

; 64   : }
; 65   : 
; 66   : Vector Vector::operator/(const Vector &vec) const
; 67   : {
; 68   : 	return Vector(x / vec.x, y / vec.y, z / vec.z);
; 69   : }
; 70   : 
; 71   : Vector Vector::operator/(float f) const
; 72   : {
; 73   : 	return Vector(x / f, y / f, z / f);
; 74   : }
; 75   : 
; 76   : Vector Vector::operator&(const Vector &vec) const
; 77   : {
; 78   : 	return Vector(y * vec.z - z * vec.y, z * vec.x - x * vec.z, x * vec.y - y * vec.x);
; 79   : }
; 80   : 
; 81   : float Vector::operator|(const Vector &vec) const
; 82   : {
; 83   : 	return x * vec.x + y * vec.y + z * vec.z;
; 84   : }
; 85   : 
; 86   : Vector Vector::operator-() const
; 87   : {
; 88   : 	return Vector(-x, -y, -z);
; 89   : }
; 90   : 
; 91   : float Vector::operator~() const
; 92   : {
; 93   : 	return sqrtf(x * x + y * y + z * z);
; 94   : }
; 95   : 
; 96   : Vector Vector::operator+=(const Vector &vec)
; 97   : {
; 98   : 	return Vector(x += vec.x, y += vec.y, z += vec.z);
; 99   : }
; 100  : 
; 101  : Vector Vector::operator-=(const Vector &vec)
; 102  : {
; 103  : 	return Vector(x -= vec.x, y -= vec.y, z -= vec.z);
; 104  : }
; 105  : 
; 106  : Vector Vector::operator*=(const Vector &vec)
; 107  : {
; 108  : 	return Vector(x *= vec.x, y *= vec.y, z *= vec.z);
; 109  : }
; 110  : 
; 111  : Vector Vector::operator*=(const Matrix &mat)
; 112  : {
; 113  : 	//return Vector(x * vec.x, y * vec.y, z * vec.z, w * vec.w);
; 114  : 	return *this;
; 115  : }
; 116  : 
; 117  : Vector Vector::operator*=(float f)
; 118  : {
; 119  : 	return Vector(x *= f, y *= f, z *= f);
; 120  : }
; 121  : 
; 122  : Vector Vector::operator/=(const Vector &vec)
; 123  : {
; 124  : 	return Vector(x /= vec.x, y /= vec.y, z /= vec.z);
; 125  : }
; 126  : 
; 127  : Vector Vector::operator/=(float f)
; 128  : {
; 129  : 	return Vector(x /= f, y /= f, z /= f);
; 130  : }
; 131  : 
; 132  : 
; 133  : 
; 134  : int Matrix::index(int x, int y) const
; 135  : {
; 136  : 	return x + (y << 2);
; 137  : }
; 138  : 
; 139  : Matrix::Matrix()
; 140  : {
; 141  : 	for(int i = 0; i < 16; i++)
; 142  : 	{
; 143  : 		data[i] = 0.0f;
; 144  : 	}
; 145  : }
; 146  : 
; 147  : Matrix::Matrix(float* data)
; 148  : {
; 149  : 	for(int i = 0; i < 16; i++)
; 150  : 	{
; 151  : 		this->data[i] = data[i];
; 152  : 	}
; 153  : }
; 154  : 
; 155  : const float& Matrix::operator[](int index) const
; 156  : {
; 157  : 	return data[index];
; 158  : }
; 159  : 
; 160  : float& Matrix::operator[](int index)
; 161  : {
; 162  : 	return data[index];
; 163  : }
; 164  : 
; 165  : 
; 166  : Matrix Matrix::operator*(const Matrix& mat) const
; 167  : {
; 168  : 	Matrix result;
; 169  : 
; 170  : 	for(int i = 0; i < 4; i++)
; 171  : 	{
; 172  : 		for(int j = 0; j < 4; j++)
; 173  : 		{
; 174  : 			float value = 0.0f;
; 175  : 			for(int k = 0; k < 4; k++)
; 176  : 			{
; 177  : 				value += data[index(k, j)] * mat.data[index(i, k)];
; 178  : 			}
; 179  : 			result[index(i, j)] = value;
; 180  : 		}
; 181  : 	}
; 182  : 
; 183  : 	return result;
; 184  : }
; 185  : 
; 186  : Matrix Matrix::operator*(const float& scalar) const
; 187  : {
; 188  : 	Matrix result;
; 189  : 
; 190  : 	for(int i = 0; i < 16; i++)
; 191  : 	{
; 192  : 		result[i] = data[i] * scalar;
; 193  : 	}
; 194  : 
; 195  : 	return result;
; 196  : }
; 197  : 
; 198  : Vector Matrix::operator*(const Vector& vert) const
; 199  : {
; 200  : 	Vector result;
; 201  : 
; 202  : 	result.x = vert.x * data[0] + vert.y * data[1] + vert.z * data[2] + vert.w * data[3];
; 203  : 	result.y = vert.x * data[4] + vert.y * data[5] + vert.z * data[6] + vert.w * data[7];
; 204  : 	result.z = vert.x * data[8] + vert.y * data[9] + vert.z * data[10] + vert.w * data[11];
; 205  : 	result.w = vert.x * data[12] + vert.y * data[13] + vert.z * data[14] + vert.w * data[15];
; 206  : 
; 207  : 	return result;
; 208  : }
; 209  : 
; 210  : Matrix& Matrix::operator=(const Matrix& mat)
; 211  : {
; 212  : 	for(int i = 0; i < 16; i++)
; 213  : 	{
; 214  : 		data[i] = mat.data[i];
; 215  : 	}
; 216  : 
; 217  : 	return *this;
; 218  : }
; 219  : 
; 220  : Matrix Matrix::identity()
; 221  : {
; 222  : 	Matrix result;
; 223  : 	result[0] = 1.0f;
; 224  : 	result[5] = 1.0f;
; 225  : 	result[10] = 1.0f;
; 226  : 	result[15] = 1.0f;
; 227  : 
; 228  : 	return result;
; 229  : }
; 230  : 
; 231  : Matrix Matrix::scale(float x, float y, float z)
; 232  : {
; 233  : 	Matrix result;
; 234  : 	result[0] = x;
; 235  : 	result[5] = y;
; 236  : 	result[10] = z;
; 237  : 	result[15] = 1.0f;
; 238  : 
; 239  : 	return result;
; 240  : }
; 241  : 
; 242  : Matrix Matrix::translate(float x, float y, float z)
; 243  : {
; 244  : 	Matrix result = identity();
; 245  : 	result[3] = x;
; 246  : 	result[7] = y;
; 247  : 	result[11] = z;
; 248  : 
; 249  : 	return result;
; 250  : }
; 251  : 
; 252  : Matrix Matrix::ortho2D(float left, float bottom, float right, float top)
; 253  : {
; 254  : 	float matData[] = {
; 255  : 		2.0f / (right - left), 0.0f, 0.0f, (right + left) / (left - right),
; 256  : 		0.0f, 2.0f / (top - bottom), 0.0f, (top + bottom) / (bottom - top),
; 257  : 		0.0f, 0.0f, 1.0f, 0.0f,
; 258  : 		0.0f, 0.0f, 0.0f, 1.0f
; 259  : 	};
; 260  : 
; 261  : 	return Matrix(matData);
; 262  : }
; 263  : 
; 264  : Matrix Matrix::ortho(float left, float bottom, float n, float right, float top, float f)
; 265  : {
; 266  : 	float matData[] = {
; 267  : 		2.0f / (right - left), 0.0f, 0.0f, (right + left) / (left - right),
; 268  : 		0.0f, 2.0f / (top - bottom), 0.0f, (top + bottom) / (bottom - top),
; 269  : 		0.0f, 0.0f, 2.0f / (f - n), (f + n) / (n - f),
; 270  : 		0.0f, 0.0f, 0.0f, 1.0f
; 271  : 	};
; 272  : 
; 273  : 	return Matrix(matData);
; 274  : }
; 275  : 
; 276  : Matrix Matrix::rotate(float degrees, float x, float y, float z)
; 277  : {
; 278  : 	float s = (float)sin(degrees * M_PI / 180.0f);
; 279  : 	float c = (float)cos(degrees * M_PI / 180.0f);
; 280  : 
; 281  : 	float matData[] = {
; 282  : 		x + (y + z) * c, z * -s, y * s, 0.0f,
; 283  : 		z * s, y + (x + z) * c, x * -s, 0.0f,
; 284  : 		y * -s, x * s, z + (x + y) * c, 0.0f,
; 285  : 		0.0f, 0.0f, 0.0f, 1.0f
; 286  : 	};
; 287  : 
; 288  : 	return Matrix(matData);
; 289  : }
; 290  : 
; 291  : Matrix Matrix::perspective(float fov, float aspect, float n, float f)
; 292  : {
; 293  : 	float frustumDepth = f - n;
; 294  :     float oneOverDepth = 1 / frustumDepth;
; 295  : 
; 296  : 	float matData[] = {
; 297  : 		(1.0f / (float)tan(fov * M_PI / 360.0f)) / aspect, 0.0f, 0.0f, 0.0f,
; 298  : 		0.0f, 1.0f / (float)tan(fov * M_PI / 360.0f), 0.0f, 0.0f,
; 299  : 		0.0f, 0.0f, f * oneOverDepth, -f * n * oneOverDepth,
; 300  : 		0.0f, 0.0f, 1.0f, 0.0f
; 301  : 	};
; 302  : 
; 303  : 	return Matrix(matData);
; 304  : }
; 305  : 
; 306  : Plane::Plane(Vector pos, Vector normal)
; 307  : 	: pos(pos), normal(normal)
; 308  : {
; 309  : 
; 310  : }
; 311  : 
; 312  : Ray::Ray(Vector pos, Vector dir)
; 313  : 	: pos(pos), dir(dir)
; 314  : {
; 315  : 
; 316  : }
; 317  : 
; 318  : Vector Ray::trace(float t)
; 319  : {
; 320  : 	return pos + dir * t;
; 321  : }
; 322  : 
; 323  : Triangle::Triangle(Vector vec1, Vector vec2, Vector vec3)
; 324  : 	: vec1(vec1), vec2(vec2), vec3(vec3)
; 325  : {
; 326  : 
; 327  : }
; 328  : 
; 329  : Vector Triangle::normal()
; 330  : {
; 331  : 	return (vec2 - vec1) & (vec3 - vec1);
; 332  : }
; 333  : 
; 334  : Quad::Quad(Vector vec1, Vector vec2, Vector vec3, Vector vec4)
; 335  : 	: vec1(vec1), vec2(vec2), vec3(vec3), vec4(vec4)
; 336  : {
; 337  : 
; 338  : }
; 339  : 
; 340  : Vector Quad::normal()
; 341  : {
; 342  : 	return (vec2 - vec1) & (vec3 - vec1);
; 343  : }
; 344  : 
; 345  : Line::Line(Vector vec1, Vector vec2)
; 346  : 	: vec1(vec1), vec2(vec2)
; 347  : {
; 348  : 
; 349  : }
; 350  : 
; 351  : Vector Line::getV() const
; 352  : {
; 353  : 	return vec2 - vec1;
; 354  : }
; 355  : 
; 356  : Vector Line::trace(float t)
; 357  : {
; 358  : 	return getV() * t + vec1;
; 359  : }
; 360  : 
; 361  : AxisAlignedFace::AxisAlignedFace(Vector pos, float width, float height)
; 362  : 	: pos(pos), width(width), height(height)
; 363  : {
; 364  : 
; 365  : }
; 366  : 
; 367  : AxisAlignedXY::AxisAlignedXY(Vector pos, float width, float height)
; 368  : 	: AxisAlignedFace(pos, width, height)
; 369  : {
; 370  : 
; 371  : }
; 372  : 
; 373  : Vector AxisAlignedXY::getNormal()
; 374  : {
; 375  : 	return Vector(0.0f, 0.0f, 1.0f);
; 376  : }
; 377  : 
; 378  : bool AxisAlignedXY::inside(Vector vec)
; 379  : {
; 380  : 	return vec.x >= pos.x & vec.x <= pos.x + width & vec.y >= pos.y & vec.y <= pos.y + height;
; 381  : }
; 382  : 
; 383  : AxisAlignedXZ::AxisAlignedXZ(Vector pos, float width, float height)
; 384  : 	: AxisAlignedFace(pos, width, height)
; 385  : {
; 386  : 
; 387  : }
; 388  : 
; 389  : Vector AxisAlignedXZ::getNormal()
; 390  : {
; 391  : 	return Vector(0.0f, 1.0f, 0.0f);
; 392  : }
; 393  : 
; 394  : bool AxisAlignedXZ::inside(Vector vec)
; 395  : {
; 396  : 	return vec.x >= pos.x & vec.x <= pos.x + width & vec.z >= pos.z & vec.z <= pos.z + height;
; 397  : }
; 398  : 
; 399  : AxisAlignedYZ::AxisAlignedYZ(Vector pos, float width, float height)
; 400  : 	: AxisAlignedFace(pos, width, height)
; 401  : {
; 402  : 
; 403  : }
; 404  : 
; 405  : Vector AxisAlignedYZ::getNormal()
; 406  : {
; 407  : 	return Vector(1.0f, 0.0f, 0.0f);
; 408  : }
; 409  : 
; 410  : bool AxisAlignedYZ::inside(Vector vec)
; 411  : {
; 412  : 	return vec.y >= pos.y & vec.y <= pos.y + width & vec.z >= pos.z & vec.z <= pos.z + height;
; 413  : }
; 414  : 
; 415  : AxisAlignedCube::AxisAlignedCube(Vector pos, Vector size)
; 416  : 	: pos(pos), size(size)
; 417  : {
; 418  : 
; 419  : }
; 420  : 
; 421  : AxisAlignedCube AxisAlignedCube::expand(float f)
; 422  : {
; 423  : 	Vector ex(f, f, f);
; 424  : 	return AxisAlignedCube(pos - ex, size + ex * 2.0f);
; 425  : }
; 426  : 
; 427  : AxisAlignedYZ AxisAlignedCube::getLeft()
; 428  : {
; 429  : 	return AxisAlignedYZ(pos, size.z, size.y);
; 430  : }
; 431  : 
; 432  : AxisAlignedYZ AxisAlignedCube::getRight()
; 433  : {
; 434  : 	return AxisAlignedYZ(Vector(pos.x + size.x, pos.y, pos.z), size.z, size.y);
; 435  : }
; 436  : 
; 437  : AxisAlignedXZ AxisAlignedCube::getBottom()
; 438  : {
; 439  : 	return AxisAlignedXZ(pos, size.x, size.z);
; 440  : }
; 441  : 
; 442  : AxisAlignedXZ AxisAlignedCube::getTop()
; 443  : {
; 444  : 	return AxisAlignedXZ(Vector(pos.x, pos.y + size.y, pos.z), size.x, size.z);
; 445  : }
; 446  : 
; 447  : AxisAlignedXY AxisAlignedCube::getFront()
; 448  : {
; 449  : 	return AxisAlignedXY(pos, size.x, size.y);
; 450  : }
; 451  : 
; 452  : AxisAlignedXY AxisAlignedCube::getBack()
; 453  : {
; 454  : 	return AxisAlignedXY(Vector(pos.x, pos.y, pos.z + size.z), size.x, size.y);
; 455  : }
; 456  : 
; 457  : bool AxisAlignedCube::inside(Vector vec)
; 458  : {
; 459  : 	return vec.x >= pos.x & vec.x <= pos.x + size.x & vec.y >= pos.y & vec.y <= pos.y + size.y & vec.z >= pos.z & vec.z <= pos.z + size.z;

  005c2	41 0f 2f f6	 comiss	 xmm6, xmm14
  005c6	0f 93 c1	 setae	 cl
  005c9	41 0f 2f ff	 comiss	 xmm7, xmm15
  005cd	0f 93 c0	 setae	 al
  005d0	22 c8		 and	 cl, al
  005d2	44 0f 2f c3	 comiss	 xmm8, xmm3
  005d6	0f 93 c0	 setae	 al
  005d9	22 c8		 and	 cl, al
  005db	44 0f 2f ce	 comiss	 xmm9, xmm6
  005df	0f 93 c0	 setae	 al
  005e2	22 c8		 and	 cl, al
  005e4	41 0f 2f e8	 comiss	 xmm5, xmm8
  005e8	0f 93 c0	 setae	 al
  005eb	22 c8		 and	 cl, al
  005ed	0f 2f e7	 comiss	 xmm4, xmm7
  005f0	0f 93 c0	 setae	 al
  005f3	84 c8		 test	 cl, al
; File c:\users\erlend\documents\github\wind\project\wind\wind\chunkloadthread.cpp

; 78   : 			if(boundingBox.inside(back) || boundingBox.inside(front))

  005f5	75 63		 jne	 SHORT $LN29@tick
; File c:\users\erlend\documents\github\wind\project\wind\wind\geometry.cpp

; 10   : {

  005f7	f3 42 0f 10 04
	0f		 movss	 xmm0, DWORD PTR [rdi+r9]
  005fd	f3 0f 11 85 a8
	00 00 00	 movss	 DWORD PTR $T11[rbp-256], xmm0
  00605	f3 42 0f 10 54
	0f 04		 movss	 xmm2, DWORD PTR [rdi+r9+4]
  0060c	f3 0f 11 95 ac
	00 00 00	 movss	 DWORD PTR $T11[rbp-252], xmm2
  00614	f3 42 0f 10 4c
	0f 08		 movss	 xmm1, DWORD PTR [rdi+r9+8]
  0061b	f3 0f 11 8d b0
	00 00 00	 movss	 DWORD PTR $T11[rbp-248], xmm1

; 64   : }
; 65   : 
; 66   : Vector Vector::operator/(const Vector &vec) const
; 67   : {
; 68   : 	return Vector(x / vec.x, y / vec.y, z / vec.z);
; 69   : }
; 70   : 
; 71   : Vector Vector::operator/(float f) const
; 72   : {
; 73   : 	return Vector(x / f, y / f, z / f);
; 74   : }
; 75   : 
; 76   : Vector Vector::operator&(const Vector &vec) const
; 77   : {
; 78   : 	return Vector(y * vec.z - z * vec.y, z * vec.x - x * vec.z, x * vec.y - y * vec.x);
; 79   : }
; 80   : 
; 81   : float Vector::operator|(const Vector &vec) const
; 82   : {
; 83   : 	return x * vec.x + y * vec.y + z * vec.z;
; 84   : }
; 85   : 
; 86   : Vector Vector::operator-() const
; 87   : {
; 88   : 	return Vector(-x, -y, -z);
; 89   : }
; 90   : 
; 91   : float Vector::operator~() const
; 92   : {
; 93   : 	return sqrtf(x * x + y * y + z * z);
; 94   : }
; 95   : 
; 96   : Vector Vector::operator+=(const Vector &vec)
; 97   : {
; 98   : 	return Vector(x += vec.x, y += vec.y, z += vec.z);
; 99   : }
; 100  : 
; 101  : Vector Vector::operator-=(const Vector &vec)
; 102  : {
; 103  : 	return Vector(x -= vec.x, y -= vec.y, z -= vec.z);
; 104  : }
; 105  : 
; 106  : Vector Vector::operator*=(const Vector &vec)
; 107  : {
; 108  : 	return Vector(x *= vec.x, y *= vec.y, z *= vec.z);
; 109  : }
; 110  : 
; 111  : Vector Vector::operator*=(const Matrix &mat)
; 112  : {
; 113  : 	//return Vector(x * vec.x, y * vec.y, z * vec.z, w * vec.w);
; 114  : 	return *this;
; 115  : }
; 116  : 
; 117  : Vector Vector::operator*=(float f)
; 118  : {
; 119  : 	return Vector(x *= f, y *= f, z *= f);
; 120  : }
; 121  : 
; 122  : Vector Vector::operator/=(const Vector &vec)
; 123  : {
; 124  : 	return Vector(x /= vec.x, y /= vec.y, z /= vec.z);
; 125  : }
; 126  : 
; 127  : Vector Vector::operator/=(float f)
; 128  : {
; 129  : 	return Vector(x /= f, y /= f, z /= f);
; 130  : }
; 131  : 
; 132  : 
; 133  : 
; 134  : int Matrix::index(int x, int y) const
; 135  : {
; 136  : 	return x + (y << 2);
; 137  : }
; 138  : 
; 139  : Matrix::Matrix()
; 140  : {
; 141  : 	for(int i = 0; i < 16; i++)
; 142  : 	{
; 143  : 		data[i] = 0.0f;
; 144  : 	}
; 145  : }
; 146  : 
; 147  : Matrix::Matrix(float* data)
; 148  : {
; 149  : 	for(int i = 0; i < 16; i++)
; 150  : 	{
; 151  : 		this->data[i] = data[i];
; 152  : 	}
; 153  : }
; 154  : 
; 155  : const float& Matrix::operator[](int index) const
; 156  : {
; 157  : 	return data[index];
; 158  : }
; 159  : 
; 160  : float& Matrix::operator[](int index)
; 161  : {
; 162  : 	return data[index];
; 163  : }
; 164  : 
; 165  : 
; 166  : Matrix Matrix::operator*(const Matrix& mat) const
; 167  : {
; 168  : 	Matrix result;
; 169  : 
; 170  : 	for(int i = 0; i < 4; i++)
; 171  : 	{
; 172  : 		for(int j = 0; j < 4; j++)
; 173  : 		{
; 174  : 			float value = 0.0f;
; 175  : 			for(int k = 0; k < 4; k++)
; 176  : 			{
; 177  : 				value += data[index(k, j)] * mat.data[index(i, k)];
; 178  : 			}
; 179  : 			result[index(i, j)] = value;
; 180  : 		}
; 181  : 	}
; 182  : 
; 183  : 	return result;
; 184  : }
; 185  : 
; 186  : Matrix Matrix::operator*(const float& scalar) const
; 187  : {
; 188  : 	Matrix result;
; 189  : 
; 190  : 	for(int i = 0; i < 16; i++)
; 191  : 	{
; 192  : 		result[i] = data[i] * scalar;
; 193  : 	}
; 194  : 
; 195  : 	return result;
; 196  : }
; 197  : 
; 198  : Vector Matrix::operator*(const Vector& vert) const
; 199  : {
; 200  : 	Vector result;
; 201  : 
; 202  : 	result.x = vert.x * data[0] + vert.y * data[1] + vert.z * data[2] + vert.w * data[3];
; 203  : 	result.y = vert.x * data[4] + vert.y * data[5] + vert.z * data[6] + vert.w * data[7];
; 204  : 	result.z = vert.x * data[8] + vert.y * data[9] + vert.z * data[10] + vert.w * data[11];
; 205  : 	result.w = vert.x * data[12] + vert.y * data[13] + vert.z * data[14] + vert.w * data[15];
; 206  : 
; 207  : 	return result;
; 208  : }
; 209  : 
; 210  : Matrix& Matrix::operator=(const Matrix& mat)
; 211  : {
; 212  : 	for(int i = 0; i < 16; i++)
; 213  : 	{
; 214  : 		data[i] = mat.data[i];
; 215  : 	}
; 216  : 
; 217  : 	return *this;
; 218  : }
; 219  : 
; 220  : Matrix Matrix::identity()
; 221  : {
; 222  : 	Matrix result;
; 223  : 	result[0] = 1.0f;
; 224  : 	result[5] = 1.0f;
; 225  : 	result[10] = 1.0f;
; 226  : 	result[15] = 1.0f;
; 227  : 
; 228  : 	return result;
; 229  : }
; 230  : 
; 231  : Matrix Matrix::scale(float x, float y, float z)
; 232  : {
; 233  : 	Matrix result;
; 234  : 	result[0] = x;
; 235  : 	result[5] = y;
; 236  : 	result[10] = z;
; 237  : 	result[15] = 1.0f;
; 238  : 
; 239  : 	return result;
; 240  : }
; 241  : 
; 242  : Matrix Matrix::translate(float x, float y, float z)
; 243  : {
; 244  : 	Matrix result = identity();
; 245  : 	result[3] = x;
; 246  : 	result[7] = y;
; 247  : 	result[11] = z;
; 248  : 
; 249  : 	return result;
; 250  : }
; 251  : 
; 252  : Matrix Matrix::ortho2D(float left, float bottom, float right, float top)
; 253  : {
; 254  : 	float matData[] = {
; 255  : 		2.0f / (right - left), 0.0f, 0.0f, (right + left) / (left - right),
; 256  : 		0.0f, 2.0f / (top - bottom), 0.0f, (top + bottom) / (bottom - top),
; 257  : 		0.0f, 0.0f, 1.0f, 0.0f,
; 258  : 		0.0f, 0.0f, 0.0f, 1.0f
; 259  : 	};
; 260  : 
; 261  : 	return Matrix(matData);
; 262  : }
; 263  : 
; 264  : Matrix Matrix::ortho(float left, float bottom, float n, float right, float top, float f)
; 265  : {
; 266  : 	float matData[] = {
; 267  : 		2.0f / (right - left), 0.0f, 0.0f, (right + left) / (left - right),
; 268  : 		0.0f, 2.0f / (top - bottom), 0.0f, (top + bottom) / (bottom - top),
; 269  : 		0.0f, 0.0f, 2.0f / (f - n), (f + n) / (n - f),
; 270  : 		0.0f, 0.0f, 0.0f, 1.0f
; 271  : 	};
; 272  : 
; 273  : 	return Matrix(matData);
; 274  : }
; 275  : 
; 276  : Matrix Matrix::rotate(float degrees, float x, float y, float z)
; 277  : {
; 278  : 	float s = (float)sin(degrees * M_PI / 180.0f);
; 279  : 	float c = (float)cos(degrees * M_PI / 180.0f);
; 280  : 
; 281  : 	float matData[] = {
; 282  : 		x + (y + z) * c, z * -s, y * s, 0.0f,
; 283  : 		z * s, y + (x + z) * c, x * -s, 0.0f,
; 284  : 		y * -s, x * s, z + (x + y) * c, 0.0f,
; 285  : 		0.0f, 0.0f, 0.0f, 1.0f
; 286  : 	};
; 287  : 
; 288  : 	return Matrix(matData);
; 289  : }
; 290  : 
; 291  : Matrix Matrix::perspective(float fov, float aspect, float n, float f)
; 292  : {
; 293  : 	float frustumDepth = f - n;
; 294  :     float oneOverDepth = 1 / frustumDepth;
; 295  : 
; 296  : 	float matData[] = {
; 297  : 		(1.0f / (float)tan(fov * M_PI / 360.0f)) / aspect, 0.0f, 0.0f, 0.0f,
; 298  : 		0.0f, 1.0f / (float)tan(fov * M_PI / 360.0f), 0.0f, 0.0f,
; 299  : 		0.0f, 0.0f, f * oneOverDepth, -f * n * oneOverDepth,
; 300  : 		0.0f, 0.0f, 1.0f, 0.0f
; 301  : 	};
; 302  : 
; 303  : 	return Matrix(matData);
; 304  : }
; 305  : 
; 306  : Plane::Plane(Vector pos, Vector normal)
; 307  : 	: pos(pos), normal(normal)
; 308  : {
; 309  : 
; 310  : }
; 311  : 
; 312  : Ray::Ray(Vector pos, Vector dir)
; 313  : 	: pos(pos), dir(dir)
; 314  : {
; 315  : 
; 316  : }
; 317  : 
; 318  : Vector Ray::trace(float t)
; 319  : {
; 320  : 	return pos + dir * t;
; 321  : }
; 322  : 
; 323  : Triangle::Triangle(Vector vec1, Vector vec2, Vector vec3)
; 324  : 	: vec1(vec1), vec2(vec2), vec3(vec3)
; 325  : {
; 326  : 
; 327  : }
; 328  : 
; 329  : Vector Triangle::normal()
; 330  : {
; 331  : 	return (vec2 - vec1) & (vec3 - vec1);
; 332  : }
; 333  : 
; 334  : Quad::Quad(Vector vec1, Vector vec2, Vector vec3, Vector vec4)
; 335  : 	: vec1(vec1), vec2(vec2), vec3(vec3), vec4(vec4)
; 336  : {
; 337  : 
; 338  : }
; 339  : 
; 340  : Vector Quad::normal()
; 341  : {
; 342  : 	return (vec2 - vec1) & (vec3 - vec1);
; 343  : }
; 344  : 
; 345  : Line::Line(Vector vec1, Vector vec2)
; 346  : 	: vec1(vec1), vec2(vec2)
; 347  : {
; 348  : 
; 349  : }
; 350  : 
; 351  : Vector Line::getV() const
; 352  : {
; 353  : 	return vec2 - vec1;
; 354  : }
; 355  : 
; 356  : Vector Line::trace(float t)
; 357  : {
; 358  : 	return getV() * t + vec1;
; 359  : }
; 360  : 
; 361  : AxisAlignedFace::AxisAlignedFace(Vector pos, float width, float height)
; 362  : 	: pos(pos), width(width), height(height)
; 363  : {
; 364  : 
; 365  : }
; 366  : 
; 367  : AxisAlignedXY::AxisAlignedXY(Vector pos, float width, float height)
; 368  : 	: AxisAlignedFace(pos, width, height)
; 369  : {
; 370  : 
; 371  : }
; 372  : 
; 373  : Vector AxisAlignedXY::getNormal()
; 374  : {
; 375  : 	return Vector(0.0f, 0.0f, 1.0f);
; 376  : }
; 377  : 
; 378  : bool AxisAlignedXY::inside(Vector vec)
; 379  : {
; 380  : 	return vec.x >= pos.x & vec.x <= pos.x + width & vec.y >= pos.y & vec.y <= pos.y + height;
; 381  : }
; 382  : 
; 383  : AxisAlignedXZ::AxisAlignedXZ(Vector pos, float width, float height)
; 384  : 	: AxisAlignedFace(pos, width, height)
; 385  : {
; 386  : 
; 387  : }
; 388  : 
; 389  : Vector AxisAlignedXZ::getNormal()
; 390  : {
; 391  : 	return Vector(0.0f, 1.0f, 0.0f);
; 392  : }
; 393  : 
; 394  : bool AxisAlignedXZ::inside(Vector vec)
; 395  : {
; 396  : 	return vec.x >= pos.x & vec.x <= pos.x + width & vec.z >= pos.z & vec.z <= pos.z + height;
; 397  : }
; 398  : 
; 399  : AxisAlignedYZ::AxisAlignedYZ(Vector pos, float width, float height)
; 400  : 	: AxisAlignedFace(pos, width, height)
; 401  : {
; 402  : 
; 403  : }
; 404  : 
; 405  : Vector AxisAlignedYZ::getNormal()
; 406  : {
; 407  : 	return Vector(1.0f, 0.0f, 0.0f);
; 408  : }
; 409  : 
; 410  : bool AxisAlignedYZ::inside(Vector vec)
; 411  : {
; 412  : 	return vec.y >= pos.y & vec.y <= pos.y + width & vec.z >= pos.z & vec.z <= pos.z + height;
; 413  : }
; 414  : 
; 415  : AxisAlignedCube::AxisAlignedCube(Vector pos, Vector size)
; 416  : 	: pos(pos), size(size)
; 417  : {
; 418  : 
; 419  : }
; 420  : 
; 421  : AxisAlignedCube AxisAlignedCube::expand(float f)
; 422  : {
; 423  : 	Vector ex(f, f, f);
; 424  : 	return AxisAlignedCube(pos - ex, size + ex * 2.0f);
; 425  : }
; 426  : 
; 427  : AxisAlignedYZ AxisAlignedCube::getLeft()
; 428  : {
; 429  : 	return AxisAlignedYZ(pos, size.z, size.y);
; 430  : }
; 431  : 
; 432  : AxisAlignedYZ AxisAlignedCube::getRight()
; 433  : {
; 434  : 	return AxisAlignedYZ(Vector(pos.x + size.x, pos.y, pos.z), size.z, size.y);
; 435  : }
; 436  : 
; 437  : AxisAlignedXZ AxisAlignedCube::getBottom()
; 438  : {
; 439  : 	return AxisAlignedXZ(pos, size.x, size.z);
; 440  : }
; 441  : 
; 442  : AxisAlignedXZ AxisAlignedCube::getTop()
; 443  : {
; 444  : 	return AxisAlignedXZ(Vector(pos.x, pos.y + size.y, pos.z), size.x, size.z);
; 445  : }
; 446  : 
; 447  : AxisAlignedXY AxisAlignedCube::getFront()
; 448  : {
; 449  : 	return AxisAlignedXY(pos, size.x, size.y);
; 450  : }
; 451  : 
; 452  : AxisAlignedXY AxisAlignedCube::getBack()
; 453  : {
; 454  : 	return AxisAlignedXY(Vector(pos.x, pos.y, pos.z + size.z), size.x, size.y);
; 455  : }
; 456  : 
; 457  : bool AxisAlignedCube::inside(Vector vec)
; 458  : {
; 459  : 	return vec.x >= pos.x & vec.x <= pos.x + size.x & vec.y >= pos.y & vec.y <= pos.y + size.y & vec.z >= pos.z & vec.z <= pos.z + size.z;

  00623	41 0f 2f c6	 comiss	 xmm0, xmm14
  00627	0f 93 c1	 setae	 cl
  0062a	41 0f 2f d7	 comiss	 xmm2, xmm15
  0062e	0f 93 c0	 setae	 al
  00631	22 c8		 and	 cl, al
  00633	0f 2f cb	 comiss	 xmm1, xmm3
  00636	0f 93 c0	 setae	 al
  00639	22 c8		 and	 cl, al
  0063b	44 0f 2f c8	 comiss	 xmm9, xmm0
  0063f	0f 93 c0	 setae	 al
  00642	22 c8		 and	 cl, al
  00644	0f 2f e9	 comiss	 xmm5, xmm1
  00647	0f 93 c0	 setae	 al
  0064a	22 c8		 and	 cl, al
  0064c	0f 2f e2	 comiss	 xmm4, xmm2
  0064f	0f 93 c0	 setae	 al
  00652	84 c8		 test	 cl, al
; File c:\users\erlend\documents\github\wind\project\wind\wind\chunkloadthread.cpp

; 78   : 			if(boundingBox.inside(back) || boundingBox.inside(front))

  00654	0f 84 40 02 00
	00		 je	 $LN32@tick
$LN29@tick:
; File c:\users\erlend\documents\github\wind\project\wind\wind\geometry.cpp

; 10   : {

  0065a	f3 46 0f 10 0c
	0f		 movss	 xmm9, DWORD PTR [rdi+r9]
  00660	f3 44 0f 11 4d
	68		 movss	 DWORD PTR $T8[rbp-256], xmm9
  00666	f3 46 0f 10 54
	0f 04		 movss	 xmm10, DWORD PTR [rdi+r9+4]
  0066d	f3 44 0f 11 55
	6c		 movss	 DWORD PTR $T8[rbp-252], xmm10
  00673	f3 46 0f 10 5c
	0f 08		 movss	 xmm11, DWORD PTR [rdi+r9+8]
  0067a	f3 44 0f 11 5d
	70		 movss	 DWORD PTR $T8[rbp-248], xmm11
  00680	f3 46 0f 10 64
	0f 0c		 movss	 xmm12, DWORD PTR [rdi+r9+12]
  00687	f3 44 0f 11 65
	74		 movss	 DWORD PTR $T8[rbp-244], xmm12
  0068d	f3 0f 11 75 78	 movss	 DWORD PTR $T9[rbp-256], xmm6
  00692	f3 0f 11 7d 7c	 movss	 DWORD PTR $T9[rbp-252], xmm7
  00697	f3 44 0f 11 85
	80 00 00 00	 movss	 DWORD PTR $T9[rbp-248], xmm8
  006a0	f3 46 0f 10 6c
	0f fc		 movss	 xmm13, DWORD PTR [rdi+r9-4]
  006a7	f3 44 0f 11 ad
	84 00 00 00	 movss	 DWORD PTR $T9[rbp-244], xmm13
  006b0	f3 0f 11 75 18	 movss	 DWORD PTR $T6[rbp-256], xmm6
  006b5	f3 0f 11 7d 1c	 movss	 DWORD PTR $T6[rbp-252], xmm7
  006ba	f3 44 0f 11 45
	20		 movss	 DWORD PTR $T6[rbp-248], xmm8
  006c0	f3 44 0f 11 6d
	24		 movss	 DWORD PTR $T6[rbp-244], xmm13
  006c6	f3 44 0f 11 4d
	28		 movss	 DWORD PTR $T6[rbp-240], xmm9
  006cc	f3 44 0f 11 55
	2c		 movss	 DWORD PTR $T6[rbp-236], xmm10
  006d2	f3 44 0f 11 5d
	30		 movss	 DWORD PTR $T6[rbp-232], xmm11
  006d8	f3 44 0f 11 65
	34		 movss	 DWORD PTR $T6[rbp-228], xmm12
; File c:\program files (x86)\microsoft visual studio 11.0\vc\include\vector

; 1496 : 		return (_Ptr < this->_Mylast && this->_Myfirst <= _Ptr);

  006de	48 8d 45 18	 lea	 rax, QWORD PTR $T6[rbp-256]
  006e2	48 3b c2	 cmp	 rax, rdx
  006e5	0f 83 e3 00 00
	00		 jae	 $LN213@tick
  006eb	48 8d 45 18	 lea	 rax, QWORD PTR $T6[rbp-256]
  006ef	4c 3b d0	 cmp	 r10, rax
  006f2	0f 87 d6 00 00
	00		 ja	 $LN213@tick

; 489  : 		}
; 490  : 
; 491  : 	pointer _Myfirst;	// pointer to beginning of array
; 492  : 	pointer _Mylast;	// pointer to current end of sequence
; 493  : 	pointer _Myend;	// pointer to end of array
; 494  : 	};
; 495  : 
; 496  : 		// TEMPLATE CLASS _Vector_alloc
; 497  : template<bool _Al_has_storage,
; 498  : 	class _Alloc_types>
; 499  : 	class _Vector_alloc
; 500  : 		: public _Vector_val<typename _Alloc_types::_Val_types>
; 501  : 	{	// base class for vector to hold allocator with storage
; 502  : public:
; 503  : 	typedef _Vector_alloc<_Al_has_storage, _Alloc_types> _Myt;
; 504  : 	typedef typename _Alloc_types::_Alloc _Alloc;
; 505  : 
; 506  : 	typedef typename _Alloc_types::_Alty _Alty;
; 507  : 
; 508  :  #if _ITERATOR_DEBUG_LEVEL == 0
; 509  : 	_Vector_alloc(const _Alloc& _Al = _Alloc())
; 510  : 		: _Alval(_Al)
; 511  : 		{	// construct allocator from _Al
; 512  : 		}
; 513  : 
; 514  : 	void _Change_alloc(const _Alty& _Al)
; 515  : 		{	// replace old allocator
; 516  : 		_Alval = _Al;
; 517  : 		}
; 518  : 
; 519  : 	void _Swap_alloc(_Myt& _Right)
; 520  : 		{	// swap allocators
; 521  : 		_Swap_adl(this->_Alval, _Right._Alval);
; 522  : 		}
; 523  : 
; 524  :  #else /* _ITERATOR_DEBUG_LEVEL == 0 */
; 525  : 	_Vector_alloc(const _Alty& _Al = _Alty())
; 526  : 		: _Alval(_Al)
; 527  : 		{	// construct allocator from _Al
; 528  : 		_Alloc_proxy();
; 529  : 		}
; 530  : 
; 531  : 	~_Vector_alloc() _NOEXCEPT
; 532  : 		{	// destroy proxy
; 533  : 		_Free_proxy();
; 534  : 		}
; 535  : 
; 536  : 	void _Change_alloc(const _Alty& _Al)
; 537  : 		{	// replace old allocator
; 538  : 		_Free_proxy();
; 539  : 		_Alval = _Al;
; 540  : 		_Alloc_proxy();
; 541  : 		}
; 542  : 
; 543  : 	void _Swap_alloc(_Myt& _Right)
; 544  : 		{	// swap allocators
; 545  : 		_Swap_adl(_Alval, _Right._Alval);
; 546  : 		_Swap_adl(this->_Myproxy, _Right._Myproxy);
; 547  : 		}
; 548  : 
; 549  : 	void _Alloc_proxy()
; 550  : 		{	// construct proxy from _Alval
; 551  : 		typename _Alloc::template rebind<_Container_proxy>::other
; 552  : 			_Alproxy(_Alval);
; 553  : 		this->_Myproxy = _Alproxy.allocate(1);
; 554  : 		_Alproxy.construct(this->_Myproxy, _Container_proxy());
; 555  : 		this->_Myproxy->_Mycont = this;
; 556  : 		}
; 557  : 
; 558  : 	void _Free_proxy()
; 559  : 		{	// destroy proxy
; 560  : 		typename _Alloc::template rebind<_Container_proxy>::other
; 561  : 			_Alproxy(_Alval);
; 562  : 		this->_Orphan_all();
; 563  : 		_Alproxy.destroy(this->_Myproxy);
; 564  : 		_Alproxy.deallocate(this->_Myproxy, 1);
; 565  : 		this->_Myproxy = 0;
; 566  : 		}
; 567  :  #endif /* _ITERATOR_DEBUG_LEVEL == 0 */
; 568  : 
; 569  : 	_Alty& _Getal()
; 570  : 		{	// get reference to allocator
; 571  : 		return (_Alval);
; 572  : 		}
; 573  : 
; 574  : 	const _Alty& _Getal() const
; 575  : 		{	// get reference to allocator
; 576  : 		return (_Alval);
; 577  : 		}
; 578  : 
; 579  : 	_Alty _Alval;	// allocator object for values
; 580  : 	};
; 581  : 
; 582  : template<class _Alloc_types>
; 583  : 	class _Vector_alloc<false, _Alloc_types>
; 584  : 		: public _Vector_val<typename _Alloc_types::_Val_types>
; 585  : 	{	// base class for vector to hold allocator with no storage
; 586  : public:
; 587  : 	typedef _Vector_alloc<false, _Alloc_types> _Myt;
; 588  : 	typedef typename _Alloc_types::_Alloc _Alloc;
; 589  : 
; 590  : 	typedef typename _Alloc_types::_Alty _Alty;
; 591  : 
; 592  :  #if _ITERATOR_DEBUG_LEVEL == 0
; 593  : 	_Vector_alloc(const _Alloc& = _Alloc())
; 594  : 		{	// construct allocator from _Al
; 595  : 		}
; 596  : 
; 597  : 	void _Change_alloc(const _Alty&)
; 598  : 		{	// replace old allocator
; 599  : 		}
; 600  : 
; 601  : 	void _Swap_alloc(_Myt&)
; 602  : 		{	// swap allocators
; 603  : 		}
; 604  : 
; 605  :  #else /* _ITERATOR_DEBUG_LEVEL == 0 */
; 606  : 	_Vector_alloc(const _Alloc& = _Alloc())
; 607  : 		{	// construct allocator from _Al
; 608  : 		_Alloc_proxy();
; 609  : 		}
; 610  : 
; 611  : 	~_Vector_alloc() _NOEXCEPT
; 612  : 		{	// destroy proxy
; 613  : 		_Free_proxy();
; 614  : 		}
; 615  : 
; 616  : 	void _Change_alloc(const _Alty&)
; 617  : 		{	// replace old allocator
; 618  : 		}
; 619  : 
; 620  : 	void _Swap_alloc(_Myt& _Right)
; 621  : 		{	// swap allocators
; 622  : 		_Swap_adl(this->_Myproxy, _Right._Myproxy);
; 623  : 		}
; 624  : 
; 625  : 	void _Alloc_proxy()
; 626  : 		{	// construct proxy from _Alval
; 627  : 		typename _Alloc::template rebind<_Container_proxy>::other
; 628  : 			_Alproxy;
; 629  : 		this->_Myproxy = _Alproxy.allocate(1);
; 630  : 		_Alproxy.construct(this->_Myproxy, _Container_proxy());
; 631  : 		this->_Myproxy->_Mycont = this;
; 632  : 		}
; 633  : 
; 634  : 	void _Free_proxy()
; 635  : 		{	// destroy proxy
; 636  : 		typename _Alloc::template rebind<_Container_proxy>::other
; 637  : 			_Alproxy;
; 638  : 		this->_Orphan_all();
; 639  : 		_Alproxy.destroy(this->_Myproxy);
; 640  : 		_Alproxy.deallocate(this->_Myproxy, 1);
; 641  : 		this->_Myproxy = 0;
; 642  : 		}
; 643  :  #endif /* _ITERATOR_DEBUG_LEVEL == 0 */
; 644  : 
; 645  : 	_Alty _Getal() const
; 646  : 		{	// get reference to allocator
; 647  : 		return (_Alty());
; 648  : 		}
; 649  : 	};
; 650  : 
; 651  : 		// TEMPLATE CLASS vector
; 652  : template<class _Ty,
; 653  : 	class _Alloc = allocator<_Ty> >
; 654  : 	class vector
; 655  : 		: public _Vector_alloc<!is_empty<_Alloc>::value,
; 656  : 			_Vec_base_types<_Ty, _Alloc> >
; 657  : 	{	// varying size array of values
; 658  : public:
; 659  : 	typedef vector<_Ty, _Alloc> _Myt;
; 660  : 	typedef _Vector_alloc<!is_empty<_Alloc>::value,
; 661  : 		_Vec_base_types<_Ty, _Alloc> > _Mybase;
; 662  : 	typedef _Alloc allocator_type;
; 663  : 
; 664  : 	typedef typename _Mybase::_Alty _Alty;
; 665  : 
; 666  : 	typedef typename _Mybase::value_type value_type;
; 667  : 	typedef typename _Mybase::size_type size_type;
; 668  : 	typedef typename _Mybase::difference_type difference_type;
; 669  : 	typedef typename _Mybase::pointer pointer;
; 670  : 	typedef typename _Mybase::const_pointer const_pointer;
; 671  : 	typedef typename _Mybase::reference reference;
; 672  : 	typedef typename _Mybase::const_reference const_reference;
; 673  : 
; 674  :  #define _VICONT(it)	it._Getcont()
; 675  :  #define _VIPTR(it)	(it)._Ptr
; 676  : 
; 677  : 	typedef typename _Mybase::iterator iterator;
; 678  : 	typedef typename _Mybase::const_iterator const_iterator;
; 679  : 
; 680  : 	typedef _STD reverse_iterator<iterator> reverse_iterator;
; 681  : 	typedef _STD reverse_iterator<const_iterator> const_reverse_iterator;
; 682  : 
; 683  : 	vector()
; 684  : 		: _Mybase()
; 685  : 		{	// construct empty vector
; 686  : 		}
; 687  : 
; 688  : 	explicit vector(const _Alloc& _Al)
; 689  : 		: _Mybase(_Al)
; 690  : 		{	// construct empty vector, allocator
; 691  : 		}
; 692  : 
; 693  : 	explicit vector(size_type _Count)
; 694  : 		: _Mybase()
; 695  : 		{	// construct from _Count * value_type()
; 696  : 		resize(_Count);
; 697  : 		}
; 698  : 
; 699  : 	vector(size_type _Count, const value_type& _Val)
; 700  : 		: _Mybase()
; 701  : 		{	// construct from _Count * _Val
; 702  : 		_Construct_n(_Count, _STD addressof(_Val));
; 703  : 		}
; 704  : 
; 705  : 	vector(size_type _Count, const value_type& _Val, const _Alloc& _Al)
; 706  : 		: _Mybase(_Al)
; 707  : 		{	// construct from _Count * _Val, allocator
; 708  : 		_Construct_n(_Count, _STD addressof(_Val));
; 709  : 		}
; 710  : 
; 711  : 	vector(const _Myt& _Right)
; 712  : 
; 713  :  #if _HAS_CPP0X
; 714  : 		: _Mybase(_Right._Getal().select_on_container_copy_construction())
; 715  : 
; 716  :  #else /* _HAS_CPP0X */
; 717  : 		: _Mybase(_Right._Getal())
; 718  :  #endif /* _HAS_CPP0X */
; 719  : 
; 720  : 		{	// construct by copying _Right
; 721  : 		if (_Buy(_Right.size()))
; 722  : 			_TRY_BEGIN
; 723  : 			this->_Mylast = _Ucopy(_Right.begin(), _Right.end(),
; 724  : 				this->_Myfirst);
; 725  : 			_CATCH_ALL
; 726  : 			_Tidy();
; 727  : 			_RERAISE;
; 728  : 			_CATCH_END
; 729  : 		}
; 730  : 
; 731  : 	vector(const _Myt& _Right, const _Alloc& _Al)
; 732  : 		: _Mybase(_Al)
; 733  : 		{	// construct by copying _Right, allocator
; 734  : 		if (_Buy(_Right.size()))
; 735  : 			_TRY_BEGIN
; 736  : 			this->_Mylast = _Ucopy(_Right.begin(), _Right.end(),
; 737  : 				this->_Myfirst);
; 738  : 			_CATCH_ALL
; 739  : 			_Tidy();
; 740  : 			_RERAISE;
; 741  : 			_CATCH_END
; 742  : 		}
; 743  : 
; 744  : 	template<class _Iter>
; 745  : 		vector(_Iter _First, _Iter _Last,
; 746  : 			typename enable_if<_Is_iterator<_Iter>::value,
; 747  : 				void>:: type ** = 0)
; 748  : 		: _Mybase()
; 749  : 		{	// construct from [_First, _Last)
; 750  : 		_Construct(_First, _Last);
; 751  : 		}
; 752  : 
; 753  : 	template<class _Iter>
; 754  : 		vector(_Iter _First, _Iter _Last, const _Alloc& _Al,
; 755  : 			typename enable_if<_Is_iterator<_Iter>::value,
; 756  : 				void>:: type ** = 0)
; 757  : 		: _Mybase(_Al)
; 758  : 		{	// construct from [_First, _Last) with allocator
; 759  : 		_Construct(_First, _Last);
; 760  : 		}
; 761  : 
; 762  : 	template<class _Iter>
; 763  : 		void _Construct(_Iter _First, _Iter _Last)
; 764  : 		{	// initialize with [_First, _Last), input iterators
; 765  : 		_TRY_BEGIN
; 766  : 		insert(begin(), _First, _Last);
; 767  : 		_CATCH_ALL
; 768  : 		_Tidy();
; 769  : 		_RERAISE;
; 770  : 		_CATCH_END
; 771  : 		}
; 772  : 
; 773  : 	void _Construct_n(size_type _Count, const value_type *_Pval)
; 774  : 		{	// construct from _Count * *_Pval
; 775  : 		if (_Buy(_Count))
; 776  : 			{	// nonzero, fill it
; 777  : 			_TRY_BEGIN
; 778  : 			this->_Mylast = _Ufill(this->_Myfirst, _Count, _Pval);
; 779  : 			_CATCH_ALL
; 780  : 			_Tidy();
; 781  : 			_RERAISE;
; 782  : 			_CATCH_END
; 783  : 			}
; 784  : 		}
; 785  : 
; 786  : 	vector(_Myt&& _Right)
; 787  : 		: _Mybase(_Right._Getal())
; 788  : 		{	// construct by moving _Right
; 789  : 		_Assign_rv(_STD forward<_Myt>(_Right));
; 790  : 		}
; 791  : 
; 792  : 	vector(_Myt&& _Right, const _Alloc& _Al)
; 793  : 		: _Mybase(_Al)
; 794  : 		{	// construct by moving _Right, allocator
; 795  : 		if (this->_Getal() != _Right._Getal())
; 796  : 			assign(_STD make_move_iterator(_Right.begin()),
; 797  : 				_STD make_move_iterator(_Right.end()));
; 798  : 		else
; 799  : 			_Assign_rv(_STD forward<_Myt>(_Right));
; 800  : 		}
; 801  : 
; 802  : 	_Myt& operator=(_Myt&& _Right)
; 803  : 		{	// assign by moving _Right
; 804  : 		if (this != &_Right)
; 805  : 			{	// different, assign it
; 806  : 			_Tidy();
; 807  : 
; 808  :  #if _HAS_CPP0X
; 809  : 			if (this->_Getal() != _Right._Getal()
; 810  : 				&& _Alty::propagate_on_container_move_assignment::value)
; 811  : 				this->_Change_alloc(_Right._Getal());
; 812  :  #endif /* _HAS_CPP0X */
; 813  : 
; 814  : 			if (this->_Getal() != _Right._Getal())
; 815  : 				assign(_STD make_move_iterator(_Right.begin()),
; 816  : 					_STD make_move_iterator(_Right.end()));
; 817  : 			else
; 818  : 				_Assign_rv(_STD forward<_Myt>(_Right));
; 819  : 			}
; 820  : 		return (*this);
; 821  : 		}
; 822  : 
; 823  : 	void _Assign_rv(_Myt&& _Right)
; 824  : 		{	// assign by moving _Right
; 825  : 		this->_Swap_all((_Myt&)_Right);
; 826  : 		this->_Myfirst = _Right._Myfirst;
; 827  : 		this->_Mylast = _Right._Mylast;
; 828  : 		this->_Myend = _Right._Myend;
; 829  : 
; 830  : 		_Right._Myfirst = pointer();
; 831  : 		_Right._Mylast = pointer();
; 832  : 		_Right._Myend = pointer();
; 833  : 		}
; 834  : 
; 835  : 	void push_back(value_type&& _Val)
; 836  : 		{	// insert by moving into element at end
; 837  : 		if (_Inside(_STD addressof(_Val)))
; 838  : 			{	// push back an element
; 839  : 			size_type _Idx = _STD addressof(_Val) - this->_Myfirst;

  006f8	48 8d 5d 18	 lea	 rbx, QWORD PTR $T6[rbp-256]
  006fc	49 2b da	 sub	 rbx, r10

; 840  : 			if (this->_Mylast == this->_Myend)

  006ff	49 3b d0	 cmp	 rdx, r8
  00702	0f 85 83 00 00
	00		 jne	 $LN225@tick

; 968  : 		}
; 969  : 
; 970  : 	size_type _Unused_capacity() const _NOEXCEPT
; 971  : 		{	// micro-optimization for capacity() - size()
; 972  : 		return (this->_Myend - this->_Mylast);

  00708	49 8b c0	 mov	 rax, r8
  0070b	48 2b c2	 sub	 rax, rdx
  0070e	48 c1 f8 05	 sar	 rax, 5

; 1497 : 		}
; 1498 : 
; 1499 : 	void _Reallocate(size_type _Count)
; 1500 : 		{	// move to array of exactly _Count elements
; 1501 : 		pointer _Ptr = this->_Getal().allocate(_Count);
; 1502 : 
; 1503 : 		_TRY_BEGIN
; 1504 : 		_Umove(this->_Myfirst, this->_Mylast, _Ptr);
; 1505 : 		_CATCH_ALL
; 1506 : 		this->_Getal().deallocate(_Ptr, _Count);
; 1507 : 		_RERAISE;
; 1508 : 		_CATCH_END
; 1509 : 
; 1510 : 		size_type _Size = size();
; 1511 : 		if (this->_Myfirst != pointer())
; 1512 : 			{	// destroy and deallocate old array
; 1513 : 			_Destroy(this->_Myfirst, this->_Mylast);
; 1514 : 			this->_Getal().deallocate(this->_Myfirst,
; 1515 : 				this->_Myend - this->_Myfirst);
; 1516 : 			}
; 1517 : 
; 1518 : 		this->_Orphan_all();
; 1519 : 		this->_Myend = _Ptr + _Count;
; 1520 : 		this->_Mylast = _Ptr + _Size;
; 1521 : 		this->_Myfirst = _Ptr;
; 1522 : 		}
; 1523 : 
; 1524 : 	void _Reserve(size_type _Count)
; 1525 : 		{	// ensure room for _Count new elements, grow exponentially
; 1526 : 		if (_Unused_capacity() < _Count)

  00712	48 83 f8 01	 cmp	 rax, 1
  00716	73 73		 jae	 SHORT $LN225@tick

; 1087 : 		return (this->_Mylast - this->_Myfirst);

  00718	49 2b d2	 sub	 rdx, r10
  0071b	48 c1 fa 05	 sar	 rdx, 5

; 1527 : 			{	// need more room, try to get it
; 1528 : 			if (max_size() - size() < _Count)

  0071f	49 8b c3	 mov	 rax, r11
  00722	48 2b c2	 sub	 rax, rdx
  00725	48 83 f8 01	 cmp	 rax, 1
  00729	0f 82 e8 01 00
	00		 jb	 $LN668@tick

; 1529 : 				_Xlen();
; 1530 : 			_Reallocate(_Grow_to(size() + _Count));

  0072f	48 ff c2	 inc	 rdx

; 855  : 			}
; 856  : 		}
; 857  : 
; 858  : 	iterator insert(const_iterator _Where, _Ty&& _Val)
; 859  : 		{	// insert by moving _Val at _Where
; 860  : 		return (emplace(_Where, _STD move(_Val)));
; 861  : 		}
; 862  : 
; 863  : #define _VECTOR_EMPLACE( \
; 864  : 	TEMPLATE_LIST, PADDING_LIST, LIST, COMMA, X1, X2, X3, X4) \
; 865  : 	TEMPLATE_LIST(_CLASS_TYPE) \
; 866  : 		void emplace_back(LIST(_TYPE_REFREF_ARG)) \
; 867  : 		{	/* insert by moving into element at end */ \
; 868  : 		if (this->_Mylast == this->_Myend) \
; 869  : 			_Reserve(1); \
; 870  : 		_Orphan_range(this->_Mylast, this->_Mylast); \
; 871  : 		this->_Getal().construct(this->_Mylast COMMA LIST(_FORWARD_ARG)); \
; 872  : 		++this->_Mylast; \
; 873  : 		} \
; 874  : 	TEMPLATE_LIST(_CLASS_TYPE) \
; 875  : 		iterator emplace(const_iterator _Where \
; 876  : 			COMMA LIST(_TYPE_REFREF_ARG)) \
; 877  : 		{	/* insert by moving _Val at _Where */ \
; 878  : 		size_type _Off = _VIPTR(_Where) - this->_Myfirst; \
; 879  : 		_VECTOR_EMPLACE_CHECK \
; 880  : 		emplace_back(LIST(_FORWARD_ARG)); \
; 881  : 		_STD rotate(begin() + _Off, end() - 1, end()); \
; 882  : 		return (begin() + _Off); \
; 883  : 		}
; 884  : 
; 885  :  #if _ITERATOR_DEBUG_LEVEL == 2
; 886  : #define _VECTOR_EMPLACE_CHECK \
; 887  : 		if (size() < _Off) \
; 888  : 			_DEBUG_ERROR("vector emplace iterator outside range");
; 889  : 
; 890  :  #else /* _ITERATOR_DEBUG_LEVEL == 2 */
; 891  : #define _VECTOR_EMPLACE_CHECK
; 892  :  #endif /* _ITERATOR_DEBUG_LEVEL == 2 */
; 893  : 
; 894  : _VARIADIC_EXPAND_0X(_VECTOR_EMPLACE, , , , )
; 895  : #undef _VECTOR_EMPLACE_CHECK
; 896  : #undef _VECTOR_EMPLACE
; 897  : 
; 898  : 	~vector() _NOEXCEPT
; 899  : 		{	// destroy the object
; 900  : 		_Tidy();
; 901  : 		}
; 902  : 
; 903  : 	_Myt& operator=(const _Myt& _Right)
; 904  : 		{	// assign _Right
; 905  : 		if (this != &_Right)
; 906  : 			{	// different, assign it
; 907  :  #if _HAS_CPP0X
; 908  : 			if (this->_Getal() != _Right._Getal()
; 909  : 				&& _Alty::propagate_on_container_copy_assignment::value)
; 910  : 				{	// change allocator before copying
; 911  : 				_Tidy();
; 912  : 				this->_Change_alloc(_Right._Getal());
; 913  : 				}
; 914  :  #endif /* _HAS_CPP0X */
; 915  : 
; 916  : 			this->_Orphan_all();
; 917  : 
; 918  : 			if (_Right.empty())
; 919  : 				clear();	// new sequence empty, erase existing sequence
; 920  : 			else if (_Right.size() <= size())
; 921  : 				{	// enough elements, copy new and destroy old
; 922  : 				pointer _Ptr = _Copy_impl(_Right._Myfirst,
; 923  : 					_Right._Mylast, this->_Myfirst);	// copy new
; 924  : 				_Destroy(_Ptr, this->_Mylast);	// destroy old
; 925  : 				this->_Mylast = this->_Myfirst + _Right.size();
; 926  : 				}
; 927  : 			else if (_Right.size() <= capacity())
; 928  : 				{	// enough room, copy and construct new
; 929  : 				pointer _Ptr = _Right._Myfirst + size();
; 930  : 				_Copy_impl(_Right._Myfirst,
; 931  : 					_Ptr, this->_Myfirst);
; 932  : 				this->_Mylast = _Ucopy(_Ptr, _Right._Mylast, this->_Mylast);
; 933  : 				}
; 934  : 			else
; 935  : 				{	// not enough room, allocate new array and construct new
; 936  : 				if (this->_Myfirst != pointer())
; 937  : 					{	// discard old array
; 938  : 					_Destroy(this->_Myfirst, this->_Mylast);
; 939  : 					this->_Getal().deallocate(this->_Myfirst,
; 940  : 						this->_Myend - this->_Myfirst);
; 941  : 					}
; 942  : 				if (_Buy(_Right.size()))
; 943  : 					_TRY_BEGIN
; 944  : 					this->_Mylast = _Ucopy(_Right._Myfirst, _Right._Mylast,
; 945  : 						this->_Myfirst);
; 946  : 					_CATCH_ALL
; 947  : 					_Tidy();
; 948  : 					_RERAISE;
; 949  : 					_CATCH_END
; 950  : 				}
; 951  : 			}
; 952  : 		return (*this);
; 953  : 		}
; 954  : 
; 955  : 	void reserve(size_type _Count)
; 956  : 		{	// determine new minimum length of allocated storage
; 957  : 		if (capacity() < _Count)
; 958  : 			{	// something to do, check and reallocate
; 959  : 			if (max_size() < _Count)
; 960  : 				_Xlen();
; 961  : 			_Reallocate(_Count);
; 962  : 			}
; 963  : 		}
; 964  : 
; 965  : 	size_type capacity() const _NOEXCEPT
; 966  : 		{	// return current length of allocated storage
; 967  : 		return (this->_Myend - this->_Myfirst);

  00732	4d 2b c2	 sub	 r8, r10
  00735	49 c1 f8 05	 sar	 r8, 5

; 1088 : 		}
; 1089 : 
; 1090 : 	size_type max_size() const _NOEXCEPT
; 1091 : 		{	// return maximum possible length of sequence
; 1092 : 		return (this->_Getal().max_size());
; 1093 : 		}
; 1094 : 
; 1095 : 	bool empty() const _NOEXCEPT
; 1096 : 		{	// test if sequence is empty
; 1097 : 		return (this->_Myfirst == this->_Mylast);
; 1098 : 		}
; 1099 : 
; 1100 : 	_Alloc get_allocator() const _NOEXCEPT
; 1101 : 		{	// return allocator object for values
; 1102 : 		return (this->_Getal());
; 1103 : 		}
; 1104 : 
; 1105 : 	const_reference at(size_type _Pos) const
; 1106 : 		{	// subscript nonmutable sequence with checking
; 1107 : 		if (size() <= _Pos)
; 1108 : 			_Xran();
; 1109 : 		return (*(this->_Myfirst + _Pos));
; 1110 : 		}
; 1111 : 
; 1112 : 	reference at(size_type _Pos)
; 1113 : 		{	// subscript mutable sequence with checking
; 1114 : 		if (size() <= _Pos)
; 1115 : 			_Xran();
; 1116 : 		return (*(this->_Myfirst + _Pos));
; 1117 : 		}
; 1118 : 
; 1119 : 	const_reference operator[](size_type _Pos) const
; 1120 : 		{	// subscript nonmutable sequence
; 1121 :  #if _ITERATOR_DEBUG_LEVEL == 2
; 1122 : 		if (size() <= _Pos)
; 1123 : 			{	// report error
; 1124 : 			_DEBUG_ERROR("vector subscript out of range");
; 1125 : 			_SCL_SECURE_OUT_OF_RANGE;
; 1126 : 			}
; 1127 : 
; 1128 :  #elif _ITERATOR_DEBUG_LEVEL == 1
; 1129 : 		_SCL_SECURE_VALIDATE_RANGE(_Pos < size());
; 1130 :  #endif /* _ITERATOR_DEBUG_LEVEL */
; 1131 : 
; 1132 : 		return (*(this->_Myfirst + _Pos));
; 1133 : 		}
; 1134 : 
; 1135 : 	reference operator[](size_type _Pos)
; 1136 : 		{	// subscript mutable sequence
; 1137 :  #if _ITERATOR_DEBUG_LEVEL == 2
; 1138 : 		if (size() <= _Pos)
; 1139 : 			{	// report error
; 1140 : 			_DEBUG_ERROR("vector subscript out of range");
; 1141 : 			_SCL_SECURE_OUT_OF_RANGE;
; 1142 : 			}
; 1143 : 
; 1144 :  #elif _ITERATOR_DEBUG_LEVEL == 1
; 1145 : 		_SCL_SECURE_VALIDATE_RANGE(_Pos < size());
; 1146 :  #endif /* _ITERATOR_DEBUG_LEVEL */
; 1147 : 
; 1148 : 		return (*(this->_Myfirst + _Pos));
; 1149 : 		}
; 1150 : 
; 1151 :  #if _HAS_CPP0X
; 1152 : 	pointer data() _NOEXCEPT
; 1153 : 		{	// return address of first element
; 1154 : 		return (this->_Myfirst);
; 1155 : 		}
; 1156 : 
; 1157 : 	const_pointer data() const _NOEXCEPT
; 1158 : 		{	// return address of first element
; 1159 : 		return (this->_Myfirst);
; 1160 : 		}
; 1161 :  #endif /* _HAS_CPP0X */
; 1162 : 
; 1163 : 	reference front()
; 1164 : 		{	// return first element of mutable sequence
; 1165 : 		return (*begin());
; 1166 : 		}
; 1167 : 
; 1168 : 	const_reference front() const
; 1169 : 		{	// return first element of nonmutable sequence
; 1170 : 		return (*begin());
; 1171 : 		}
; 1172 : 
; 1173 : 	reference back()
; 1174 : 		{	// return last element of mutable sequence
; 1175 : 		return (*(end() - 1));
; 1176 : 		}
; 1177 : 
; 1178 : 	const_reference back() const
; 1179 : 		{	// return last element of nonmutable sequence
; 1180 : 		return (*(end() - 1));
; 1181 : 		}
; 1182 : 
; 1183 : 	void push_back(const value_type& _Val)
; 1184 : 		{	// insert element at end
; 1185 : 		if (_Inside(_STD addressof(_Val)))
; 1186 : 			{	// push back an element
; 1187 : 			size_type _Idx = _STD addressof(_Val) - this->_Myfirst;
; 1188 : 			if (this->_Mylast == this->_Myend)
; 1189 : 				_Reserve(1);
; 1190 : 			_Orphan_range(this->_Mylast, this->_Mylast);
; 1191 : 			this->_Getal().construct(this->_Mylast,
; 1192 : 				this->_Myfirst[_Idx]);
; 1193 : 			++this->_Mylast;
; 1194 : 			}
; 1195 : 		else
; 1196 : 			{	// push back a non-element
; 1197 : 			if (this->_Mylast == this->_Myend)
; 1198 : 				_Reserve(1);
; 1199 : 			_Orphan_range(this->_Mylast, this->_Mylast);
; 1200 : 			this->_Getal().construct(this->_Mylast,
; 1201 : 				_Val);
; 1202 : 			++this->_Mylast;
; 1203 : 			}
; 1204 : 		}
; 1205 : 
; 1206 :  #if _ITERATOR_DEBUG_LEVEL == 2
; 1207 : 	void pop_back()
; 1208 : 		{	// erase element at end
; 1209 : 		if (empty())
; 1210 : 			_DEBUG_ERROR("vector empty before pop");
; 1211 : 		else
; 1212 : 			{	// erase last element
; 1213 : 			_Orphan_range(this->_Mylast - 1, this->_Mylast);
; 1214 : 			this->_Getal().destroy(this->_Mylast - 1);
; 1215 : 			--this->_Mylast;
; 1216 : 			}
; 1217 : 		}
; 1218 : 
; 1219 :  #else /* _ITERATOR_DEBUG_LEVEL == 2 */
; 1220 : 	void pop_back()
; 1221 : 		{	// erase element at end
; 1222 : 		if (!empty())
; 1223 : 			{	// erase last element
; 1224 : 			this->_Getal().destroy(this->_Mylast - 1);
; 1225 : 			--this->_Mylast;
; 1226 : 			}
; 1227 : 		}
; 1228 :  #endif /* _ITERATOR_DEBUG_LEVEL == 2 */
; 1229 : 
; 1230 : 	template<class _Iter>
; 1231 : 		typename enable_if<_Is_iterator<_Iter>::value,
; 1232 : 			void>::type
; 1233 : 		assign(_Iter _First, _Iter _Last)
; 1234 : 		{	// assign [_First, _Last), input iterators
; 1235 : 		erase(begin(), end());
; 1236 : 		insert(begin(), _First, _Last);
; 1237 : 		}
; 1238 : 
; 1239 : 	void assign(size_type _Count, const value_type& _Val)
; 1240 : 		{	// assign _Count * _Val
; 1241 : 		_Assign_n(_Count, _Val);
; 1242 : 		}
; 1243 : 
; 1244 : 	iterator insert(const_iterator _Where, const _Ty& _Val)
; 1245 : 		{	// insert _Val at _Where
; 1246 : 		return (_Insert_n(_Where, (size_type)1, _Val));
; 1247 : 		}
; 1248 : 
; 1249 : 	iterator insert(const_iterator _Where, size_type _Count,
; 1250 : 		const _Ty& _Val)
; 1251 : 		{	// insert _Count * _Val at _Where
; 1252 : 		return (_Insert_n(_Where, _Count, _Val));
; 1253 : 		}
; 1254 : 
; 1255 : 	template<class _Iter>
; 1256 : 		typename enable_if<_Is_iterator<_Iter>::value,
; 1257 : 			iterator>::type
; 1258 : 		insert(const_iterator _Where, _Iter _First, _Iter _Last)
; 1259 : 		{	// insert [_First, _Last) at _Where
; 1260 : 		size_type _Off = _VIPTR(_Where) - this->_Myfirst;
; 1261 : 		_Insert(_Where, _First, _Last, _Iter_cat(_First));
; 1262 : 		return (begin() + _Off);
; 1263 : 		}
; 1264 : 
; 1265 : 	template<class _Iter>
; 1266 : 		void _Insert(const_iterator _Where, _Iter _First, _Iter _Last,
; 1267 : 			input_iterator_tag)
; 1268 : 		{	// insert [_First, _Last) at _Where, input iterators
; 1269 : 		size_type _Off = _VIPTR(_Where) - this->_Myfirst;
; 1270 : 
; 1271 :  #if _ITERATOR_DEBUG_LEVEL == 2
; 1272 : 		if (size() < _Off)
; 1273 : 			_DEBUG_ERROR("vector insert iterator outside range");
; 1274 :  #endif /* _ITERATOR_DEBUG_LEVEL == 2 */
; 1275 : 
; 1276 : 		if (_First != _Last)
; 1277 : 			{	// worth doing, gather at end and rotate into place
; 1278 : 			size_type _Oldsize = size();
; 1279 : 
; 1280 : 			_TRY_BEGIN
; 1281 : 			for (; _First != _Last; ++_First)
; 1282 : 				push_back(*_First);	// append
; 1283 : 
; 1284 : 			_CATCH_ALL
; 1285 : 			erase(begin() + _Oldsize, end());
; 1286 : 			_RERAISE;
; 1287 : 			_CATCH_END
; 1288 : 
; 1289 : 			_STD rotate(begin() + _Off, begin() + _Oldsize, end());
; 1290 : 			}
; 1291 : 		}
; 1292 : 
; 1293 : 	template<class _Iter>
; 1294 : 		void _Insert(const_iterator _Where, _Iter _First, _Iter _Last,
; 1295 : 			forward_iterator_tag)
; 1296 : 		{	// insert [_First, _Last) at _Where, forward iterators
; 1297 :  #if _ITERATOR_DEBUG_LEVEL == 2
; 1298 : 		if (_VICONT(_Where) != this
; 1299 : 			|| _VIPTR(_Where) < this->_Myfirst
; 1300 : 			|| this->_Mylast < _VIPTR(_Where))
; 1301 : 			_DEBUG_ERROR("vector insert iterator outside range");
; 1302 : 		_DEBUG_RANGE(_First, _Last);
; 1303 :  #endif /* _ITERATOR_DEBUG_LEVEL == 2 */
; 1304 : 
; 1305 : 		size_type _Count = 0;
; 1306 : 		_Distance(_First, _Last, _Count);
; 1307 : 
; 1308 : 		if (_Count == 0)
; 1309 : 			;
; 1310 : 		else if (_Unused_capacity() < _Count)
; 1311 : 			{	// not enough room, reallocate
; 1312 : 			if (max_size() - size() < _Count)
; 1313 : 				_Xlen();	// result too long
; 1314 : 
; 1315 : 			size_type _Capacity = _Grow_to(size() + _Count);
; 1316 : 			pointer _Newvec = this->_Getal().allocate(_Capacity);
; 1317 : 			pointer _Ptr = _Newvec;
; 1318 : 
; 1319 : 			_TRY_BEGIN
; 1320 : 			_Ptr = _Umove(this->_Myfirst, _VIPTR(_Where),
; 1321 : 				_Newvec);	// copy prefix
; 1322 : 			_Ptr = _Ucopy(_First, _Last, _Ptr);	// add new stuff
; 1323 : 			_Umove(_VIPTR(_Where), this->_Mylast,
; 1324 : 				_Ptr);	// copy suffix
; 1325 : 			_CATCH_ALL
; 1326 : 			_Destroy(_Newvec, _Ptr);
; 1327 : 			this->_Getal().deallocate(_Newvec, _Capacity);
; 1328 : 			_RERAISE;
; 1329 : 			_CATCH_END
; 1330 : 
; 1331 : 			_Count += size();
; 1332 : 			if (this->_Myfirst != pointer())
; 1333 : 				{	// destroy and deallocate old array
; 1334 : 				_Destroy(this->_Myfirst, this->_Mylast);
; 1335 : 				this->_Getal().deallocate(this->_Myfirst,
; 1336 : 					this->_Myend - this->_Myfirst);
; 1337 : 				}
; 1338 : 
; 1339 : 			this->_Orphan_all();
; 1340 : 			this->_Myend = _Newvec + _Capacity;
; 1341 : 			this->_Mylast = _Newvec + _Count;
; 1342 : 			this->_Myfirst = _Newvec;
; 1343 : 			}
; 1344 : 		else
; 1345 : 			{	// new stuff fits, append and rotate into place
; 1346 : 			_Ucopy(_First, _Last, this->_Mylast);
; 1347 : 			_STD rotate(_VIPTR(_Where), this->_Mylast,
; 1348 : 				this->_Mylast + _Count);
; 1349 : 			this->_Mylast += _Count;
; 1350 : 			_Orphan_range(_VIPTR(_Where), this->_Mylast);
; 1351 : 			}
; 1352 : 		}
; 1353 : 
; 1354 :  #if _ITERATOR_DEBUG_LEVEL == 2
; 1355 : 	iterator erase(const_iterator _Where)
; 1356 : 		{	// erase element at where
; 1357 : 		if (_VICONT(_Where) != this
; 1358 : 			|| _VIPTR(_Where) < this->_Myfirst
; 1359 : 			|| this->_Mylast <= _VIPTR(_Where))
; 1360 : 			_DEBUG_ERROR("vector erase iterator outside range");
; 1361 : 		_Move(_VIPTR(_Where) + 1, this->_Mylast, _VIPTR(_Where));
; 1362 : 		_Destroy(this->_Mylast - 1, this->_Mylast);
; 1363 : 		_Orphan_range(_VIPTR(_Where), this->_Mylast);
; 1364 : 		--this->_Mylast;
; 1365 : 		return (_Make_iter(_Where));
; 1366 : 		}
; 1367 : 
; 1368 :  #else /* _ITERATOR_DEBUG_LEVEL == 2 */
; 1369 : 	iterator erase(const_iterator _Where)
; 1370 : 		{	// erase element at where
; 1371 : 		_Move(_VIPTR(_Where) + 1, this->_Mylast,
; 1372 : 			_VIPTR(_Where));
; 1373 : 		_Destroy(this->_Mylast - 1, this->_Mylast);
; 1374 : 		--this->_Mylast;
; 1375 : 		return (_Make_iter(_Where));
; 1376 : 		}
; 1377 :  #endif /* _ITERATOR_DEBUG_LEVEL == 2 */
; 1378 : 
; 1379 : 	iterator erase(const_iterator _First_arg,
; 1380 : 		const_iterator _Last_arg)
; 1381 : 		{	// erase [_First, _Last)
; 1382 : 		if (_First_arg == begin() && _Last_arg == end())
; 1383 : 			clear();
; 1384 : 		else if (_First_arg != _Last_arg)
; 1385 : 			{	// clear partial
; 1386 : 			iterator _First = _Make_iter(_First_arg);
; 1387 : 			iterator _Last = _Make_iter(_Last_arg);
; 1388 : 
; 1389 : 			if (_First != _Last)
; 1390 : 				{	// worth doing, copy down over hole
; 1391 :  #if _ITERATOR_DEBUG_LEVEL == 2
; 1392 : 				if (_Last < _First || _VICONT(_First) != this
; 1393 : 					|| _VIPTR(_First) < this->_Myfirst
; 1394 : 					|| this->_Mylast < _VIPTR(_Last))
; 1395 : 					_DEBUG_ERROR("vector erase iterator outside range");
; 1396 : 				pointer _Ptr = _Move(_VIPTR(_Last), this->_Mylast,
; 1397 : 					_VIPTR(_First));
; 1398 : 				_Orphan_range(_VIPTR(_First), this->_Mylast);
; 1399 : 
; 1400 :  #else /* _ITERATOR_DEBUG_LEVEL == 2 */
; 1401 : 				pointer _Ptr = _Move(_VIPTR(_Last), this->_Mylast,
; 1402 : 					_VIPTR(_First));
; 1403 :  #endif /* _ITERATOR_DEBUG_LEVEL == 2 */
; 1404 : 
; 1405 : 				_Destroy(_Ptr, this->_Mylast);
; 1406 : 				this->_Mylast = _Ptr;
; 1407 : 				}
; 1408 : 			}
; 1409 : 		return (_Make_iter(_First_arg));
; 1410 : 		}
; 1411 : 
; 1412 : 	void clear() _NOEXCEPT
; 1413 : 		{	// erase all
; 1414 : 		this->_Orphan_all();
; 1415 : 		_Destroy(this->_Myfirst, this->_Mylast);
; 1416 : 		this->_Mylast = this->_Myfirst;
; 1417 : 		}
; 1418 : 
; 1419 : 	void swap(_Myt& _Right)
; 1420 : 		{	// exchange contents with _Right
; 1421 : 		if (this == &_Right)
; 1422 : 			;	// same object, do nothing
; 1423 : 		else if (this->_Getal() == _Right._Getal())
; 1424 : 			{	// same allocator, swap control information
; 1425 : 			this->_Swap_all(_Right);
; 1426 : 			_Swap_adl(this->_Myfirst, _Right._Myfirst);
; 1427 : 			_Swap_adl(this->_Mylast, _Right._Mylast);
; 1428 : 			_Swap_adl(this->_Myend, _Right._Myend);
; 1429 : 			}
; 1430 : 
; 1431 :  #if _HAS_CPP0X
; 1432 : 		else if (_Alty::propagate_on_container_swap::value)
; 1433 : 			{	// swap allocators and control information
; 1434 : 			this->_Swap_alloc(_Right);
; 1435 : 			_Swap_adl(this->_Myfirst, _Right._Myfirst);
; 1436 : 			_Swap_adl(this->_Mylast, _Right._Mylast);
; 1437 : 			_Swap_adl(this->_Myend, _Right._Myend);
; 1438 : 			}
; 1439 :  #endif /* _HAS_CPP0X */
; 1440 : 
; 1441 : 		else
; 1442 : 			{	// different allocator, do multiple moves
; 1443 : 			_Myt _Ts = _Move(*this);
; 1444 : 
; 1445 : 			*this = _Move(_Right);
; 1446 : 			_Right = _Move(_Ts);
; 1447 : 			}
; 1448 : 		}
; 1449 : 
; 1450 : protected:
; 1451 : 	void _Assign_n(size_type _Count, const value_type& _Val)
; 1452 : 		{	// assign _Count * _Val
; 1453 : 		value_type _Tmp = _Val;	// in case _Val is in sequence
; 1454 : 		erase(begin(), end());
; 1455 : 		insert(begin(), _Count, _Tmp);
; 1456 : 		}
; 1457 : 
; 1458 : 	bool _Buy(size_type _Capacity)
; 1459 : 		{	// allocate array with _Capacity elements
; 1460 : 		this->_Myfirst = pointer();
; 1461 : 		this->_Mylast = pointer();
; 1462 : 		this->_Myend = pointer();
; 1463 : 
; 1464 : 		if (_Capacity == 0)
; 1465 : 			return (false);
; 1466 : 		else if (max_size() < _Capacity)
; 1467 : 			_Xlen();	// result too long
; 1468 : 		else
; 1469 : 			{	// nonempty array, allocate storage
; 1470 : 			this->_Myfirst = this->_Getal().allocate(_Capacity);
; 1471 : 			this->_Mylast = this->_Myfirst;
; 1472 : 			this->_Myend = this->_Myfirst + _Capacity;
; 1473 : 			}
; 1474 : 		return (true);
; 1475 : 		}
; 1476 : 
; 1477 : 	void _Destroy(pointer _First, pointer _Last)
; 1478 : 		{	// destroy [_First, _Last) using allocator
; 1479 : 		_Alty _Alval(this->_Getal());
; 1480 : 		_Destroy_range(_First, _Last, _Alval);
; 1481 : 		}
; 1482 : 
; 1483 : 	size_type _Grow_to(size_type _Count) const
; 1484 : 		{	// grow by 50% or at least to _Count
; 1485 : 		size_type _Capacity = capacity();
; 1486 : 
; 1487 : 		_Capacity = max_size() - _Capacity / 2 < _Capacity
; 1488 : 			? 0 : _Capacity + _Capacity / 2;	// try to grow by 50%

  00739	49 8b c8	 mov	 rcx, r8
  0073c	48 d1 e9	 shr	 rcx, 1
  0073f	49 8b c3	 mov	 rax, r11
  00742	48 2b c1	 sub	 rax, rcx
  00745	49 3b c0	 cmp	 rax, r8
  00748	73 05		 jae	 SHORT $LN250@tick
  0074a	45 33 c0	 xor	 r8d, r8d
  0074d	eb 03		 jmp	 SHORT $LN251@tick
$LN250@tick:
  0074f	4c 03 c1	 add	 r8, rcx
$LN251@tick:

; 1489 : 		if (_Capacity < _Count)

  00752	4c 3b c2	 cmp	 r8, rdx
  00755	4c 0f 42 c2	 cmovb	 r8, rdx

; 1529 : 				_Xlen();
; 1530 : 			_Reallocate(_Grow_to(size() + _Count));

  00759	49 8b d0	 mov	 rdx, r8
  0075c	48 8d 4d 80	 lea	 rcx, QWORD PTR lines$[rbp-256]
  00760	e8 00 00 00 00	 call	 ?_Reallocate@?$vector@VLine@geom@@V?$allocator@VLine@geom@@@std@@@std@@IEAAX_K@Z ; std::vector<geom::Line,std::allocator<geom::Line> >::_Reallocate
  00765	4c 8b 45 90	 mov	 r8, QWORD PTR lines$[rbp-240]
  00769	48 8b 55 88	 mov	 rdx, QWORD PTR lines$[rbp-248]
  0076d	4c 8b 55 80	 mov	 r10, QWORD PTR lines$[rbp-256]
  00771	f3 0f 10 5c 24
	78		 movss	 xmm3, DWORD PTR boundingBox$1$[rsp]
  00777	f3 0f 10 65 98	 movss	 xmm4, DWORD PTR tv3591[rbp-256]
  0077c	f3 0f 10 6d a4	 movss	 xmm5, DWORD PTR tv3590[rbp-256]
  00781	49 bb ff ff ff
	ff ff ff ff 07	 mov	 r11, 576460752303423487	; 07ffffffffffffffH
$LN225@tick:

; 841  : 				_Reserve(1);
; 842  : 			_Orphan_range(this->_Mylast, this->_Mylast);
; 843  : 			this->_Getal().construct(this->_Mylast,
; 844  : 				_STD forward<value_type>(this->_Myfirst[_Idx]));

  0078b	48 83 e3 e0	 and	 rbx, -32		; ffffffffffffffe0H
  0078f	49 03 da	 add	 rbx, r10
; File c:\program files (x86)\microsoft visual studio 11.0\vc\include\xmemory0

; 617  : _VARIADIC_EXPAND_0X(_ALLOC_MEMBER_CONSTRUCT, , , , )

  00792	48 85 d2	 test	 rdx, rdx
  00795	0f 84 f1 00 00
	00		 je	 $LN349@tick
; File c:\users\erlend\documents\github\wind\project\wind\wind\geometry.cpp

; 10   : {

  0079b	8b 03		 mov	 eax, DWORD PTR [rbx]
  0079d	89 02		 mov	 DWORD PTR [rdx], eax
  0079f	8b 43 04	 mov	 eax, DWORD PTR [rbx+4]
  007a2	89 42 04	 mov	 DWORD PTR [rdx+4], eax
  007a5	8b 43 08	 mov	 eax, DWORD PTR [rbx+8]
  007a8	89 42 08	 mov	 DWORD PTR [rdx+8], eax
  007ab	8b 43 0c	 mov	 eax, DWORD PTR [rbx+12]
  007ae	89 42 0c	 mov	 DWORD PTR [rdx+12], eax
  007b1	8b 43 10	 mov	 eax, DWORD PTR [rbx+16]
  007b4	89 42 10	 mov	 DWORD PTR [rdx+16], eax
  007b7	8b 43 14	 mov	 eax, DWORD PTR [rbx+20]
  007ba	89 42 14	 mov	 DWORD PTR [rdx+20], eax
  007bd	8b 43 18	 mov	 eax, DWORD PTR [rbx+24]
  007c0	89 42 18	 mov	 DWORD PTR [rdx+24], eax
  007c3	8b 43 1c	 mov	 eax, DWORD PTR [rbx+28]
  007c6	89 42 1c	 mov	 DWORD PTR [rdx+28], eax
; File c:\program files (x86)\microsoft visual studio 11.0\vc\include\vector

; 847  : 		else

  007c9	e9 be 00 00 00	 jmp	 $LN349@tick
$LN213@tick:

; 848  : 			{	// push back a non-element
; 849  : 			if (this->_Mylast == this->_Myend)

  007ce	49 3b d0	 cmp	 rdx, r8
  007d1	0f 85 83 00 00
	00		 jne	 $LN294@tick

; 968  : 		}
; 969  : 
; 970  : 	size_type _Unused_capacity() const _NOEXCEPT
; 971  : 		{	// micro-optimization for capacity() - size()
; 972  : 		return (this->_Myend - this->_Mylast);

  007d7	49 8b c0	 mov	 rax, r8
  007da	48 2b c2	 sub	 rax, rdx
  007dd	48 c1 f8 05	 sar	 rax, 5

; 1497 : 		}
; 1498 : 
; 1499 : 	void _Reallocate(size_type _Count)
; 1500 : 		{	// move to array of exactly _Count elements
; 1501 : 		pointer _Ptr = this->_Getal().allocate(_Count);
; 1502 : 
; 1503 : 		_TRY_BEGIN
; 1504 : 		_Umove(this->_Myfirst, this->_Mylast, _Ptr);
; 1505 : 		_CATCH_ALL
; 1506 : 		this->_Getal().deallocate(_Ptr, _Count);
; 1507 : 		_RERAISE;
; 1508 : 		_CATCH_END
; 1509 : 
; 1510 : 		size_type _Size = size();
; 1511 : 		if (this->_Myfirst != pointer())
; 1512 : 			{	// destroy and deallocate old array
; 1513 : 			_Destroy(this->_Myfirst, this->_Mylast);
; 1514 : 			this->_Getal().deallocate(this->_Myfirst,
; 1515 : 				this->_Myend - this->_Myfirst);
; 1516 : 			}
; 1517 : 
; 1518 : 		this->_Orphan_all();
; 1519 : 		this->_Myend = _Ptr + _Count;
; 1520 : 		this->_Mylast = _Ptr + _Size;
; 1521 : 		this->_Myfirst = _Ptr;
; 1522 : 		}
; 1523 : 
; 1524 : 	void _Reserve(size_type _Count)
; 1525 : 		{	// ensure room for _Count new elements, grow exponentially
; 1526 : 		if (_Unused_capacity() < _Count)

  007e1	48 83 f8 01	 cmp	 rax, 1
  007e5	73 73		 jae	 SHORT $LN294@tick

; 1087 : 		return (this->_Mylast - this->_Myfirst);

  007e7	49 2b d2	 sub	 rdx, r10
  007ea	48 c1 fa 05	 sar	 rdx, 5

; 1527 : 			{	// need more room, try to get it
; 1528 : 			if (max_size() - size() < _Count)

  007ee	49 8b c3	 mov	 rax, r11
  007f1	48 2b c2	 sub	 rax, rdx
  007f4	48 83 f8 01	 cmp	 rax, 1
  007f8	0f 82 26 01 00
	00		 jb	 $LN669@tick

; 1529 : 				_Xlen();
; 1530 : 			_Reallocate(_Grow_to(size() + _Count));

  007fe	48 ff c2	 inc	 rdx

; 855  : 			}
; 856  : 		}
; 857  : 
; 858  : 	iterator insert(const_iterator _Where, _Ty&& _Val)
; 859  : 		{	// insert by moving _Val at _Where
; 860  : 		return (emplace(_Where, _STD move(_Val)));
; 861  : 		}
; 862  : 
; 863  : #define _VECTOR_EMPLACE( \
; 864  : 	TEMPLATE_LIST, PADDING_LIST, LIST, COMMA, X1, X2, X3, X4) \
; 865  : 	TEMPLATE_LIST(_CLASS_TYPE) \
; 866  : 		void emplace_back(LIST(_TYPE_REFREF_ARG)) \
; 867  : 		{	/* insert by moving into element at end */ \
; 868  : 		if (this->_Mylast == this->_Myend) \
; 869  : 			_Reserve(1); \
; 870  : 		_Orphan_range(this->_Mylast, this->_Mylast); \
; 871  : 		this->_Getal().construct(this->_Mylast COMMA LIST(_FORWARD_ARG)); \
; 872  : 		++this->_Mylast; \
; 873  : 		} \
; 874  : 	TEMPLATE_LIST(_CLASS_TYPE) \
; 875  : 		iterator emplace(const_iterator _Where \
; 876  : 			COMMA LIST(_TYPE_REFREF_ARG)) \
; 877  : 		{	/* insert by moving _Val at _Where */ \
; 878  : 		size_type _Off = _VIPTR(_Where) - this->_Myfirst; \
; 879  : 		_VECTOR_EMPLACE_CHECK \
; 880  : 		emplace_back(LIST(_FORWARD_ARG)); \
; 881  : 		_STD rotate(begin() + _Off, end() - 1, end()); \
; 882  : 		return (begin() + _Off); \
; 883  : 		}
; 884  : 
; 885  :  #if _ITERATOR_DEBUG_LEVEL == 2
; 886  : #define _VECTOR_EMPLACE_CHECK \
; 887  : 		if (size() < _Off) \
; 888  : 			_DEBUG_ERROR("vector emplace iterator outside range");
; 889  : 
; 890  :  #else /* _ITERATOR_DEBUG_LEVEL == 2 */
; 891  : #define _VECTOR_EMPLACE_CHECK
; 892  :  #endif /* _ITERATOR_DEBUG_LEVEL == 2 */
; 893  : 
; 894  : _VARIADIC_EXPAND_0X(_VECTOR_EMPLACE, , , , )
; 895  : #undef _VECTOR_EMPLACE_CHECK
; 896  : #undef _VECTOR_EMPLACE
; 897  : 
; 898  : 	~vector() _NOEXCEPT
; 899  : 		{	// destroy the object
; 900  : 		_Tidy();
; 901  : 		}
; 902  : 
; 903  : 	_Myt& operator=(const _Myt& _Right)
; 904  : 		{	// assign _Right
; 905  : 		if (this != &_Right)
; 906  : 			{	// different, assign it
; 907  :  #if _HAS_CPP0X
; 908  : 			if (this->_Getal() != _Right._Getal()
; 909  : 				&& _Alty::propagate_on_container_copy_assignment::value)
; 910  : 				{	// change allocator before copying
; 911  : 				_Tidy();
; 912  : 				this->_Change_alloc(_Right._Getal());
; 913  : 				}
; 914  :  #endif /* _HAS_CPP0X */
; 915  : 
; 916  : 			this->_Orphan_all();
; 917  : 
; 918  : 			if (_Right.empty())
; 919  : 				clear();	// new sequence empty, erase existing sequence
; 920  : 			else if (_Right.size() <= size())
; 921  : 				{	// enough elements, copy new and destroy old
; 922  : 				pointer _Ptr = _Copy_impl(_Right._Myfirst,
; 923  : 					_Right._Mylast, this->_Myfirst);	// copy new
; 924  : 				_Destroy(_Ptr, this->_Mylast);	// destroy old
; 925  : 				this->_Mylast = this->_Myfirst + _Right.size();
; 926  : 				}
; 927  : 			else if (_Right.size() <= capacity())
; 928  : 				{	// enough room, copy and construct new
; 929  : 				pointer _Ptr = _Right._Myfirst + size();
; 930  : 				_Copy_impl(_Right._Myfirst,
; 931  : 					_Ptr, this->_Myfirst);
; 932  : 				this->_Mylast = _Ucopy(_Ptr, _Right._Mylast, this->_Mylast);
; 933  : 				}
; 934  : 			else
; 935  : 				{	// not enough room, allocate new array and construct new
; 936  : 				if (this->_Myfirst != pointer())
; 937  : 					{	// discard old array
; 938  : 					_Destroy(this->_Myfirst, this->_Mylast);
; 939  : 					this->_Getal().deallocate(this->_Myfirst,
; 940  : 						this->_Myend - this->_Myfirst);
; 941  : 					}
; 942  : 				if (_Buy(_Right.size()))
; 943  : 					_TRY_BEGIN
; 944  : 					this->_Mylast = _Ucopy(_Right._Myfirst, _Right._Mylast,
; 945  : 						this->_Myfirst);
; 946  : 					_CATCH_ALL
; 947  : 					_Tidy();
; 948  : 					_RERAISE;
; 949  : 					_CATCH_END
; 950  : 				}
; 951  : 			}
; 952  : 		return (*this);
; 953  : 		}
; 954  : 
; 955  : 	void reserve(size_type _Count)
; 956  : 		{	// determine new minimum length of allocated storage
; 957  : 		if (capacity() < _Count)
; 958  : 			{	// something to do, check and reallocate
; 959  : 			if (max_size() < _Count)
; 960  : 				_Xlen();
; 961  : 			_Reallocate(_Count);
; 962  : 			}
; 963  : 		}
; 964  : 
; 965  : 	size_type capacity() const _NOEXCEPT
; 966  : 		{	// return current length of allocated storage
; 967  : 		return (this->_Myend - this->_Myfirst);

  00801	4d 2b c2	 sub	 r8, r10
  00804	49 c1 f8 05	 sar	 r8, 5

; 1088 : 		}
; 1089 : 
; 1090 : 	size_type max_size() const _NOEXCEPT
; 1091 : 		{	// return maximum possible length of sequence
; 1092 : 		return (this->_Getal().max_size());
; 1093 : 		}
; 1094 : 
; 1095 : 	bool empty() const _NOEXCEPT
; 1096 : 		{	// test if sequence is empty
; 1097 : 		return (this->_Myfirst == this->_Mylast);
; 1098 : 		}
; 1099 : 
; 1100 : 	_Alloc get_allocator() const _NOEXCEPT
; 1101 : 		{	// return allocator object for values
; 1102 : 		return (this->_Getal());
; 1103 : 		}
; 1104 : 
; 1105 : 	const_reference at(size_type _Pos) const
; 1106 : 		{	// subscript nonmutable sequence with checking
; 1107 : 		if (size() <= _Pos)
; 1108 : 			_Xran();
; 1109 : 		return (*(this->_Myfirst + _Pos));
; 1110 : 		}
; 1111 : 
; 1112 : 	reference at(size_type _Pos)
; 1113 : 		{	// subscript mutable sequence with checking
; 1114 : 		if (size() <= _Pos)
; 1115 : 			_Xran();
; 1116 : 		return (*(this->_Myfirst + _Pos));
; 1117 : 		}
; 1118 : 
; 1119 : 	const_reference operator[](size_type _Pos) const
; 1120 : 		{	// subscript nonmutable sequence
; 1121 :  #if _ITERATOR_DEBUG_LEVEL == 2
; 1122 : 		if (size() <= _Pos)
; 1123 : 			{	// report error
; 1124 : 			_DEBUG_ERROR("vector subscript out of range");
; 1125 : 			_SCL_SECURE_OUT_OF_RANGE;
; 1126 : 			}
; 1127 : 
; 1128 :  #elif _ITERATOR_DEBUG_LEVEL == 1
; 1129 : 		_SCL_SECURE_VALIDATE_RANGE(_Pos < size());
; 1130 :  #endif /* _ITERATOR_DEBUG_LEVEL */
; 1131 : 
; 1132 : 		return (*(this->_Myfirst + _Pos));
; 1133 : 		}
; 1134 : 
; 1135 : 	reference operator[](size_type _Pos)
; 1136 : 		{	// subscript mutable sequence
; 1137 :  #if _ITERATOR_DEBUG_LEVEL == 2
; 1138 : 		if (size() <= _Pos)
; 1139 : 			{	// report error
; 1140 : 			_DEBUG_ERROR("vector subscript out of range");
; 1141 : 			_SCL_SECURE_OUT_OF_RANGE;
; 1142 : 			}
; 1143 : 
; 1144 :  #elif _ITERATOR_DEBUG_LEVEL == 1
; 1145 : 		_SCL_SECURE_VALIDATE_RANGE(_Pos < size());
; 1146 :  #endif /* _ITERATOR_DEBUG_LEVEL */
; 1147 : 
; 1148 : 		return (*(this->_Myfirst + _Pos));
; 1149 : 		}
; 1150 : 
; 1151 :  #if _HAS_CPP0X
; 1152 : 	pointer data() _NOEXCEPT
; 1153 : 		{	// return address of first element
; 1154 : 		return (this->_Myfirst);
; 1155 : 		}
; 1156 : 
; 1157 : 	const_pointer data() const _NOEXCEPT
; 1158 : 		{	// return address of first element
; 1159 : 		return (this->_Myfirst);
; 1160 : 		}
; 1161 :  #endif /* _HAS_CPP0X */
; 1162 : 
; 1163 : 	reference front()
; 1164 : 		{	// return first element of mutable sequence
; 1165 : 		return (*begin());
; 1166 : 		}
; 1167 : 
; 1168 : 	const_reference front() const
; 1169 : 		{	// return first element of nonmutable sequence
; 1170 : 		return (*begin());
; 1171 : 		}
; 1172 : 
; 1173 : 	reference back()
; 1174 : 		{	// return last element of mutable sequence
; 1175 : 		return (*(end() - 1));
; 1176 : 		}
; 1177 : 
; 1178 : 	const_reference back() const
; 1179 : 		{	// return last element of nonmutable sequence
; 1180 : 		return (*(end() - 1));
; 1181 : 		}
; 1182 : 
; 1183 : 	void push_back(const value_type& _Val)
; 1184 : 		{	// insert element at end
; 1185 : 		if (_Inside(_STD addressof(_Val)))
; 1186 : 			{	// push back an element
; 1187 : 			size_type _Idx = _STD addressof(_Val) - this->_Myfirst;
; 1188 : 			if (this->_Mylast == this->_Myend)
; 1189 : 				_Reserve(1);
; 1190 : 			_Orphan_range(this->_Mylast, this->_Mylast);
; 1191 : 			this->_Getal().construct(this->_Mylast,
; 1192 : 				this->_Myfirst[_Idx]);
; 1193 : 			++this->_Mylast;
; 1194 : 			}
; 1195 : 		else
; 1196 : 			{	// push back a non-element
; 1197 : 			if (this->_Mylast == this->_Myend)
; 1198 : 				_Reserve(1);
; 1199 : 			_Orphan_range(this->_Mylast, this->_Mylast);
; 1200 : 			this->_Getal().construct(this->_Mylast,
; 1201 : 				_Val);
; 1202 : 			++this->_Mylast;
; 1203 : 			}
; 1204 : 		}
; 1205 : 
; 1206 :  #if _ITERATOR_DEBUG_LEVEL == 2
; 1207 : 	void pop_back()
; 1208 : 		{	// erase element at end
; 1209 : 		if (empty())
; 1210 : 			_DEBUG_ERROR("vector empty before pop");
; 1211 : 		else
; 1212 : 			{	// erase last element
; 1213 : 			_Orphan_range(this->_Mylast - 1, this->_Mylast);
; 1214 : 			this->_Getal().destroy(this->_Mylast - 1);
; 1215 : 			--this->_Mylast;
; 1216 : 			}
; 1217 : 		}
; 1218 : 
; 1219 :  #else /* _ITERATOR_DEBUG_LEVEL == 2 */
; 1220 : 	void pop_back()
; 1221 : 		{	// erase element at end
; 1222 : 		if (!empty())
; 1223 : 			{	// erase last element
; 1224 : 			this->_Getal().destroy(this->_Mylast - 1);
; 1225 : 			--this->_Mylast;
; 1226 : 			}
; 1227 : 		}
; 1228 :  #endif /* _ITERATOR_DEBUG_LEVEL == 2 */
; 1229 : 
; 1230 : 	template<class _Iter>
; 1231 : 		typename enable_if<_Is_iterator<_Iter>::value,
; 1232 : 			void>::type
; 1233 : 		assign(_Iter _First, _Iter _Last)
; 1234 : 		{	// assign [_First, _Last), input iterators
; 1235 : 		erase(begin(), end());
; 1236 : 		insert(begin(), _First, _Last);
; 1237 : 		}
; 1238 : 
; 1239 : 	void assign(size_type _Count, const value_type& _Val)
; 1240 : 		{	// assign _Count * _Val
; 1241 : 		_Assign_n(_Count, _Val);
; 1242 : 		}
; 1243 : 
; 1244 : 	iterator insert(const_iterator _Where, const _Ty& _Val)
; 1245 : 		{	// insert _Val at _Where
; 1246 : 		return (_Insert_n(_Where, (size_type)1, _Val));
; 1247 : 		}
; 1248 : 
; 1249 : 	iterator insert(const_iterator _Where, size_type _Count,
; 1250 : 		const _Ty& _Val)
; 1251 : 		{	// insert _Count * _Val at _Where
; 1252 : 		return (_Insert_n(_Where, _Count, _Val));
; 1253 : 		}
; 1254 : 
; 1255 : 	template<class _Iter>
; 1256 : 		typename enable_if<_Is_iterator<_Iter>::value,
; 1257 : 			iterator>::type
; 1258 : 		insert(const_iterator _Where, _Iter _First, _Iter _Last)
; 1259 : 		{	// insert [_First, _Last) at _Where
; 1260 : 		size_type _Off = _VIPTR(_Where) - this->_Myfirst;
; 1261 : 		_Insert(_Where, _First, _Last, _Iter_cat(_First));
; 1262 : 		return (begin() + _Off);
; 1263 : 		}
; 1264 : 
; 1265 : 	template<class _Iter>
; 1266 : 		void _Insert(const_iterator _Where, _Iter _First, _Iter _Last,
; 1267 : 			input_iterator_tag)
; 1268 : 		{	// insert [_First, _Last) at _Where, input iterators
; 1269 : 		size_type _Off = _VIPTR(_Where) - this->_Myfirst;
; 1270 : 
; 1271 :  #if _ITERATOR_DEBUG_LEVEL == 2
; 1272 : 		if (size() < _Off)
; 1273 : 			_DEBUG_ERROR("vector insert iterator outside range");
; 1274 :  #endif /* _ITERATOR_DEBUG_LEVEL == 2 */
; 1275 : 
; 1276 : 		if (_First != _Last)
; 1277 : 			{	// worth doing, gather at end and rotate into place
; 1278 : 			size_type _Oldsize = size();
; 1279 : 
; 1280 : 			_TRY_BEGIN
; 1281 : 			for (; _First != _Last; ++_First)
; 1282 : 				push_back(*_First);	// append
; 1283 : 
; 1284 : 			_CATCH_ALL
; 1285 : 			erase(begin() + _Oldsize, end());
; 1286 : 			_RERAISE;
; 1287 : 			_CATCH_END
; 1288 : 
; 1289 : 			_STD rotate(begin() + _Off, begin() + _Oldsize, end());
; 1290 : 			}
; 1291 : 		}
; 1292 : 
; 1293 : 	template<class _Iter>
; 1294 : 		void _Insert(const_iterator _Where, _Iter _First, _Iter _Last,
; 1295 : 			forward_iterator_tag)
; 1296 : 		{	// insert [_First, _Last) at _Where, forward iterators
; 1297 :  #if _ITERATOR_DEBUG_LEVEL == 2
; 1298 : 		if (_VICONT(_Where) != this
; 1299 : 			|| _VIPTR(_Where) < this->_Myfirst
; 1300 : 			|| this->_Mylast < _VIPTR(_Where))
; 1301 : 			_DEBUG_ERROR("vector insert iterator outside range");
; 1302 : 		_DEBUG_RANGE(_First, _Last);
; 1303 :  #endif /* _ITERATOR_DEBUG_LEVEL == 2 */
; 1304 : 
; 1305 : 		size_type _Count = 0;
; 1306 : 		_Distance(_First, _Last, _Count);
; 1307 : 
; 1308 : 		if (_Count == 0)
; 1309 : 			;
; 1310 : 		else if (_Unused_capacity() < _Count)
; 1311 : 			{	// not enough room, reallocate
; 1312 : 			if (max_size() - size() < _Count)
; 1313 : 				_Xlen();	// result too long
; 1314 : 
; 1315 : 			size_type _Capacity = _Grow_to(size() + _Count);
; 1316 : 			pointer _Newvec = this->_Getal().allocate(_Capacity);
; 1317 : 			pointer _Ptr = _Newvec;
; 1318 : 
; 1319 : 			_TRY_BEGIN
; 1320 : 			_Ptr = _Umove(this->_Myfirst, _VIPTR(_Where),
; 1321 : 				_Newvec);	// copy prefix
; 1322 : 			_Ptr = _Ucopy(_First, _Last, _Ptr);	// add new stuff
; 1323 : 			_Umove(_VIPTR(_Where), this->_Mylast,
; 1324 : 				_Ptr);	// copy suffix
; 1325 : 			_CATCH_ALL
; 1326 : 			_Destroy(_Newvec, _Ptr);
; 1327 : 			this->_Getal().deallocate(_Newvec, _Capacity);
; 1328 : 			_RERAISE;
; 1329 : 			_CATCH_END
; 1330 : 
; 1331 : 			_Count += size();
; 1332 : 			if (this->_Myfirst != pointer())
; 1333 : 				{	// destroy and deallocate old array
; 1334 : 				_Destroy(this->_Myfirst, this->_Mylast);
; 1335 : 				this->_Getal().deallocate(this->_Myfirst,
; 1336 : 					this->_Myend - this->_Myfirst);
; 1337 : 				}
; 1338 : 
; 1339 : 			this->_Orphan_all();
; 1340 : 			this->_Myend = _Newvec + _Capacity;
; 1341 : 			this->_Mylast = _Newvec + _Count;
; 1342 : 			this->_Myfirst = _Newvec;
; 1343 : 			}
; 1344 : 		else
; 1345 : 			{	// new stuff fits, append and rotate into place
; 1346 : 			_Ucopy(_First, _Last, this->_Mylast);
; 1347 : 			_STD rotate(_VIPTR(_Where), this->_Mylast,
; 1348 : 				this->_Mylast + _Count);
; 1349 : 			this->_Mylast += _Count;
; 1350 : 			_Orphan_range(_VIPTR(_Where), this->_Mylast);
; 1351 : 			}
; 1352 : 		}
; 1353 : 
; 1354 :  #if _ITERATOR_DEBUG_LEVEL == 2
; 1355 : 	iterator erase(const_iterator _Where)
; 1356 : 		{	// erase element at where
; 1357 : 		if (_VICONT(_Where) != this
; 1358 : 			|| _VIPTR(_Where) < this->_Myfirst
; 1359 : 			|| this->_Mylast <= _VIPTR(_Where))
; 1360 : 			_DEBUG_ERROR("vector erase iterator outside range");
; 1361 : 		_Move(_VIPTR(_Where) + 1, this->_Mylast, _VIPTR(_Where));
; 1362 : 		_Destroy(this->_Mylast - 1, this->_Mylast);
; 1363 : 		_Orphan_range(_VIPTR(_Where), this->_Mylast);
; 1364 : 		--this->_Mylast;
; 1365 : 		return (_Make_iter(_Where));
; 1366 : 		}
; 1367 : 
; 1368 :  #else /* _ITERATOR_DEBUG_LEVEL == 2 */
; 1369 : 	iterator erase(const_iterator _Where)
; 1370 : 		{	// erase element at where
; 1371 : 		_Move(_VIPTR(_Where) + 1, this->_Mylast,
; 1372 : 			_VIPTR(_Where));
; 1373 : 		_Destroy(this->_Mylast - 1, this->_Mylast);
; 1374 : 		--this->_Mylast;
; 1375 : 		return (_Make_iter(_Where));
; 1376 : 		}
; 1377 :  #endif /* _ITERATOR_DEBUG_LEVEL == 2 */
; 1378 : 
; 1379 : 	iterator erase(const_iterator _First_arg,
; 1380 : 		const_iterator _Last_arg)
; 1381 : 		{	// erase [_First, _Last)
; 1382 : 		if (_First_arg == begin() && _Last_arg == end())
; 1383 : 			clear();
; 1384 : 		else if (_First_arg != _Last_arg)
; 1385 : 			{	// clear partial
; 1386 : 			iterator _First = _Make_iter(_First_arg);
; 1387 : 			iterator _Last = _Make_iter(_Last_arg);
; 1388 : 
; 1389 : 			if (_First != _Last)
; 1390 : 				{	// worth doing, copy down over hole
; 1391 :  #if _ITERATOR_DEBUG_LEVEL == 2
; 1392 : 				if (_Last < _First || _VICONT(_First) != this
; 1393 : 					|| _VIPTR(_First) < this->_Myfirst
; 1394 : 					|| this->_Mylast < _VIPTR(_Last))
; 1395 : 					_DEBUG_ERROR("vector erase iterator outside range");
; 1396 : 				pointer _Ptr = _Move(_VIPTR(_Last), this->_Mylast,
; 1397 : 					_VIPTR(_First));
; 1398 : 				_Orphan_range(_VIPTR(_First), this->_Mylast);
; 1399 : 
; 1400 :  #else /* _ITERATOR_DEBUG_LEVEL == 2 */
; 1401 : 				pointer _Ptr = _Move(_VIPTR(_Last), this->_Mylast,
; 1402 : 					_VIPTR(_First));
; 1403 :  #endif /* _ITERATOR_DEBUG_LEVEL == 2 */
; 1404 : 
; 1405 : 				_Destroy(_Ptr, this->_Mylast);
; 1406 : 				this->_Mylast = _Ptr;
; 1407 : 				}
; 1408 : 			}
; 1409 : 		return (_Make_iter(_First_arg));
; 1410 : 		}
; 1411 : 
; 1412 : 	void clear() _NOEXCEPT
; 1413 : 		{	// erase all
; 1414 : 		this->_Orphan_all();
; 1415 : 		_Destroy(this->_Myfirst, this->_Mylast);
; 1416 : 		this->_Mylast = this->_Myfirst;
; 1417 : 		}
; 1418 : 
; 1419 : 	void swap(_Myt& _Right)
; 1420 : 		{	// exchange contents with _Right
; 1421 : 		if (this == &_Right)
; 1422 : 			;	// same object, do nothing
; 1423 : 		else if (this->_Getal() == _Right._Getal())
; 1424 : 			{	// same allocator, swap control information
; 1425 : 			this->_Swap_all(_Right);
; 1426 : 			_Swap_adl(this->_Myfirst, _Right._Myfirst);
; 1427 : 			_Swap_adl(this->_Mylast, _Right._Mylast);
; 1428 : 			_Swap_adl(this->_Myend, _Right._Myend);
; 1429 : 			}
; 1430 : 
; 1431 :  #if _HAS_CPP0X
; 1432 : 		else if (_Alty::propagate_on_container_swap::value)
; 1433 : 			{	// swap allocators and control information
; 1434 : 			this->_Swap_alloc(_Right);
; 1435 : 			_Swap_adl(this->_Myfirst, _Right._Myfirst);
; 1436 : 			_Swap_adl(this->_Mylast, _Right._Mylast);
; 1437 : 			_Swap_adl(this->_Myend, _Right._Myend);
; 1438 : 			}
; 1439 :  #endif /* _HAS_CPP0X */
; 1440 : 
; 1441 : 		else
; 1442 : 			{	// different allocator, do multiple moves
; 1443 : 			_Myt _Ts = _Move(*this);
; 1444 : 
; 1445 : 			*this = _Move(_Right);
; 1446 : 			_Right = _Move(_Ts);
; 1447 : 			}
; 1448 : 		}
; 1449 : 
; 1450 : protected:
; 1451 : 	void _Assign_n(size_type _Count, const value_type& _Val)
; 1452 : 		{	// assign _Count * _Val
; 1453 : 		value_type _Tmp = _Val;	// in case _Val is in sequence
; 1454 : 		erase(begin(), end());
; 1455 : 		insert(begin(), _Count, _Tmp);
; 1456 : 		}
; 1457 : 
; 1458 : 	bool _Buy(size_type _Capacity)
; 1459 : 		{	// allocate array with _Capacity elements
; 1460 : 		this->_Myfirst = pointer();
; 1461 : 		this->_Mylast = pointer();
; 1462 : 		this->_Myend = pointer();
; 1463 : 
; 1464 : 		if (_Capacity == 0)
; 1465 : 			return (false);
; 1466 : 		else if (max_size() < _Capacity)
; 1467 : 			_Xlen();	// result too long
; 1468 : 		else
; 1469 : 			{	// nonempty array, allocate storage
; 1470 : 			this->_Myfirst = this->_Getal().allocate(_Capacity);
; 1471 : 			this->_Mylast = this->_Myfirst;
; 1472 : 			this->_Myend = this->_Myfirst + _Capacity;
; 1473 : 			}
; 1474 : 		return (true);
; 1475 : 		}
; 1476 : 
; 1477 : 	void _Destroy(pointer _First, pointer _Last)
; 1478 : 		{	// destroy [_First, _Last) using allocator
; 1479 : 		_Alty _Alval(this->_Getal());
; 1480 : 		_Destroy_range(_First, _Last, _Alval);
; 1481 : 		}
; 1482 : 
; 1483 : 	size_type _Grow_to(size_type _Count) const
; 1484 : 		{	// grow by 50% or at least to _Count
; 1485 : 		size_type _Capacity = capacity();
; 1486 : 
; 1487 : 		_Capacity = max_size() - _Capacity / 2 < _Capacity
; 1488 : 			? 0 : _Capacity + _Capacity / 2;	// try to grow by 50%

  00808	49 8b c8	 mov	 rcx, r8
  0080b	48 d1 e9	 shr	 rcx, 1
  0080e	49 8b c3	 mov	 rax, r11
  00811	48 2b c1	 sub	 rax, rcx
  00814	49 3b c0	 cmp	 rax, r8
  00817	73 05		 jae	 SHORT $LN319@tick
  00819	45 33 c0	 xor	 r8d, r8d
  0081c	eb 03		 jmp	 SHORT $LN320@tick
$LN319@tick:
  0081e	4c 03 c1	 add	 r8, rcx
$LN320@tick:

; 1489 : 		if (_Capacity < _Count)

  00821	4c 3b c2	 cmp	 r8, rdx
  00824	4c 0f 42 c2	 cmovb	 r8, rdx

; 1529 : 				_Xlen();
; 1530 : 			_Reallocate(_Grow_to(size() + _Count));

  00828	49 8b d0	 mov	 rdx, r8
  0082b	48 8d 4d 80	 lea	 rcx, QWORD PTR lines$[rbp-256]
  0082f	e8 00 00 00 00	 call	 ?_Reallocate@?$vector@VLine@geom@@V?$allocator@VLine@geom@@@std@@@std@@IEAAX_K@Z ; std::vector<geom::Line,std::allocator<geom::Line> >::_Reallocate
  00834	4c 8b 45 90	 mov	 r8, QWORD PTR lines$[rbp-240]
  00838	48 8b 55 88	 mov	 rdx, QWORD PTR lines$[rbp-248]
  0083c	4c 8b 55 80	 mov	 r10, QWORD PTR lines$[rbp-256]
  00840	f3 0f 10 5c 24
	78		 movss	 xmm3, DWORD PTR boundingBox$1$[rsp]
  00846	f3 0f 10 65 98	 movss	 xmm4, DWORD PTR tv3591[rbp-256]
  0084b	f3 0f 10 6d a4	 movss	 xmm5, DWORD PTR tv3590[rbp-256]
  00850	49 bb ff ff ff
	ff ff ff ff 07	 mov	 r11, 576460752303423487	; 07ffffffffffffffH
$LN294@tick:
; File c:\program files (x86)\microsoft visual studio 11.0\vc\include\xmemory0

; 617  : _VARIADIC_EXPAND_0X(_ALLOC_MEMBER_CONSTRUCT, , , , )

  0085a	48 85 d2	 test	 rdx, rdx
  0085d	74 2d		 je	 SHORT $LN349@tick
; File c:\users\erlend\documents\github\wind\project\wind\wind\geometry.cpp

; 10   : {

  0085f	f3 0f 11 32	 movss	 DWORD PTR [rdx], xmm6
  00863	f3 0f 11 7a 04	 movss	 DWORD PTR [rdx+4], xmm7
  00868	f3 44 0f 11 42
	08		 movss	 DWORD PTR [rdx+8], xmm8
  0086e	f3 44 0f 11 6a
	0c		 movss	 DWORD PTR [rdx+12], xmm13
  00874	f3 44 0f 11 4a
	10		 movss	 DWORD PTR [rdx+16], xmm9
  0087a	f3 44 0f 11 52
	14		 movss	 DWORD PTR [rdx+20], xmm10
  00880	f3 44 0f 11 5a
	18		 movss	 DWORD PTR [rdx+24], xmm11
  00886	f3 44 0f 11 62
	1c		 movss	 DWORD PTR [rdx+28], xmm12
$LN349@tick:
; File c:\program files (x86)\microsoft visual studio 11.0\vc\include\vector

; 854  : 			++this->_Mylast;

  0088c	48 83 c2 20	 add	 rdx, 32			; 00000020H
  00890	f3 44 0f 10 4d
	a0		 movss	 xmm9, DWORD PTR tv3589[rbp-256]
  00896	48 89 55 88	 mov	 QWORD PTR lines$[rbp-248], rdx
$LN32@tick:
; File c:\users\erlend\documents\github\wind\project\wind\wind\chunkloadthread.cpp

; 74   : 		for(int i = 1; i <= cave->length; i++)

  0089a	41 ff c7	 inc	 r15d
  0089d	48 83 c7 10	 add	 rdi, 16
  008a1	45 3b 7d 0c	 cmp	 r15d, DWORD PTR [r13+12]
  008a5	0f 8e e5 fc ff
	ff		 jle	 $LL33@tick
  008ab	48 8b 5d 10	 mov	 rbx, QWORD PTR caves$1$[rbp-256]
  008af	8b 7d 9c	 mov	 edi, DWORD PTR i$1$[rbp-256]
$LN31@tick:
; File c:\program files (x86)\microsoft visual studio 11.0\vc\include\memory

; 345  : 		if (_Rep != 0)

  008b2	4d 85 f6	 test	 r14, r14
  008b5	74 42		 je	 SHORT $LN35@tick

; 109  : 		}
; 110  : 
; 111  : 	void _Incwref()
; 112  : 		{	// increment weak reference count
; 113  : 		_MT_INCR(_Ignored, _Weaks);
; 114  : 		}
; 115  : 
; 116  : 	void _Decref()
; 117  : 		{	// decrement use count
; 118  : 		if (_MT_DECR(_Ignored, _Uses) == 0)

  008b7	f0 41 ff 4e 08	 lock dec DWORD PTR [r14+8]
  008bc	75 18		 jne	 SHORT $LN683@tick

; 119  : 			{	// destroy managed resource, decrement weak reference count
; 120  : 			_Destroy();

  008be	49 8b 06	 mov	 rax, QWORD PTR [r14]
  008c1	49 8b ce	 mov	 rcx, r14
  008c4	ff 10		 call	 QWORD PTR [rax]

; 121  : 			_Decwref();
; 122  : 			}
; 123  : 		}
; 124  : 
; 125  : 	void _Decwref()
; 126  : 		{	// decrement weak reference count
; 127  : 		if (_MT_DECR(_Ignored, _Weaks) == 0)

  008c6	f0 41 ff 4e 0c	 lock dec DWORD PTR [r14+12]
  008cb	75 09		 jne	 SHORT $LN683@tick

; 128  : 			_Delete_this();

  008cd	49 8b 06	 mov	 rax, QWORD PTR [r14]
  008d0	49 8b ce	 mov	 rcx, r14
  008d3	ff 50 08	 call	 QWORD PTR [rax+8]
$LN683@tick:
  008d6	f3 0f 10 5d f0	 movss	 xmm3, DWORD PTR boundingBox$[rbp-248]
  008db	4c 8b 55 80	 mov	 r10, QWORD PTR lines$[rbp-256]
  008df	48 8b 55 88	 mov	 rdx, QWORD PTR lines$[rbp-248]
  008e3	4c 8b 45 90	 mov	 r8, QWORD PTR lines$[rbp-240]
  008e7	f3 44 0f 10 75
	e8		 movss	 xmm14, DWORD PTR boundingBox$[rbp-256]
  008ed	f3 44 0f 10 7d
	ec		 movss	 xmm15, DWORD PTR boundingBox$[rbp-252]
  008f3	f3 0f 11 5c 24
	78		 movss	 DWORD PTR boundingBox$1$[rsp], xmm3
$LN35@tick:
; File c:\users\erlend\documents\github\wind\project\wind\wind\chunkloadthread.cpp

; 71   : 	for(int i = 0; i < caves.size(); i++)

  008f9	ff c7		 inc	 edi
  008fb	89 7d 9c	 mov	 DWORD PTR i$1$[rbp-256], edi
  008fe	48 83 c3 10	 add	 rbx, 16
  00902	48 89 5d 10	 mov	 QWORD PTR caves$1$[rbp-256], rbx
  00906	48 63 c7	 movsxd	 rax, edi
  00909	48 3b 85 90 00
	00 00		 cmp	 rax, QWORD PTR tv3613[rbp-256]
  00910	73 1f		 jae	 SHORT $LN688@tick
  00912	e9 e2 fb ff ff	 jmp	 $LN693@tick
$LN668@tick:
; File c:\program files (x86)\microsoft visual studio 11.0\vc\include\vector

; 1667 : 		_Xlength_error("vector<T> too long");

  00917	48 8d 0d 00 00
	00 00		 lea	 rcx, OFFSET FLAT:??_C@_0BD@OLBABOEK@vector?$DMT?$DO?5too?5long?$AA@
  0091e	e8 00 00 00 00	 call	 ?_Xlength_error@std@@YAXPEBD@Z ; std::_Xlength_error
  00923	cc		 int	 3
$LN669@tick:
  00924	48 8d 0d 00 00
	00 00		 lea	 rcx, OFFSET FLAT:??_C@_0BD@OLBABOEK@vector?$DMT?$DO?5too?5long?$AA@
  0092b	e8 00 00 00 00	 call	 ?_Xlength_error@std@@YAXPEBD@Z ; std::_Xlength_error
  00930	90		 npad	 1
$LN688@tick:
  00931	4c 8b b5 88 00
	00 00		 mov	 r14, QWORD PTR this$GSCopy$1$[rbp-256]
  00938	4c 8b 7d e0	 mov	 r15, QWORD PTR tv3615[rbp-256]
  0093c	4c 8b 6d 08	 mov	 r13, QWORD PTR $T5[rbp-256]
$LN687@tick:

; 1087 : 		return (this->_Mylast - this->_Myfirst);

  00940	49 2b d2	 sub	 rdx, r10
  00943	48 c1 fa 05	 sar	 rdx, 5
; File c:\users\erlend\documents\github\wind\project\wind\wind\chunkloadthread.cpp

; 85   : 	const int amountOfLines = lines.size();

  00947	89 55 c8	 mov	 DWORD PTR amountOfLines$[rbp-256], edx

; 86   : 	if(amountOfLines > 0)

  0094a	85 d2		 test	 edx, edx
  0094c	7e 1b		 jle	 SHORT $LN28@tick

; 87   : 	{
; 88   : 		caveLinesBuffer.write(queue, 0, sizeof(geom::Line) * amountOfLines, &lines[0]);

  0094e	4c 63 ca	 movsxd	 r9, edx
  00951	49 c1 e1 05	 shl	 r9, 5
  00955	49 8d 8e 20 09
	00 00		 lea	 rcx, QWORD PTR [r14+2336]
  0095c	4c 89 54 24 20	 mov	 QWORD PTR [rsp+32], r10
  00961	49 8b d7	 mov	 rdx, r15
  00964	e8 00 00 00 00	 call	 ?write@Buffer@cl@@QEAA_NAEAVCommandQueue@2@_K1PEBX@Z ; cl::Buffer::write
$LN28@tick:

; 89   : 	}
; 90   : 
; 91   : 	queue.sync();

  00969	49 8b cf	 mov	 rcx, r15
  0096c	e8 00 00 00 00	 call	 ?sync@CommandQueue@cl@@QEAA_NXZ ; cl::CommandQueue::sync

; 92   : 
; 93   : 	const size_t local_ws[] = {1, 1, 1};

  00971	bb 01 00 00 00	 mov	 ebx, 1
  00976	48 89 9d 30 01
	00 00		 mov	 QWORD PTR local_ws$[rbp-256], rbx
  0097d	48 89 9d 38 01
	00 00		 mov	 QWORD PTR local_ws$[rbp-248], rbx
  00984	48 89 9d 40 01
	00 00		 mov	 QWORD PTR local_ws$[rbp-240], rbx

; 94   : 	const size_t global_ws[] = {16, 16, 16};

  0098b	48 c7 85 18 01
	00 00 10 00 00
	00		 mov	 QWORD PTR global_ws$[rbp-256], 16
  00996	48 c7 85 20 01
	00 00 10 00 00
	00		 mov	 QWORD PTR global_ws$[rbp-248], 16
  009a1	48 c7 85 28 01
	00 00 10 00 00
	00		 mov	 QWORD PTR global_ws$[rbp-240], 16
; File c:\program files (x86)\microsoft visual studio 11.0\vc\include\xstring

; 2265 : 		this->_Myres = this->_BUF_SIZE - 1;

  009ac	48 c7 85 d0 00
	00 00 0f 00 00
	00		 mov	 QWORD PTR $T12[rbp-232], 15

; 1145 : 		}
; 1146 : 
; 1147 : 	_Myt& assign(size_type _Count, _Elem _Ch)
; 1148 : 		{	// assign _Count * _Ch
; 1149 : 		if (_Count == npos)
; 1150 : 			_Xlen();	// result too long
; 1151 : 
; 1152 : 		if (_Grow(_Count))
; 1153 : 			{	// make room and assign new stuff
; 1154 : 			_Chassign(0, _Count, _Ch);
; 1155 : 			_Eos(_Count);
; 1156 : 			}
; 1157 : 		return (*this);
; 1158 : 		}
; 1159 : 
; 1160 : 	template<class _Iter>
; 1161 : 		typename enable_if<_Is_iterator<_Iter>::value,
; 1162 : 			_Myt&>::type
; 1163 : 		assign(_Iter _First, _Iter _Last)
; 1164 : 		{	// assign [First, _Last), input iterators
; 1165 : 		return (replace(begin(), end(), _First, _Last));
; 1166 : 		}
; 1167 : 
; 1168 : 	_Myt& assign(const_pointer _First, const_pointer _Last)
; 1169 : 		{	// assign [First, _Last), const pointers
; 1170 : 		return (replace(begin(), end(), _First, _Last));
; 1171 : 		}
; 1172 : 
; 1173 : 	_Myt& assign(const_iterator _First, const_iterator _Last)
; 1174 : 		{	// assign [First, _Last), const_iterators
; 1175 : 		return (replace(begin(), end(), _First, _Last));
; 1176 : 		}
; 1177 : 
; 1178 : 	_Myt& insert(size_type _Off, const _Myt& _Right)
; 1179 : 		{	// insert _Right at _Off
; 1180 : 		return (insert(_Off, _Right, 0, npos));
; 1181 : 		}
; 1182 : 
; 1183 : 	_Myt& insert(size_type _Off,
; 1184 : 		const _Myt& _Right, size_type _Roff, size_type _Count)
; 1185 : 		{	// insert _Right [_Roff, _Roff + _Count) at _Off
; 1186 : 		if (this->_Mysize < _Off || _Right.size() < _Roff)
; 1187 : 			_Xran();	// _Off or _Roff off end
; 1188 : 		size_type _Num = _Right.size() - _Roff;
; 1189 : 		if (_Num < _Count)
; 1190 : 			_Count = _Num;	// trim _Count to size
; 1191 : 		if (npos - this->_Mysize <= _Count)
; 1192 : 			_Xlen();	// result too long
; 1193 : 
; 1194 : 		if (0 < _Count && _Grow(_Num = this->_Mysize + _Count))
; 1195 : 			{	// make room and insert new stuff
; 1196 : 			_Traits::move(this->_Myptr() + _Off + _Count,
; 1197 : 				this->_Myptr() + _Off,
; 1198 : 				this->_Mysize - _Off);	// empty out hole
; 1199 : 			if (this == &_Right)
; 1200 : 				_Traits::move(this->_Myptr() + _Off,
; 1201 : 					this->_Myptr() + (_Off < _Roff ? _Roff + _Count : _Roff),
; 1202 : 						_Count);	// substring
; 1203 : 			else
; 1204 : 				_Traits::copy(this->_Myptr() + _Off,
; 1205 : 					_Right._Myptr() + _Roff, _Count);	// fill hole
; 1206 : 			_Eos(_Num);
; 1207 : 			}
; 1208 : 		return (*this);
; 1209 : 		}
; 1210 : 
; 1211 : 	_Myt& insert(size_type _Off,
; 1212 : 		const _Elem *_Ptr, size_type _Count)
; 1213 : 		{	// insert [_Ptr, _Ptr + _Count) at _Off
; 1214 :  #if _ITERATOR_DEBUG_LEVEL == 2
; 1215 : 		if (_Count != 0)
; 1216 : 			_DEBUG_POINTER(_Ptr);
; 1217 :  #endif /* _ITERATOR_DEBUG_LEVEL == 2 */
; 1218 : 
; 1219 : 		if (_Inside(_Ptr))
; 1220 : 			return (insert(_Off, *this,
; 1221 : 				_Ptr - this->_Myptr(), _Count));	// substring
; 1222 : 		if (this->_Mysize < _Off)
; 1223 : 			_Xran();	// _Off off end
; 1224 : 		if (npos - this->_Mysize <= _Count)
; 1225 : 			_Xlen();	// result too long
; 1226 : 		size_type _Num;
; 1227 : 		if (0 < _Count && _Grow(_Num = this->_Mysize + _Count))
; 1228 : 			{	// make room and insert new stuff
; 1229 : 			_Traits::move(this->_Myptr() + _Off + _Count,
; 1230 : 				this->_Myptr() + _Off,
; 1231 : 				this->_Mysize - _Off);	// empty out hole
; 1232 : 			_Traits::copy(this->_Myptr() + _Off, _Ptr, _Count);	// fill hole
; 1233 : 			_Eos(_Num);
; 1234 : 			}
; 1235 : 		return (*this);
; 1236 : 		}
; 1237 : 
; 1238 : 	_Myt& insert(size_type _Off, const _Elem *_Ptr)
; 1239 : 		{	// insert [_Ptr, <null>) at _Off
; 1240 : 		_DEBUG_POINTER(_Ptr);
; 1241 : 		return (insert(_Off, _Ptr, _Traits::length(_Ptr)));
; 1242 : 		}
; 1243 : 
; 1244 : 	_Myt& insert(size_type _Off,
; 1245 : 		size_type _Count, _Elem _Ch)
; 1246 : 		{	// insert _Count * _Ch at _Off
; 1247 : 		if (this->_Mysize < _Off)
; 1248 : 			_Xran();	// _Off off end
; 1249 : 		if (npos - this->_Mysize <= _Count)
; 1250 : 			_Xlen();	// result too long
; 1251 : 		size_type _Num;
; 1252 : 		if (0 < _Count && _Grow(_Num = this->_Mysize + _Count))
; 1253 : 			{	// make room and insert new stuff
; 1254 : 			_Traits::move(this->_Myptr() + _Off + _Count,
; 1255 : 				this->_Myptr() + _Off,
; 1256 : 				this->_Mysize - _Off);	// empty out hole
; 1257 : 			_Chassign(_Off, _Count, _Ch);	// fill hole
; 1258 : 			_Eos(_Num);
; 1259 : 			}
; 1260 : 		return (*this);
; 1261 : 		}
; 1262 : 
; 1263 : 	iterator insert(const_iterator _Where)
; 1264 : 		{	// insert <null> at _Where
; 1265 : 		return (insert(_Where, _Elem()));
; 1266 : 		}
; 1267 : 
; 1268 : 	iterator insert(const_iterator _Where, _Elem _Ch)
; 1269 : 		{	// insert _Ch at _Where
; 1270 : 		size_type _Off = _Pdif(_Where, begin());
; 1271 : 		insert(_Off, 1, _Ch);
; 1272 : 		return (begin() + _Off);
; 1273 : 		}
; 1274 : 
; 1275 : 	iterator insert(const_iterator _Where, size_type _Count, _Elem _Ch)
; 1276 : 		{	// insert _Count * _Elem at _Where
; 1277 : 		size_type _Off = _Pdif(_Where, begin());
; 1278 : 		insert(_Off, _Count, _Ch);
; 1279 : 		return (begin() + _Off);
; 1280 : 		}
; 1281 : 
; 1282 : 	template<class _Iter>
; 1283 : 		typename enable_if<_Is_iterator<_Iter>::value,
; 1284 : 			iterator>::type
; 1285 : 		insert(const_iterator _Where, _Iter _First, _Iter _Last)
; 1286 : 		{	// insert [_First, _Last) at _Where, input iterators
; 1287 : 		size_type _Off = _Pdif(_Where, begin());
; 1288 : 		replace(_Where, _Where, _First, _Last);
; 1289 : 		return (begin() + _Off);
; 1290 : 		}
; 1291 : 
; 1292 : 	iterator insert(const_iterator _Where,
; 1293 : 		const_pointer _First, const_pointer _Last)
; 1294 : 		{	// insert [_First, _Last) at _Where, const pointers
; 1295 : 		size_type _Off = _Pdif(_Where, begin());
; 1296 : 		replace(_Where, _Where, _First, _Last);
; 1297 : 		return (begin() + _Off);
; 1298 : 		}
; 1299 : 
; 1300 : 	iterator insert(const_iterator _Where,
; 1301 : 		const_iterator _First, const_iterator _Last)
; 1302 : 		{	// insert [_First, _Last) at _Where, const_iterators
; 1303 : 		size_type _Off = _Pdif(_Where, begin());
; 1304 : 		replace(_Where, _Where, _First, _Last);
; 1305 : 		return (begin() + _Off);
; 1306 : 		}
; 1307 : 
; 1308 : 	_Myt& erase(size_type _Off = 0)
; 1309 : 		{	// erase elements [_Off, ...)
; 1310 : 		if (this->_Mysize < _Off)
; 1311 : 			_Xran();	// _Off off end
; 1312 : 		_Eos(_Off);
; 1313 : 		return (*this);
; 1314 : 		}
; 1315 : 
; 1316 : 	_Myt& erase(size_type _Off, size_type _Count)
; 1317 : 		{	// erase elements [_Off, _Off + _Count)
; 1318 : 		if (this->_Mysize < _Off)
; 1319 : 			_Xran();	// _Off off end
; 1320 : 		if (this->_Mysize - _Off <= _Count)
; 1321 : 			_Eos(_Off);	// erase elements [_Off, ...)
; 1322 : 		else if (0 < _Count)
; 1323 : 			{	// move elements down
; 1324 : 			value_type *_Ptr = this->_Myptr() + _Off;
; 1325 : 			size_type _Newsize = this->_Mysize - _Count;
; 1326 : 			_Traits::move(_Ptr, _Ptr + _Count, _Newsize - _Off);
; 1327 : 			_Eos(_Newsize);
; 1328 : 			}
; 1329 : 		return (*this);
; 1330 : 		}
; 1331 : 
; 1332 : 	iterator erase(const_iterator _Where)
; 1333 : 		{	// erase element at _Where
; 1334 : 		size_type _Count = _Pdif(_Where, begin());
; 1335 : 		erase(_Count, 1);
; 1336 : 		return (_STRING_ITERATOR(this->_Myptr() + _Count));
; 1337 : 		}
; 1338 : 
; 1339 : 	iterator erase(const_iterator _First, const_iterator _Last)
; 1340 : 		{	// erase substring [_First, _Last)
; 1341 : 		_DEBUG_RANGE(_First, _Last);
; 1342 : 		size_type _Count = _Pdif(_First, begin());
; 1343 : 		erase(_Count, _Pdif(_Last, _First));
; 1344 : 		return (_STRING_ITERATOR(this->_Myptr() + _Count));
; 1345 : 		}
; 1346 : 
; 1347 : 	void clear() _NOEXCEPT
; 1348 : 		{	// erase all
; 1349 : 		_Eos(0);
; 1350 : 		}
; 1351 : 
; 1352 : 	_Myt& replace(size_type _Off, size_type _N0, const _Myt& _Right)
; 1353 : 		{	// replace [_Off, _Off + _N0) with _Right
; 1354 : 		return (replace(_Off, _N0, _Right, 0, npos));
; 1355 : 		}
; 1356 : 
; 1357 : 	_Myt& replace(size_type _Off,
; 1358 : 		size_type _N0, const _Myt& _Right, size_type _Roff, size_type _Count)
; 1359 : 		{	// replace [_Off, _Off + _N0) with _Right [_Roff, _Roff + _Count)
; 1360 : 		if (this->_Mysize < _Off || _Right.size() < _Roff)
; 1361 : 			_Xran();	// _Off or _Roff off end
; 1362 : 		if (this->_Mysize - _Off < _N0)
; 1363 : 			_N0 = this->_Mysize - _Off;	// trim _N0 to size
; 1364 : 		size_type _Num = _Right.size() - _Roff;
; 1365 : 		if (_Num < _Count)
; 1366 : 			_Count = _Num;	// trim _Count to size
; 1367 : 		if (npos - _Count <= this->_Mysize - _N0)
; 1368 : 			_Xlen();	// result too long
; 1369 : 
; 1370 : 		size_type _Nm = this->_Mysize - _N0 - _Off;	// length of kept tail
; 1371 : 		size_type _Newsize = this->_Mysize + _Count - _N0;
; 1372 : 		if (this->_Mysize < _Newsize)
; 1373 : 			_Grow(_Newsize);
; 1374 : 
; 1375 : 		if (this != &_Right)
; 1376 : 			{	// no overlap, just move down and copy in new stuff
; 1377 : 			_Traits::move(this->_Myptr() + _Off + _Count,
; 1378 : 				this->_Myptr() + _Off + _N0, _Nm);	// empty hole
; 1379 : 			_Traits::copy(this->_Myptr() + _Off,
; 1380 : 				_Right._Myptr() + _Roff, _Count);	// fill hole
; 1381 : 			}
; 1382 : 		else if (_Count <= _N0)
; 1383 : 			{	// hole doesn't get larger, just copy in substring
; 1384 : 			_Traits::move(this->_Myptr() + _Off,
; 1385 : 				this->_Myptr() + _Roff, _Count);	// fill hole
; 1386 : 			_Traits::move(this->_Myptr() + _Off + _Count,
; 1387 : 				this->_Myptr() + _Off + _N0, _Nm);	// move tail down
; 1388 : 			}
; 1389 : 		else if (_Roff <= _Off)
; 1390 : 			{	// hole gets larger, substring begins before hole
; 1391 : 			_Traits::move(this->_Myptr() + _Off + _Count,
; 1392 : 				this->_Myptr() + _Off + _N0, _Nm);	// move tail down
; 1393 : 			_Traits::move(this->_Myptr() + _Off,
; 1394 : 				this->_Myptr() + _Roff, _Count);	// fill hole
; 1395 : 			}
; 1396 : 		else if (_Off + _N0 <= _Roff)
; 1397 : 			{	// hole gets larger, substring begins after hole
; 1398 : 			_Traits::move(this->_Myptr() + _Off + _Count,
; 1399 : 				this->_Myptr() + _Off + _N0, _Nm);	// move tail down
; 1400 : 			_Traits::move(this->_Myptr() + _Off,
; 1401 : 				this->_Myptr() + (_Roff + _Count - _N0),
; 1402 : 				_Count);	// fill hole
; 1403 : 			}
; 1404 : 		else
; 1405 : 			{	// hole gets larger, substring begins in hole
; 1406 : 			_Traits::move(this->_Myptr() + _Off,
; 1407 : 				this->_Myptr() + _Roff, _N0);	// fill old hole
; 1408 : 			_Traits::move(this->_Myptr() + _Off + _Count,
; 1409 : 				this->_Myptr() + _Off + _N0, _Nm);	// move tail down
; 1410 : 			_Traits::move(this->_Myptr() + _Off + _N0,
; 1411 : 				this->_Myptr() + _Roff + _Count,
; 1412 : 				_Count - _N0);	// fill rest of new hole
; 1413 : 			}
; 1414 : 
; 1415 : 		_Eos(_Newsize);
; 1416 : 		return (*this);
; 1417 : 		}
; 1418 : 
; 1419 : 	_Myt& replace(size_type _Off,
; 1420 : 		size_type _N0, const _Elem *_Ptr, size_type _Count)
; 1421 : 		{	// replace [_Off, _Off + _N0) with [_Ptr, _Ptr + _Count)
; 1422 :  #if _ITERATOR_DEBUG_LEVEL == 2
; 1423 : 		if (_Count != 0)
; 1424 : 			_DEBUG_POINTER(_Ptr);
; 1425 :  #endif /* _ITERATOR_DEBUG_LEVEL == 2 */
; 1426 : 
; 1427 : 		if (_Inside(_Ptr))
; 1428 : 			return (replace(_Off, _N0, *this,
; 1429 : 				_Ptr - this->_Myptr(),
; 1430 : 				_Count));	// substring, replace carefully
; 1431 : 		if (this->_Mysize < _Off)
; 1432 : 			_Xran();	// _Off off end
; 1433 : 		if (this->_Mysize - _Off < _N0)
; 1434 : 			_N0 = this->_Mysize - _Off;	// trim _N0 to size
; 1435 : 		if (npos - _Count <= this->_Mysize - _N0)
; 1436 : 			_Xlen();	// result too long
; 1437 : 		size_type _Nm = this->_Mysize - _N0 - _Off;
; 1438 : 
; 1439 : 		if (_Count < _N0)
; 1440 : 			_Traits::move(this->_Myptr() + _Off + _Count,
; 1441 : 				this->_Myptr() + _Off + _N0,
; 1442 : 				_Nm);	// smaller hole, move tail up
; 1443 : 		size_type _Num;
; 1444 : 		if ((0 < _Count || 0 < _N0)
; 1445 : 			&& _Grow(_Num = this->_Mysize + _Count - _N0))
; 1446 : 			{	// make room and rearrange
; 1447 : 			if (_N0 < _Count)
; 1448 : 				_Traits::move(this->_Myptr() + _Off + _Count,
; 1449 : 					this->_Myptr() + _Off + _N0, _Nm);	// move tail down
; 1450 : 			_Traits::copy(this->_Myptr() + _Off, _Ptr, _Count);	// fill hole
; 1451 : 			_Eos(_Num);
; 1452 : 			}
; 1453 : 		return (*this);
; 1454 : 		}
; 1455 : 
; 1456 : 	_Myt& replace(size_type _Off, size_type _N0, const _Elem *_Ptr)
; 1457 : 		{	// replace [_Off, _Off + _N0) with [_Ptr, <null>)
; 1458 : 		_DEBUG_POINTER(_Ptr);
; 1459 : 		return (replace(_Off, _N0, _Ptr, _Traits::length(_Ptr)));
; 1460 : 		}
; 1461 : 
; 1462 : 	_Myt& replace(size_type _Off,
; 1463 : 		size_type _N0, size_type _Count, _Elem _Ch)
; 1464 : 		{	// replace [_Off, _Off + _N0) with _Count * _Ch
; 1465 : 		if (this->_Mysize < _Off)
; 1466 : 			_Xran();	// _Off off end
; 1467 : 		if (this->_Mysize - _Off < _N0)
; 1468 : 			_N0 = this->_Mysize - _Off;	// trim _N0 to size
; 1469 : 		if (npos - _Count <= this->_Mysize - _N0)
; 1470 : 			_Xlen();	// result too long
; 1471 : 		size_type _Nm = this->_Mysize - _N0 - _Off;
; 1472 : 
; 1473 : 		if (_Count < _N0)
; 1474 : 			_Traits::move(this->_Myptr() + _Off + _Count,
; 1475 : 				this->_Myptr() + _Off + _N0,
; 1476 : 				_Nm);	// smaller hole, move tail up
; 1477 : 		size_type _Num;
; 1478 : 		if ((0 < _Count || 0 < _N0)
; 1479 : 			&& _Grow(_Num = this->_Mysize + _Count - _N0))
; 1480 : 			{	// make room and rearrange
; 1481 : 			if (_N0 < _Count)
; 1482 : 				_Traits::move(this->_Myptr() + _Off + _Count,
; 1483 : 					this->_Myptr() + _Off + _N0, _Nm);	// move tail down
; 1484 : 			_Chassign(_Off, _Count, _Ch);	// fill hole
; 1485 : 			_Eos(_Num);
; 1486 : 			}
; 1487 : 		return (*this);
; 1488 : 		}
; 1489 : 
; 1490 : 	_Myt& replace(const_iterator _First, const_iterator _Last,
; 1491 : 		const _Myt& _Right)
; 1492 : 		{	// replace [_First, _Last) with _Right
; 1493 : 		return (replace(
; 1494 : 			_Pdif(_First, begin()), _Pdif(_Last, _First), _Right));
; 1495 : 		}
; 1496 : 
; 1497 : 	_Myt& replace(const_iterator _First, const_iterator _Last,
; 1498 : 		const _Elem *_Ptr, size_type _Count)
; 1499 : 		{	// replace [_First, _Last) with [_Ptr, _Ptr + _Count)
; 1500 : 		return (replace(
; 1501 : 			_Pdif(_First, begin()), _Pdif(_Last, _First), _Ptr, _Count));
; 1502 : 		}
; 1503 : 
; 1504 : 	_Myt& replace(const_iterator _First, const_iterator _Last,
; 1505 : 		const _Elem *_Ptr)
; 1506 : 		{	// replace [_First, _Last) with [_Ptr, <null>)
; 1507 : 		return (replace(
; 1508 : 			_Pdif(_First, begin()), _Pdif(_Last, _First), _Ptr));
; 1509 : 		}
; 1510 : 
; 1511 : 	_Myt& replace(const_iterator _First, const_iterator _Last,
; 1512 : 		size_type _Count, _Elem _Ch)
; 1513 : 		{	// replace [_First, _Last) with _Count * _Ch
; 1514 : 		return (replace(
; 1515 : 			_Pdif(_First, begin()), _Pdif(_Last, _First), _Count, _Ch));
; 1516 : 		}
; 1517 : 
; 1518 : 	template<class _Iter>
; 1519 : 		typename enable_if<_Is_iterator<_Iter>::value,
; 1520 : 			_Myt&>::type
; 1521 : 		replace(const_iterator _First, const_iterator _Last,
; 1522 : 			_Iter _First2, _Iter _Last2)
; 1523 : 		{	// replace [_First, _Last) with [_First2, _Last2), input iterators
; 1524 : 		_Myt _Right(_First2, _Last2);
; 1525 : 		replace(_First, _Last, _Right);
; 1526 : 		return (*this);
; 1527 : 		}
; 1528 : 
; 1529 : 	_Myt& replace(const_iterator _First, const_iterator _Last,
; 1530 : 		const_pointer _First2, const_pointer _Last2)
; 1531 : 		{	// replace [_First, _Last) with [_First2, _Last2), const pointers
; 1532 : 		if (_First2 == _Last2)
; 1533 : 			erase(_Pdif(_First, begin()), _Pdif(_Last, _First));
; 1534 : 		else
; 1535 : 			replace(_Pdif(_First, begin()), _Pdif(_Last, _First),
; 1536 : 				&*_First2, _Last2 - _First2);
; 1537 : 		return (*this);
; 1538 : 		}
; 1539 : 
; 1540 : 	_Myt& replace(const_iterator _First, const_iterator _Last,
; 1541 : 		pointer _First2, pointer _Last2)
; 1542 : 		{	// replace [_First, _Last) with [_First2, _Last2), const pointers
; 1543 : 		if (_First2 == _Last2)
; 1544 : 			erase(_Pdif(_First, begin()), _Pdif(_Last, _First));
; 1545 : 		else
; 1546 : 			replace(_Pdif(_First, begin()), _Pdif(_Last, _First),
; 1547 : 				&*_First2, _Last2 - _First2);
; 1548 : 		return (*this);
; 1549 : 		}
; 1550 : 
; 1551 : 	_Myt& replace(const_iterator _First, const_iterator _Last,
; 1552 : 		const_iterator _First2, const_iterator _Last2)
; 1553 : 		{	// replace [_First, _Last) with [_First2, _Last2), const_iterators
; 1554 : 		if (_First2 == _Last2)
; 1555 : 			erase(_Pdif(_First, begin()), _Pdif(_Last, _First));
; 1556 : 		else
; 1557 : 			replace(_Pdif(_First, begin()), _Pdif(_Last, _First),
; 1558 : 				&*_First2, _Last2 - _First2);
; 1559 : 		return (*this);
; 1560 : 		}
; 1561 : 
; 1562 : 	_Myt& replace(const_iterator _First, const_iterator _Last,
; 1563 : 		iterator _First2, iterator _Last2)
; 1564 : 		{	// replace [_First, _Last) with [_First2, _Last2), const_iterators
; 1565 : 		if (_First2 == _Last2)
; 1566 : 			erase(_Pdif(_First, begin()), _Pdif(_Last, _First));
; 1567 : 		else
; 1568 : 			replace(_Pdif(_First, begin()), _Pdif(_Last, _First),
; 1569 : 				&*_First2, _Last2 - _First2);
; 1570 : 		return (*this);
; 1571 : 		}
; 1572 : 
; 1573 : 	iterator begin() _NOEXCEPT
; 1574 : 		{	// return iterator for beginning of mutable sequence
; 1575 : 		return (_STRING_ITERATOR(this->_Myptr()));
; 1576 : 		}
; 1577 : 
; 1578 : 	const_iterator begin() const _NOEXCEPT
; 1579 : 		{	// return iterator for beginning of nonmutable sequence
; 1580 : 		return (_STRING_CONST_ITERATOR(this->_Myptr()));
; 1581 : 		}
; 1582 : 
; 1583 : 	iterator end() _NOEXCEPT
; 1584 : 		{	// return iterator for end of mutable sequence
; 1585 : 		return (_STRING_ITERATOR(this->_Myptr() + this->_Mysize));
; 1586 : 		}
; 1587 : 
; 1588 : 	const_iterator end() const _NOEXCEPT
; 1589 : 		{	// return iterator for end of nonmutable sequence
; 1590 : 		return (_STRING_CONST_ITERATOR(this->_Myptr() + this->_Mysize));
; 1591 : 		}
; 1592 : 
; 1593 : 	reverse_iterator rbegin() _NOEXCEPT
; 1594 : 		{	// return iterator for beginning of reversed mutable sequence
; 1595 : 		return (reverse_iterator(end()));
; 1596 : 		}
; 1597 : 
; 1598 : 	const_reverse_iterator rbegin() const _NOEXCEPT
; 1599 : 		{	// return iterator for beginning of reversed nonmutable sequence
; 1600 : 		return (const_reverse_iterator(end()));
; 1601 : 		}
; 1602 : 
; 1603 : 	reverse_iterator rend() _NOEXCEPT
; 1604 : 		{	// return iterator for end of reversed mutable sequence
; 1605 : 		return (reverse_iterator(begin()));
; 1606 : 		}
; 1607 : 
; 1608 : 	const_reverse_iterator rend() const _NOEXCEPT
; 1609 : 		{	// return iterator for end of reversed nonmutable sequence
; 1610 : 		return (const_reverse_iterator(begin()));
; 1611 : 		}
; 1612 : 
; 1613 :  #if _HAS_CPP0X
; 1614 : 	const_iterator cbegin() const _NOEXCEPT
; 1615 : 		{	// return iterator for beginning of nonmutable sequence
; 1616 : 		return (((const _Myt *)this)->begin());
; 1617 : 		}
; 1618 : 
; 1619 : 	const_iterator cend() const _NOEXCEPT
; 1620 : 		{	// return iterator for end of nonmutable sequence
; 1621 : 		return (((const _Myt *)this)->end());
; 1622 : 		}
; 1623 : 
; 1624 : 	const_reverse_iterator crbegin() const _NOEXCEPT
; 1625 : 		{	// return iterator for beginning of reversed nonmutable sequence
; 1626 : 		return (((const _Myt *)this)->rbegin());
; 1627 : 		}
; 1628 : 
; 1629 : 	const_reverse_iterator crend() const _NOEXCEPT
; 1630 : 		{	// return iterator for end of reversed nonmutable sequence
; 1631 : 		return (((const _Myt *)this)->rend());
; 1632 : 		}
; 1633 : 
; 1634 : 	void shrink_to_fit()
; 1635 : 		{	// reduce capacity
; 1636 : 		if ((size() | this->_ALLOC_MASK) < capacity())
; 1637 : 			{	// worth shrinking, do it
; 1638 : 			_Myt _Tmp(*this);
; 1639 : 			swap(_Tmp);
; 1640 : 			}
; 1641 : 		}
; 1642 :  #endif /* _HAS_CPP0X */
; 1643 : 
; 1644 : 	reference at(size_type _Off)
; 1645 : 		{	// subscript mutable sequence with checking
; 1646 : 		if (this->_Mysize <= _Off)
; 1647 : 			_Xran();	// _Off off end
; 1648 : 		return (this->_Myptr()[_Off]);
; 1649 : 		}
; 1650 : 
; 1651 : 	const_reference at(size_type _Off) const
; 1652 : 		{	// subscript nonmutable sequence with checking
; 1653 : 		if (this->_Mysize <= _Off)
; 1654 : 			_Xran();	// _Off off end
; 1655 : 		return (this->_Myptr()[_Off]);
; 1656 : 		}
; 1657 : 
; 1658 : 	reference operator[](size_type _Off)
; 1659 : 		{	// subscript mutable sequence
; 1660 :  #if _ITERATOR_DEBUG_LEVEL == 2
; 1661 : 		if (this->_Mysize < _Off)	// sic
; 1662 : 			_DEBUG_ERROR("string subscript out of range");
; 1663 : 
; 1664 :  #elif _ITERATOR_DEBUG_LEVEL == 1
; 1665 : 		_SCL_SECURE_VALIDATE_RANGE(_Off <= this->_Mysize);	// sic
; 1666 :  #endif /* _ITERATOR_DEBUG_LEVEL == 2 */
; 1667 : 
; 1668 : 		return (this->_Myptr()[_Off]);
; 1669 : 		}
; 1670 : 
; 1671 : 	const_reference operator[](size_type _Off) const
; 1672 : 		{	// subscript nonmutable sequence
; 1673 :  #if _ITERATOR_DEBUG_LEVEL == 2
; 1674 : 		if (this->_Mysize < _Off)	// sic
; 1675 : 			_DEBUG_ERROR("string subscript out of range");
; 1676 : 
; 1677 :  #elif _ITERATOR_DEBUG_LEVEL == 1
; 1678 : 		_SCL_SECURE_VALIDATE_RANGE(_Off <= this->_Mysize);	// sic
; 1679 :  #endif /* _ITERATOR_DEBUG_LEVEL == 2 */
; 1680 : 
; 1681 : 		return (this->_Myptr()[_Off]);
; 1682 : 		}
; 1683 : 
; 1684 : 	void push_back(_Elem _Ch)
; 1685 : 		{	// insert element at end
; 1686 : 		insert(end(), _Ch);
; 1687 : 		}
; 1688 : 
; 1689 :  #if _HAS_CPP0X
; 1690 : 	void pop_back()
; 1691 : 		{	// erase element at end
; 1692 : 		erase(this->_Mysize - 1);	// throws if _Mysize == 0
; 1693 : 		}
; 1694 : 
; 1695 : 	reference front()
; 1696 : 		{	// return first element of mutable sequence
; 1697 : 		return (*begin());
; 1698 : 		}
; 1699 : 
; 1700 : 	const_reference front() const
; 1701 : 		{	// return first element of nonmutable sequence
; 1702 : 		return (*begin());
; 1703 : 		}
; 1704 : 
; 1705 : 	reference back()
; 1706 : 		{	// return last element of mutable sequence
; 1707 : 		return (*(end() - 1));
; 1708 : 		}
; 1709 : 
; 1710 : 	const_reference back() const
; 1711 : 		{	// return last element of nonmutable sequence
; 1712 : 		return (*(end() - 1));
; 1713 : 		}
; 1714 :  #endif /* _HAS_CPP0X */
; 1715 : 
; 1716 : 	const _Elem *c_str() const _NOEXCEPT
; 1717 : 		{	// return pointer to null-terminated nonmutable array
; 1718 : 		return (this->_Myptr());
; 1719 : 		}
; 1720 : 
; 1721 : 	const _Elem *data() const _NOEXCEPT
; 1722 : 		{	// return pointer to nonmutable array
; 1723 : 		return (c_str());
; 1724 : 		}
; 1725 : 
; 1726 : 	size_type length() const _NOEXCEPT
; 1727 : 		{	// return length of sequence
; 1728 : 		return (this->_Mysize);
; 1729 : 		}
; 1730 : 
; 1731 : 	size_type size() const _NOEXCEPT
; 1732 : 		{	// return length of sequence
; 1733 : 		return (this->_Mysize);
; 1734 : 		}
; 1735 : 
; 1736 : 	size_type max_size() const _NOEXCEPT
; 1737 : 		{	// return maximum possible length of sequence
; 1738 : 		size_type _Num = this->_Getal().max_size();
; 1739 : 		return (_Num <= 1 ? 1 : _Num - 1);
; 1740 : 		}
; 1741 : 
; 1742 : 	void resize(size_type _Newsize)
; 1743 : 		{	// determine new length, padding with null elements as needed
; 1744 : 		resize(_Newsize, _Elem());
; 1745 : 		}
; 1746 : 
; 1747 : 	void resize(size_type _Newsize, _Elem _Ch)
; 1748 : 		{	// determine new length, padding with _Ch elements as needed
; 1749 : 		if (_Newsize <= this->_Mysize)
; 1750 : 			_Eos(_Newsize);
; 1751 : 		else
; 1752 : 			append(_Newsize - this->_Mysize, _Ch);
; 1753 : 		}
; 1754 : 
; 1755 : 	size_type capacity() const _NOEXCEPT
; 1756 : 		{	// return current length of allocated storage
; 1757 : 		return (this->_Myres);
; 1758 : 		}
; 1759 : 
; 1760 : 	void reserve(size_type _Newcap = 0)
; 1761 : 		{	// determine new minimum length of allocated storage
; 1762 : 		if (this->_Mysize <= _Newcap && this->_Myres != _Newcap)
; 1763 : 			{	// change reservation
; 1764 : 			size_type _Size = this->_Mysize;
; 1765 : 			if (_Grow(_Newcap, true))
; 1766 : 				_Eos(_Size);
