; Listing generated by Microsoft (R) Optimizing Compiler Version 17.00.61030.0 

include listing.inc

INCLUDELIB OLDNAMES

PUBLIC	??_R4GeometryShader@gfxu@@6B@			; gfxu::GeometryShader::`RTTI Complete Object Locator'
PUBLIC	??_7Shader@gfxu@@6B@				; gfxu::Shader::`vftable'
PUBLIC	??_R4Shader@gfxu@@6B@				; gfxu::Shader::`RTTI Complete Object Locator'
PUBLIC	??_R1A@?0A@EA@VertexStream@gfxu@@8		; gfxu::VertexStream::`RTTI Base Class Descriptor at (0,-1,0,64)'
PUBLIC	??_7FragmentShader@gfxu@@6B@			; gfxu::FragmentShader::`vftable'
PUBLIC	??_R3VertexStream@gfxu@@8			; gfxu::VertexStream::`RTTI Class Hierarchy Descriptor'
PUBLIC	??_R2GeometryShader@gfxu@@8			; gfxu::GeometryShader::`RTTI Base Class Array'
PUBLIC	??_R3VertexShader@gfxu@@8			; gfxu::VertexShader::`RTTI Class Hierarchy Descriptor'
PUBLIC	??_R3FragmentShader@gfxu@@8			; gfxu::FragmentShader::`RTTI Class Hierarchy Descriptor'
PUBLIC	??_7GeometryShader@gfxu@@6B@			; gfxu::GeometryShader::`vftable'
PUBLIC	??_R0?AVShader@gfxu@@@8				; gfxu::Shader `RTTI Type Descriptor'
PUBLIC	??_R1A@?0A@EA@FragmentShader@gfxu@@8		; gfxu::FragmentShader::`RTTI Base Class Descriptor at (0,-1,0,64)'
PUBLIC	??_R0?AVGeometryShader@gfxu@@@8			; gfxu::GeometryShader `RTTI Type Descriptor'
PUBLIC	?current@ShaderProgram@gfxu@@2PEAV12@EA		; gfxu::ShaderProgram::current
PUBLIC	?forceUpload@Uniforms@gfxu@@0_NA		; gfxu::Uniforms::forceUpload
PUBLIC	??_R2VertexShader@gfxu@@8			; gfxu::VertexShader::`RTTI Base Class Array'
PUBLIC	??_R1A@?0A@EA@VertexShader@gfxu@@8		; gfxu::VertexShader::`RTTI Base Class Descriptor at (0,-1,0,64)'
PUBLIC	??_R2Shader@gfxu@@8				; gfxu::Shader::`RTTI Base Class Array'
PUBLIC	??_R4VertexShader@gfxu@@6B@			; gfxu::VertexShader::`RTTI Complete Object Locator'
PUBLIC	??_R4VertexStream@gfxu@@6B@			; gfxu::VertexStream::`RTTI Complete Object Locator'
PUBLIC	??_R0?AVFragmentShader@gfxu@@@8			; gfxu::FragmentShader `RTTI Type Descriptor'
PUBLIC	??_R1A@?0A@EA@GeometryShader@gfxu@@8		; gfxu::GeometryShader::`RTTI Base Class Descriptor at (0,-1,0,64)'
PUBLIC	??_7VertexStream@gfxu@@6B@			; gfxu::VertexStream::`vftable'
PUBLIC	??_R4FragmentShader@gfxu@@6B@			; gfxu::FragmentShader::`RTTI Complete Object Locator'
PUBLIC	??_R3Shader@gfxu@@8				; gfxu::Shader::`RTTI Class Hierarchy Descriptor'
PUBLIC	??_R2VertexStream@gfxu@@8			; gfxu::VertexStream::`RTTI Base Class Array'
PUBLIC	??_R1A@?0A@EA@Shader@gfxu@@8			; gfxu::Shader::`RTTI Base Class Descriptor at (0,-1,0,64)'
PUBLIC	??_R0?AVVertexStream@gfxu@@@8			; gfxu::VertexStream `RTTI Type Descriptor'
PUBLIC	??_R0?AVVertexShader@gfxu@@@8			; gfxu::VertexShader `RTTI Type Descriptor'
PUBLIC	??_7VertexShader@gfxu@@6B@			; gfxu::VertexShader::`vftable'
PUBLIC	??_R3GeometryShader@gfxu@@8			; gfxu::GeometryShader::`RTTI Class Hierarchy Descriptor'
PUBLIC	??_R2FragmentShader@gfxu@@8			; gfxu::FragmentShader::`RTTI Base Class Array'
PUBLIC	?vs@@3HA					; vs
EXTRN	__imp_gluErrorString:PROC
EXTRN	__imp_glGenTextures:PROC
EXTRN	__imp_glTexParameteri:PROC
EXTRN	__imp_glDrawArrays:PROC
EXTRN	__imp_glGetError:PROC
EXTRN	__imp_glTexImage2D:PROC
EXTRN	__imp_glBindTexture:PROC
EXTRN	__imp_glDeleteTextures:PROC
?current@ShaderProgram@gfxu@@2PEAV12@EA DQ 01H DUP (?)	; gfxu::ShaderProgram::current
?forceUpload@Uniforms@gfxu@@0_NA DB 01H DUP (?)		; gfxu::Uniforms::forceUpload
	ALIGN	4

?vs@@3HA DD	01H DUP (?)				; vs
_BSS	ENDS
;	COMDAT ??_R2FragmentShader@gfxu@@8
rdata$r	SEGMENT
??_R2FragmentShader@gfxu@@8 DD imagerel ??_R1A@?0A@EA@FragmentShader@gfxu@@8 ; gfxu::FragmentShader::`RTTI Base Class Array'
	DD	imagerel ??_R1A@?0A@EA@Shader@gfxu@@8
	ORG $+3
rdata$r	ENDS
;	COMDAT ??_R3GeometryShader@gfxu@@8
rdata$r	SEGMENT
??_R3GeometryShader@gfxu@@8 DD 00H			; gfxu::GeometryShader::`RTTI Class Hierarchy Descriptor'
	DD	00H
	DD	02H
	DD	imagerel ??_R2GeometryShader@gfxu@@8
rdata$r	ENDS
;	COMDAT ??_7VertexShader@gfxu@@6B@
CONST	SEGMENT
??_7VertexShader@gfxu@@6B@ DQ FLAT:??_R4VertexShader@gfxu@@6B@ ; gfxu::VertexShader::`vftable'
	DQ	FLAT:?compile@VertexShader@gfxu@@UEAA_NXZ
CONST	ENDS
;	COMDAT ??_R0?AVVertexShader@gfxu@@@8
_DATA	SEGMENT
??_R0?AVVertexShader@gfxu@@@8 DQ FLAT:??_7type_info@@6B@ ; gfxu::VertexShader `RTTI Type Descriptor'
	DQ	0000000000000000H
	DB	'.?AVVertexShader@gfxu@@', 00H
_DATA	ENDS
;	COMDAT ??_R0?AVVertexStream@gfxu@@@8
_DATA	SEGMENT
??_R0?AVVertexStream@gfxu@@@8 DQ FLAT:??_7type_info@@6B@ ; gfxu::VertexStream `RTTI Type Descriptor'
	DQ	0000000000000000H
	DB	'.?AVVertexStream@gfxu@@', 00H
_DATA	ENDS
;	COMDAT ??_R1A@?0A@EA@Shader@gfxu@@8
rdata$r	SEGMENT
??_R1A@?0A@EA@Shader@gfxu@@8 DD imagerel ??_R0?AVShader@gfxu@@@8 ; gfxu::Shader::`RTTI Base Class Descriptor at (0,-1,0,64)'
	DD	00H
	DD	00H
	DD	0ffffffffH
	DD	00H
	DD	040H
	DD	imagerel ??_R3Shader@gfxu@@8
rdata$r	ENDS
;	COMDAT ??_R2VertexStream@gfxu@@8
rdata$r	SEGMENT
??_R2VertexStream@gfxu@@8 DD imagerel ??_R1A@?0A@EA@VertexStream@gfxu@@8 ; gfxu::VertexStream::`RTTI Base Class Array'
	ORG $+3
rdata$r	ENDS
;	COMDAT ??_R3Shader@gfxu@@8
rdata$r	SEGMENT
??_R3Shader@gfxu@@8 DD 00H				; gfxu::Shader::`RTTI Class Hierarchy Descriptor'
	DD	00H
	DD	01H
	DD	imagerel ??_R2Shader@gfxu@@8
rdata$r	ENDS
;	COMDAT ??_R4FragmentShader@gfxu@@6B@
rdata$r	SEGMENT
??_R4FragmentShader@gfxu@@6B@ DD 01H			; gfxu::FragmentShader::`RTTI Complete Object Locator'
	DD	00H
	DD	00H
	DD	imagerel ??_R0?AVFragmentShader@gfxu@@@8
	DD	imagerel ??_R3FragmentShader@gfxu@@8
	DD	imagerel ??_R4FragmentShader@gfxu@@6B@
rdata$r	ENDS
;	COMDAT ??_7VertexStream@gfxu@@6B@
CONST	SEGMENT
??_7VertexStream@gfxu@@6B@ DQ FLAT:??_R4VertexStream@gfxu@@6B@ ; gfxu::VertexStream::`vftable'
	DQ	FLAT:??_EVertexStream@gfxu@@UEAAPEAXI@Z
CONST	ENDS
;	COMDAT ??_R1A@?0A@EA@GeometryShader@gfxu@@8
rdata$r	SEGMENT
??_R1A@?0A@EA@GeometryShader@gfxu@@8 DD imagerel ??_R0?AVGeometryShader@gfxu@@@8 ; gfxu::GeometryShader::`RTTI Base Class Descriptor at (0,-1,0,64)'
	DD	01H
	DD	00H
	DD	0ffffffffH
	DD	00H
	DD	040H
	DD	imagerel ??_R3GeometryShader@gfxu@@8
rdata$r	ENDS
;	COMDAT ??_R0?AVFragmentShader@gfxu@@@8
_DATA	SEGMENT
??_R0?AVFragmentShader@gfxu@@@8 DQ FLAT:??_7type_info@@6B@ ; gfxu::FragmentShader `RTTI Type Descriptor'
	DQ	0000000000000000H
	DB	'.?AVFragmentShader@gfxu@@', 00H
_DATA	ENDS
;	COMDAT ??_R4VertexStream@gfxu@@6B@
rdata$r	SEGMENT
??_R4VertexStream@gfxu@@6B@ DD 01H			; gfxu::VertexStream::`RTTI Complete Object Locator'
	DD	00H
	DD	00H
	DD	imagerel ??_R0?AVVertexStream@gfxu@@@8
	DD	imagerel ??_R3VertexStream@gfxu@@8
	DD	imagerel ??_R4VertexStream@gfxu@@6B@
rdata$r	ENDS
;	COMDAT ??_R4VertexShader@gfxu@@6B@
rdata$r	SEGMENT
??_R4VertexShader@gfxu@@6B@ DD 01H			; gfxu::VertexShader::`RTTI Complete Object Locator'
	DD	00H
	DD	00H
	DD	imagerel ??_R0?AVVertexShader@gfxu@@@8
	DD	imagerel ??_R3VertexShader@gfxu@@8
	DD	imagerel ??_R4VertexShader@gfxu@@6B@
rdata$r	ENDS
;	COMDAT ??_R2Shader@gfxu@@8
rdata$r	SEGMENT
??_R2Shader@gfxu@@8 DD imagerel ??_R1A@?0A@EA@Shader@gfxu@@8 ; gfxu::Shader::`RTTI Base Class Array'
	ORG $+3
rdata$r	ENDS
;	COMDAT ??_R1A@?0A@EA@VertexShader@gfxu@@8
rdata$r	SEGMENT
??_R1A@?0A@EA@VertexShader@gfxu@@8 DD imagerel ??_R0?AVVertexShader@gfxu@@@8 ; gfxu::VertexShader::`RTTI Base Class Descriptor at (0,-1,0,64)'
	DD	01H
	DD	00H
	DD	0ffffffffH
	DD	00H
	DD	040H
	DD	imagerel ??_R3VertexShader@gfxu@@8
rdata$r	ENDS
;	COMDAT ??_R2VertexShader@gfxu@@8
rdata$r	SEGMENT
??_R2VertexShader@gfxu@@8 DD imagerel ??_R1A@?0A@EA@VertexShader@gfxu@@8 ; gfxu::VertexShader::`RTTI Base Class Array'
	DD	imagerel ??_R1A@?0A@EA@Shader@gfxu@@8
	ORG $+3
rdata$r	ENDS
;	COMDAT ??_R0?AVGeometryShader@gfxu@@@8
_DATA	SEGMENT
??_R0?AVGeometryShader@gfxu@@@8 DQ FLAT:??_7type_info@@6B@ ; gfxu::GeometryShader `RTTI Type Descriptor'
	DQ	0000000000000000H
	DB	'.?AVGeometryShader@gfxu@@', 00H
_DATA	ENDS
;	COMDAT ??_R1A@?0A@EA@FragmentShader@gfxu@@8
rdata$r	SEGMENT
??_R1A@?0A@EA@FragmentShader@gfxu@@8 DD imagerel ??_R0?AVFragmentShader@gfxu@@@8 ; gfxu::FragmentShader::`RTTI Base Class Descriptor at (0,-1,0,64)'
	DD	01H
	DD	00H
	DD	0ffffffffH
	DD	00H
	DD	040H
	DD	imagerel ??_R3FragmentShader@gfxu@@8
rdata$r	ENDS
;	COMDAT ??_R0?AVShader@gfxu@@@8
_DATA	SEGMENT
??_R0?AVShader@gfxu@@@8 DQ FLAT:??_7type_info@@6B@	; gfxu::Shader `RTTI Type Descriptor'
	DQ	0000000000000000H
	DB	'.?AVShader@gfxu@@', 00H
_DATA	ENDS
;	COMDAT ??_7GeometryShader@gfxu@@6B@
CONST	SEGMENT
??_7GeometryShader@gfxu@@6B@ DQ FLAT:??_R4GeometryShader@gfxu@@6B@ ; gfxu::GeometryShader::`vftable'
	DQ	FLAT:?compile@GeometryShader@gfxu@@UEAA_NXZ
CONST	ENDS
;	COMDAT ??_R3FragmentShader@gfxu@@8
rdata$r	SEGMENT
??_R3FragmentShader@gfxu@@8 DD 00H			; gfxu::FragmentShader::`RTTI Class Hierarchy Descriptor'
	DD	00H
	DD	02H
	DD	imagerel ??_R2FragmentShader@gfxu@@8
rdata$r	ENDS
;	COMDAT ??_R3VertexShader@gfxu@@8
rdata$r	SEGMENT
??_R3VertexShader@gfxu@@8 DD 00H			; gfxu::VertexShader::`RTTI Class Hierarchy Descriptor'
	DD	00H
	DD	02H
	DD	imagerel ??_R2VertexShader@gfxu@@8
rdata$r	ENDS
;	COMDAT ??_R2GeometryShader@gfxu@@8
rdata$r	SEGMENT
??_R2GeometryShader@gfxu@@8 DD imagerel ??_R1A@?0A@EA@GeometryShader@gfxu@@8 ; gfxu::GeometryShader::`RTTI Base Class Array'
	DD	imagerel ??_R1A@?0A@EA@Shader@gfxu@@8
	ORG $+3
rdata$r	ENDS
;	COMDAT ??_R3VertexStream@gfxu@@8
rdata$r	SEGMENT
??_R3VertexStream@gfxu@@8 DD 00H			; gfxu::VertexStream::`RTTI Class Hierarchy Descriptor'
	DD	00H
	DD	01H
	DD	imagerel ??_R2VertexStream@gfxu@@8
rdata$r	ENDS
;	COMDAT ??_7FragmentShader@gfxu@@6B@
CONST	SEGMENT
??_7FragmentShader@gfxu@@6B@ DQ FLAT:??_R4FragmentShader@gfxu@@6B@ ; gfxu::FragmentShader::`vftable'
	DQ	FLAT:?compile@FragmentShader@gfxu@@UEAA_NXZ
CONST	ENDS
;	COMDAT ??_R1A@?0A@EA@VertexStream@gfxu@@8
rdata$r	SEGMENT
??_R1A@?0A@EA@VertexStream@gfxu@@8 DD imagerel ??_R0?AVVertexStream@gfxu@@@8 ; gfxu::VertexStream::`RTTI Base Class Descriptor at (0,-1,0,64)'
	DD	00H
	DD	00H
	DD	0ffffffffH
	DD	00H
	DD	040H
	DD	imagerel ??_R3VertexStream@gfxu@@8
rdata$r	ENDS
;	COMDAT ??_R4Shader@gfxu@@6B@
rdata$r	SEGMENT
??_R4Shader@gfxu@@6B@ DD 01H				; gfxu::Shader::`RTTI Complete Object Locator'
	DD	00H
	DD	00H
	DD	imagerel ??_R0?AVShader@gfxu@@@8
	DD	imagerel ??_R3Shader@gfxu@@8
	DD	imagerel ??_R4Shader@gfxu@@6B@
rdata$r	ENDS
;	COMDAT ??_7Shader@gfxu@@6B@
CONST	SEGMENT
??_7Shader@gfxu@@6B@ DQ FLAT:??_R4Shader@gfxu@@6B@	; gfxu::Shader::`vftable'
	DQ	FLAT:_purecall
CONST	ENDS
;	COMDAT ??_R4GeometryShader@gfxu@@6B@
rdata$r	SEGMENT
??_R4GeometryShader@gfxu@@6B@ DD 01H			; gfxu::GeometryShader::`RTTI Complete Object Locator'
	DD	00H
	DD	00H
	DD	imagerel ??_R0?AVGeometryShader@gfxu@@@8
	DD	imagerel ??_R3GeometryShader@gfxu@@8
	DD	imagerel ??_R4GeometryShader@gfxu@@6B@
$SG4294921898 DB 'Vertex stream upload error', 00H
	ORG $+5
$SG4294921897 DB 'Vertex stream upload error', 00H
	ORG $+5
$SG4294921896 DB 'Shader compliation error', 00H
	ORG $+7
$SG4294921895 DB 'Shader compliation error', 00H
	ORG $+7
$SG4294921894 DB 'The shader had a compilation error, but returned no log'
	DB	'.', 00H
	ORG $+7
$SG4294921893 DB 'Unable to attach shaders.', 00H
	ORG $+6
$SG4294921892 DB 'Linking error', 00H
	ORG $+2
$SG4294921891 DB 'Linking error', 00H
	ORG $+2
$SG4294921890 DB 'The program has a linking error, but returned no log.', 00H
	ORG $+2
$SG4294921889 DB 'modelview', 00H
	ORG $+6
$SG4294921888 DB 'projection', 00H
	ORG $+5
$SG4294921887 DB 'const_color', 00H
	ORG $+4
$SG4294921886 DB 'cam_pos', 00H
$SG4294921885 DB 'fog_color', 00H
	ORG $+6
$SG4294921884 DB 'fog_dist', 00H
	ORG $+7
$SG4294921883 DB 'texture_1', 00H
	ORG $+6
$SG4294921882 DB 'OpenGL error', 00H
	ORG $+3
$SG4294921881 DB 'Icon load error', 00H
$SG4294921880 DB 'Invalid icon proportions', 00H
PUBLIC	??$_Pop_heap@PEAPEAVIcon@TiledTexture@gfxu@@_JPEAV123@P6A_NPEBV123@0@Z@std@@YAXPEAPEAVIcon@TiledTexture@gfxu@@00$$QEAPEAV123@P6A_NPEBV123@2@ZPEA_J@Z ; std::_Pop_heap<gfxu::TiledTexture::Icon * __ptr64 * __ptr64,__int64,gfxu::TiledTexture::Icon * __ptr64,bool (__cdecl*)(gfxu::TiledTexture::Icon const * __ptr64,gfxu::TiledTexture::Icon const * __ptr64)>
PUBLIC	??$_Move@AEAVMatrix@geom@@@std@@YA$$QEAVMatrix@geom@@AEAV12@@Z ; std::_Move<geom::Matrix & __ptr64>
PUBLIC	??$construct@VVertexUVRGBA@gfxu@@V12@@?$allocator@VVertexUVRGBA@gfxu@@@std@@QEAAXPEAVVertexUVRGBA@gfxu@@$$QEAV23@@Z ; std::allocator<gfxu::VertexUVRGBA>::construct<gfxu::VertexUVRGBA,gfxu::VertexUVRGBA>
PUBLIC	??$?0V?$basic_string@_WU?$char_traits@_W@std@@V?$allocator@_W@2@@std@@PEAVIcon@TiledTexture@gfxu@@@?$pair@$$CBV?$basic_string@_WU?$char_traits@_W@std@@V?$allocator@_W@2@@std@@PEAVIcon@TiledTexture@gfxu@@@std@@QEAA@$$QEAU?$pair@V?$basic_string@_WU?$char_traits@_W@std@@V?$allocator@_W@2@@std@@PEAVIcon@TiledTexture@gfxu@@@1@PEAPEAX@Z ; std::pair<std::basic_string<wchar_t,std::char_traits<wchar_t>,std::allocator<wchar_t> > const ,gfxu::TiledTexture::Icon * __ptr64>::pair<std::basic_string<wchar_t,std::char_traits<wchar_t>,std::allocator<wchar_t> > const ,gfxu::TiledTexture::Icon * __ptr64><std::basic_string<wchar_t,std::char_traits<wchar_t>,std::allocator<wchar_t> >,gfxu::TiledTexture::Icon * __ptr64>
PUBLIC	??$_Move_backward@PEAPEAVIcon@TiledTexture@gfxu@@PEAPEAV123@@std@@YAPEAPEAVIcon@TiledTexture@gfxu@@PEAPEAV123@00U_Scalar_ptr_iterator_tag@0@@Z ; std::_Move_backward<gfxu::TiledTexture::Icon * __ptr64 * __ptr64,gfxu::TiledTexture::Icon * __ptr64 * __ptr64>
PUBLIC	??$_Pop_heap_0@PEAPEAVIcon@TiledTexture@gfxu@@PEAV123@P6A_NPEBV123@0@Z@std@@YAXPEAPEAVIcon@TiledTexture@gfxu@@0P6A_NPEBV123@1@Z0@Z ; std::_Pop_heap_0<gfxu::TiledTexture::Icon * __ptr64 * __ptr64,gfxu::TiledTexture::Icon * __ptr64,bool (__cdecl*)(gfxu::TiledTexture::Icon const * __ptr64,gfxu::TiledTexture::Icon const * __ptr64)>
PUBLIC	??$_Push_heap@PEAPEAVIcon@TiledTexture@gfxu@@_JPEAV123@P6A_NPEBV123@0@Z@std@@YAXPEAPEAVIcon@TiledTexture@gfxu@@_J1$$QEAPEAV123@P6A_NPEBV123@3@Z@Z ; std::_Push_heap<gfxu::TiledTexture::Icon * __ptr64 * __ptr64,__int64,gfxu::TiledTexture::Icon * __ptr64,bool (__cdecl*)(gfxu::TiledTexture::Icon const * __ptr64,gfxu::TiledTexture::Icon const * __ptr64)>
PUBLIC	??$swap@VMatrix@geom@@@std@@YAXAEAVMatrix@geom@@0@Z ; std::swap<geom::Matrix>
PUBLIC	??$construct@VVertexUVRGBA@gfxu@@V12@@?$allocator_traits@V?$allocator@VVertexUVRGBA@gfxu@@@std@@@std@@SAXAEAV?$allocator@VVertexUVRGBA@gfxu@@@1@PEAVVertexUVRGBA@gfxu@@$$QEAV34@@Z ; std::allocator_traits<std::allocator<gfxu::VertexUVRGBA> >::construct<gfxu::VertexUVRGBA,gfxu::VertexUVRGBA>
PUBLIC	??$forward@VVertexUVRGBA@gfxu@@@std@@YA$$QEAVVertexUVRGBA@gfxu@@AEAV12@@Z ; std::forward<gfxu::VertexUVRGBA>
PUBLIC	??$destroy@VVertexUVRGBA@gfxu@@@?$allocator@VVertexUVRGBA@gfxu@@@std@@QEAAXPEAVVertexUVRGBA@gfxu@@@Z ; std::allocator<gfxu::VertexUVRGBA>::destroy<gfxu::VertexUVRGBA>
PUBLIC	??$forward@AEAV?$_Tree_iterator@V?$_Tree_val@U?$_Tree_simple_types@U?$pair@$$CBV?$basic_string@_WU?$char_traits@_W@std@@V?$allocator@_W@2@@std@@PEAVIcon@TiledTexture@gfxu@@@std@@@std@@@std@@@std@@@std@@YAAEAV?$_Tree_iterator@V?$_Tree_val@U?$_Tree_simple_types@U?$pair@$$CBV?$basic_string@_WU?$char_traits@_W@std@@V?$allocator@_W@2@@std@@PEAVIcon@TiledTexture@gfxu@@@std@@@std@@@std@@@0@AEAV10@@Z ; std::forward<std::_Tree_iterator<std::_Tree_val<std::_Tree_simple_types<std::pair<std::basic_string<wchar_t,std::char_traits<wchar_t>,std::allocator<wchar_t> > const ,gfxu::TiledTexture::Icon * __ptr64> > > > & __ptr64>
PUBLIC	??$forward@V?$_Tree_iterator@V?$_Tree_val@U?$_Tree_simple_types@U?$pair@$$CBV?$basic_string@_WU?$char_traits@_W@std@@V?$allocator@_W@2@@std@@PEAVIcon@TiledTexture@gfxu@@@std@@@std@@@std@@@std@@@std@@YA$$QEAV?$_Tree_iterator@V?$_Tree_val@U?$_Tree_simple_types@U?$pair@$$CBV?$basic_string@_WU?$char_traits@_W@std@@V?$allocator@_W@2@@std@@PEAVIcon@TiledTexture@gfxu@@@std@@@std@@@std@@@0@AEAV10@@Z ; std::forward<std::_Tree_iterator<std::_Tree_val<std::_Tree_simple_types<std::pair<std::basic_string<wchar_t,std::char_traits<wchar_t>,std::allocator<wchar_t> > const ,gfxu::TiledTexture::Icon * __ptr64> > > > >
PUBLIC	??$construct@U?$pair@$$CBV?$basic_string@_WU?$char_traits@_W@std@@V?$allocator@_W@2@@std@@PEAVIcon@TiledTexture@gfxu@@@std@@U?$pair@V?$basic_string@_WU?$char_traits@_W@std@@V?$allocator@_W@2@@std@@PEAVIcon@TiledTexture@gfxu@@@2@@?$allocator@U?$_Tree_node@U?$pair@$$CBV?$basic_string@_WU?$char_traits@_W@std@@V?$allocator@_W@2@@std@@PEAVIcon@TiledTexture@gfxu@@@std@@PEAX@std@@@std@@QEAAXPEAU?$pair@$$CBV?$basic_string@_WU?$char_traits@_W@std@@V?$allocator@_W@2@@std@@PEAVIcon@TiledTexture@gfxu@@@1@$$QEAU?$pair@V?$basic_string@_WU?$char_traits@_W@std@@V?$allocator@_W@2@@std@@PEAVIcon@TiledTexture@gfxu@@@1@@Z ; std::allocator<std::_Tree_node<std::pair<std::basic_string<wchar_t,std::char_traits<wchar_t>,std::allocator<wchar_t> > const ,gfxu::TiledTexture::Icon * __ptr64>,void * __ptr64> >::construct<std::pair<std::basic_string<wchar_t,std::char_traits<wchar_t>,std::allocator<wchar_t> > const ,gfxu::TiledTexture::Icon * __ptr64>,std::pair<std::basic_string<wchar_t,std::char_traits<wchar_t>,std::allocator<wchar_t> >,gfxu::TiledTexture::Icon * __ptr64> >
PUBLIC	??$_Move_backward@PEAPEAVIcon@TiledTexture@gfxu@@PEAPEAV123@@std@@YAPEAPEAVIcon@TiledTexture@gfxu@@PEAPEAV123@00@Z ; std::_Move_backward<gfxu::TiledTexture::Icon * __ptr64 * __ptr64,gfxu::TiledTexture::Icon * __ptr64 * __ptr64>
PUBLIC	??$_Pop_heap@PEAPEAVIcon@TiledTexture@gfxu@@P6A_NPEBV123@0@Z@std@@YAXPEAPEAVIcon@TiledTexture@gfxu@@0P6A_NPEBV123@1@Z@Z ; std::_Pop_heap<gfxu::TiledTexture::Icon * __ptr64 * __ptr64,bool (__cdecl*)(gfxu::TiledTexture::Icon const * __ptr64,gfxu::TiledTexture::Icon const * __ptr64)>
PUBLIC	??$_Adjust_heap@PEAPEAVIcon@TiledTexture@gfxu@@_JPEAV123@P6A_NPEBV123@0@Z@std@@YAXPEAPEAVIcon@TiledTexture@gfxu@@_J1$$QEAPEAV123@P6A_NPEBV123@3@Z@Z ; std::_Adjust_heap<gfxu::TiledTexture::Icon * __ptr64 * __ptr64,__int64,gfxu::TiledTexture::Icon * __ptr64,bool (__cdecl*)(gfxu::TiledTexture::Icon const * __ptr64,gfxu::TiledTexture::Icon const * __ptr64)>
PUBLIC	??$_Move@AEAPEAVIcon@TiledTexture@gfxu@@@std@@YA$$QEAPEAVIcon@TiledTexture@gfxu@@AEAPEAV123@@Z ; std::_Move<gfxu::TiledTexture::Icon * __ptr64 & __ptr64>
PUBLIC	??$forward@AEAPEAPEAVIcon@TiledTexture@gfxu@@@std@@YAAEAPEAPEAVIcon@TiledTexture@gfxu@@AEAPEAPEAV123@@Z ; std::forward<gfxu::TiledTexture::Icon * __ptr64 * __ptr64 & __ptr64>
PUBLIC	??$swap@PEAVIcon@TiledTexture@gfxu@@@std@@YAXAEAPEAVIcon@TiledTexture@gfxu@@0@Z ; std::swap<gfxu::TiledTexture::Icon * __ptr64>
PUBLIC	??$_Med3@PEAPEAVIcon@TiledTexture@gfxu@@P6A_NPEBV123@0@Z@std@@YAXPEAPEAVIcon@TiledTexture@gfxu@@00P6A_NPEBV123@1@Z@Z ; std::_Med3<gfxu::TiledTexture::Icon * __ptr64 * __ptr64,bool (__cdecl*)(gfxu::TiledTexture::Icon const * __ptr64,gfxu::TiledTexture::Icon const * __ptr64)>
PUBLIC	??Y?$_Deque_unchecked_const_iterator@V?$_Deque_val@U?$_Deque_simple_types@VMatrix@geom@@@std@@@std@@@std@@QEAAAEAV01@_J@Z ; std::_Deque_unchecked_const_iterator<std::_Deque_val<std::_Deque_simple_types<geom::Matrix> > >::operator+=
PUBLIC	??G?$_Deque_unchecked_const_iterator@V?$_Deque_val@U?$_Deque_simple_types@VMatrix@geom@@@std@@@std@@@std@@QEBA_JAEBV01@@Z ; std::_Deque_unchecked_const_iterator<std::_Deque_val<std::_Deque_simple_types<geom::Matrix> > >::operator-
PUBLIC	??D?$_Deque_unchecked_const_iterator@V?$_Deque_val@U?$_Deque_simple_types@VMatrix@geom@@@std@@@std@@@std@@QEBAAEBVMatrix@geom@@XZ ; std::_Deque_unchecked_const_iterator<std::_Deque_val<std::_Deque_simple_types<geom::Matrix> > >::operator*
PUBLIC	??Y?$_Deque_unchecked_iterator@V?$_Deque_val@U?$_Deque_simple_types@VMatrix@geom@@@std@@@std@@@std@@QEAAAEAV01@_J@Z ; std::_Deque_unchecked_iterator<std::_Deque_val<std::_Deque_simple_types<geom::Matrix> > >::operator+=
PUBLIC	??G?$_Deque_unchecked_iterator@V?$_Deque_val@U?$_Deque_simple_types@VMatrix@geom@@@std@@@std@@@std@@QEBA_JAEBV?$_Deque_unchecked_const_iterator@V?$_Deque_val@U?$_Deque_simple_types@VMatrix@geom@@@std@@@std@@@1@@Z ; std::_Deque_unchecked_iterator<std::_Deque_val<std::_Deque_simple_types<geom::Matrix> > >::operator-
PUBLIC	??H?$_Deque_unchecked_iterator@V?$_Deque_val@U?$_Deque_simple_types@VMatrix@geom@@@std@@@std@@@std@@QEBA?AV01@_J@Z ; std::_Deque_unchecked_iterator<std::_Deque_val<std::_Deque_simple_types<geom::Matrix> > >::operator+
PUBLIC	??D?$_Deque_unchecked_iterator@V?$_Deque_val@U?$_Deque_simple_types@VMatrix@geom@@@std@@@std@@@std@@QEBAAEAVMatrix@geom@@XZ ; std::_Deque_unchecked_iterator<std::_Deque_val<std::_Deque_simple_types<geom::Matrix> > >::operator*
PUBLIC	??G?$_Deque_iterator@V?$_Deque_val@U?$_Deque_simple_types@VMatrix@geom@@@std@@@std@@@std@@QEBA_JAEBV?$_Deque_const_iterator@V?$_Deque_val@U?$_Deque_simple_types@VMatrix@geom@@@std@@@std@@@1@@Z ; std::_Deque_iterator<std::_Deque_val<std::_Deque_simple_types<geom::Matrix> > >::operator-
PUBLIC	??$_Advance@V?$_Deque_iterator@V?$_Deque_val@U?$_Deque_simple_types@VMatrix@geom@@@std@@@std@@@std@@_J@std@@YAXAEAV?$_Deque_iterator@V?$_Deque_val@U?$_Deque_simple_types@VMatrix@geom@@@std@@@std@@@0@_JUrandom_access_iterator_tag@0@@Z ; std::_Advance<std::_Deque_iterator<std::_Deque_val<std::_Deque_simple_types<geom::Matrix> > >,__int64>
PUBLIC	??$_Distance2@V?$_Deque_iterator@V?$_Deque_val@U?$_Deque_simple_types@VMatrix@geom@@@std@@@std@@@std@@_J@std@@YAXV?$_Deque_iterator@V?$_Deque_val@U?$_Deque_simple_types@VMatrix@geom@@@std@@@std@@@0@0AEA_JUrandom_access_iterator_tag@0@@Z ; std::_Distance2<std::_Deque_iterator<std::_Deque_val<std::_Deque_simple_types<geom::Matrix> > >,__int64>
PUBLIC	??$_Rotate@V?$_Deque_unchecked_iterator@V?$_Deque_val@U?$_Deque_simple_types@VMatrix@geom@@@std@@@std@@@std@@_JVMatrix@geom@@@std@@YAXV?$_Deque_unchecked_iterator@V?$_Deque_val@U?$_Deque_simple_types@VMatrix@geom@@@std@@@std@@@0@00PEA_JPEAVMatrix@geom@@@Z ; std::_Rotate<std::_Deque_unchecked_iterator<std::_Deque_val<std::_Deque_simple_types<geom::Matrix> > >,__int64,geom::Matrix>
PUBLIC	??$_Val_type@V?$_Deque_unchecked_iterator@V?$_Deque_val@U?$_Deque_simple_types@VMatrix@geom@@@std@@@std@@@std@@@std@@YAPEAVMatrix@geom@@V?$_Deque_unchecked_iterator@V?$_Deque_val@U?$_Deque_simple_types@VMatrix@geom@@@std@@@std@@@0@@Z ; std::_Val_type<std::_Deque_unchecked_iterator<std::_Deque_val<std::_Deque_simple_types<geom::Matrix> > > >
PUBLIC	??$_Dist_type@V?$_Deque_unchecked_iterator@V?$_Deque_val@U?$_Deque_simple_types@VMatrix@geom@@@std@@@std@@@std@@@std@@YAPEA_JV?$_Deque_unchecked_iterator@V?$_Deque_val@U?$_Deque_simple_types@VMatrix@geom@@@std@@@std@@@0@@Z ; std::_Dist_type<std::_Deque_unchecked_iterator<std::_Deque_val<std::_Deque_simple_types<geom::Matrix> > > >
PUBLIC	??$iter_swap@V?$_Deque_unchecked_iterator@V?$_Deque_val@U?$_Deque_simple_types@VMatrix@geom@@@std@@@std@@@std@@V12@@std@@YAXV?$_Deque_unchecked_iterator@V?$_Deque_val@U?$_Deque_simple_types@VMatrix@geom@@@std@@@std@@@0@0@Z ; std::iter_swap<std::_Deque_unchecked_iterator<std::_Deque_val<std::_Deque_simple_types<geom::Matrix> > >,std::_Deque_unchecked_iterator<std::_Deque_val<std::_Deque_simple_types<geom::Matrix> > > >
PUBLIC	??$construct@VVertexUVRGBA@gfxu@@V12@@?$_Wrap_alloc@V?$allocator@VVertexUVRGBA@gfxu@@@std@@@std@@QEAAXPEAVVertexUVRGBA@gfxu@@$$QEAV23@@Z ; std::_Wrap_alloc<std::allocator<gfxu::VertexUVRGBA> >::construct<gfxu::VertexUVRGBA,gfxu::VertexUVRGBA>
PUBLIC	??$destroy@VVertexUVRGBA@gfxu@@@?$allocator_traits@V?$allocator@VVertexUVRGBA@gfxu@@@std@@@std@@SAXAEAV?$allocator@VVertexUVRGBA@gfxu@@@1@PEAVVertexUVRGBA@gfxu@@@Z ; std::allocator_traits<std::allocator<gfxu::VertexUVRGBA> >::destroy<gfxu::VertexUVRGBA>
PUBLIC	??$?0AEAV?$_Tree_iterator@V?$_Tree_val@U?$_Tree_simple_types@U?$pair@$$CBV?$basic_string@_WU?$char_traits@_W@std@@V?$allocator@_W@2@@std@@PEAVIcon@TiledTexture@gfxu@@@std@@@std@@@std@@@std@@_N@?$pair@V?$_Tree_iterator@V?$_Tree_val@U?$_Tree_simple_types@U?$pair@$$CBV?$basic_string@_WU?$char_traits@_W@std@@V?$allocator@_W@2@@std@@PEAVIcon@TiledTexture@gfxu@@@std@@@std@@@std@@@std@@_N@std@@QEAA@AEAV?$_Tree_iterator@V?$_Tree_val@U?$_Tree_simple_types@U?$pair@$$CBV?$basic_string@_WU?$char_traits@_W@std@@V?$allocator@_W@2@@std@@PEAVIcon@TiledTexture@gfxu@@@std@@@std@@@std@@@1@$$QEA_NPEAPEAX@Z ; std::pair<std::_Tree_iterator<std::_Tree_val<std::_Tree_simple_types<std::pair<std::basic_string<wchar_t,std::char_traits<wchar_t>,std::allocator<wchar_t> > const ,gfxu::TiledTexture::Icon * __ptr64> > > >,bool>::pair<std::_Tree_iterator<std::_Tree_val<std::_Tree_simple_types<std::pair<std::basic_string<wchar_t,std::char_traits<wchar_t>,std::allocator<wchar_t> > const ,gfxu::TiledTexture::Icon * __ptr64> > > >,bool><std::_Tree_iterator<std::_Tree_val<std::_Tree_simple_types<std::pair<std::basic_string<wchar_t,std::char_traits<wchar_t>,std::allocator<wchar_t> > const ,gfxu::TiledTexture::Icon * __ptr64> > > > & __ptr64,bool>
PUBLIC	??$?0V?$_Tree_iterator@V?$_Tree_val@U?$_Tree_simple_types@U?$pair@$$CBV?$basic_string@_WU?$char_traits@_W@std@@V?$allocator@_W@2@@std@@PEAVIcon@TiledTexture@gfxu@@@std@@@std@@@std@@@std@@_N@?$pair@V?$_Tree_iterator@V?$_Tree_val@U?$_Tree_simple_types@U?$pair@$$CBV?$basic_string@_WU?$char_traits@_W@std@@V?$allocator@_W@2@@std@@PEAVIcon@TiledTexture@gfxu@@@std@@@std@@@std@@@std@@_N@std@@QEAA@$$QEAU01@PEAPEAX@Z ; std::pair<std::_Tree_iterator<std::_Tree_val<std::_Tree_simple_types<std::pair<std::basic_string<wchar_t,std::char_traits<wchar_t>,std::allocator<wchar_t> > const ,gfxu::TiledTexture::Icon * __ptr64> > > >,bool>::pair<std::_Tree_iterator<std::_Tree_val<std::_Tree_simple_types<std::pair<std::basic_string<wchar_t,std::char_traits<wchar_t>,std::allocator<wchar_t> > const ,gfxu::TiledTexture::Icon * __ptr64> > > >,bool><std::_Tree_iterator<std::_Tree_val<std::_Tree_simple_types<std::pair<std::basic_string<wchar_t,std::char_traits<wchar_t>,std::allocator<wchar_t> > const ,gfxu::TiledTexture::Icon * __ptr64> > > >,bool>
PUBLIC	??$?0V?$_Tree_iterator@V?$_Tree_val@U?$_Tree_simple_types@U?$pair@$$CBV?$basic_string@_WU?$char_traits@_W@std@@V?$allocator@_W@2@@std@@PEAVIcon@TiledTexture@gfxu@@@std@@@std@@@std@@@std@@_N@?$pair@V?$_Tree_iterator@V?$_Tree_val@U?$_Tree_simple_types@U?$pair@$$CBV?$basic_string@_WU?$char_traits@_W@std@@V?$allocator@_W@2@@std@@PEAVIcon@TiledTexture@gfxu@@@std@@@std@@@std@@@std@@_N@std@@QEAA@$$QEAV?$_Tree_iterator@V?$_Tree_val@U?$_Tree_simple_types@U?$pair@$$CBV?$basic_string@_WU?$char_traits@_W@std@@V?$allocator@_W@2@@std@@PEAVIcon@TiledTexture@gfxu@@@std@@@std@@@std@@@1@$$QEA_NPEAPEAX@Z ; std::pair<std::_Tree_iterator<std::_Tree_val<std::_Tree_simple_types<std::pair<std::basic_string<wchar_t,std::char_traits<wchar_t>,std::allocator<wchar_t> > const ,gfxu::TiledTexture::Icon * __ptr64> > > >,bool>::pair<std::_Tree_iterator<std::_Tree_val<std::_Tree_simple_types<std::pair<std::basic_string<wchar_t,std::char_traits<wchar_t>,std::allocator<wchar_t> > const ,gfxu::TiledTexture::Icon * __ptr64> > > >,bool><std::_Tree_iterator<std::_Tree_val<std::_Tree_simple_types<std::pair<std::basic_string<wchar_t,std::char_traits<wchar_t>,std::allocator<wchar_t> > const ,gfxu::TiledTexture::Icon * __ptr64> > > >,bool>
PUBLIC	??$_Buynode_if_nil@AEAU?$pair@$$CBV?$basic_string@_WU?$char_traits@_W@std@@V?$allocator@_W@2@@std@@PEAVIcon@TiledTexture@gfxu@@@std@@@?$_Tree@V?$_Tmap_traits@V?$basic_string@_WU?$char_traits@_W@std@@V?$allocator@_W@2@@std@@PEAVIcon@TiledTexture@gfxu@@U?$less@V?$basic_string@_WU?$char_traits@_W@std@@V?$allocator@_W@2@@std@@@2@V?$allocator@U?$pair@$$CBV?$basic_string@_WU?$char_traits@_W@std@@V?$allocator@_W@2@@std@@PEAVIcon@TiledTexture@gfxu@@@std@@@2@$0A@@std@@@std@@IEAAPEAU?$_Tree_node@U?$pair@$$CBV?$basic_string@_WU?$char_traits@_W@std@@V?$allocator@_W@2@@std@@PEAVIcon@TiledTexture@gfxu@@@std@@PEAX@1@PEAU21@AEAU?$pair@$$CBV?$basic_string@_WU?$char_traits@_W@std@@V?$allocator@_W@2@@std@@PEAVIcon@TiledTexture@gfxu@@@1@@Z ; std::_Tree<std::_Tmap_traits<std::basic_string<wchar_t,std::char_traits<wchar_t>,std::allocator<wchar_t> >,gfxu::TiledTexture::Icon * __ptr64,std::less<std::basic_string<wchar_t,std::char_traits<wchar_t>,std::allocator<wchar_t> > >,std::allocator<std::pair<std::basic_string<wchar_t,std::char_traits<wchar_t>,std::allocator<wchar_t> > const ,gfxu::TiledTexture::Icon * __ptr64> >,0> >::_Buynode_if_nil<std::pair<std::basic_string<wchar_t,std::char_traits<wchar_t>,std::allocator<wchar_t> > const ,gfxu::TiledTexture::Icon * __ptr64> & __ptr64>
PUBLIC	??$construct@U?$pair@$$CBV?$basic_string@_WU?$char_traits@_W@std@@V?$allocator@_W@2@@std@@PEAVIcon@TiledTexture@gfxu@@@std@@U?$pair@V?$basic_string@_WU?$char_traits@_W@std@@V?$allocator@_W@2@@std@@PEAVIcon@TiledTexture@gfxu@@@2@@?$allocator_traits@V?$allocator@U?$_Tree_node@U?$pair@$$CBV?$basic_string@_WU?$char_traits@_W@std@@V?$allocator@_W@2@@std@@PEAVIcon@TiledTexture@gfxu@@@std@@PEAX@std@@@std@@@std@@SAXAEAV?$allocator@U?$_Tree_node@U?$pair@$$CBV?$basic_string@_WU?$char_traits@_W@std@@V?$allocator@_W@2@@std@@PEAVIcon@TiledTexture@gfxu@@@std@@PEAX@std@@@1@PEAU?$pair@$$CBV?$basic_string@_WU?$char_traits@_W@std@@V?$allocator@_W@2@@std@@PEAVIcon@TiledTexture@gfxu@@@1@$$QEAU?$pair@V?$basic_string@_WU?$char_traits@_W@std@@V?$allocator@_W@2@@std@@PEAVIcon@TiledTexture@gfxu@@@1@@Z ; std::allocator_traits<std::allocator<std::_Tree_node<std::pair<std::basic_string<wchar_t,std::char_traits<wchar_t>,std::allocator<wchar_t> > const ,gfxu::TiledTexture::Icon * __ptr64>,void * __ptr64> > >::construct<std::pair<std::basic_string<wchar_t,std::char_traits<wchar_t>,std::allocator<wchar_t> > const ,gfxu::TiledTexture::Icon * __ptr64>,std::pair<std::basic_string<wchar_t,std::char_traits<wchar_t>,std::allocator<wchar_t> >,gfxu::TiledTexture::Icon * __ptr64> >
PUBLIC	??$_Insertion_sort1@PEAPEAVIcon@TiledTexture@gfxu@@P6A_NPEBV123@0@ZPEAV123@@std@@YAXPEAPEAVIcon@TiledTexture@gfxu@@0P6A_NPEBV123@1@Z0@Z ; std::_Insertion_sort1<gfxu::TiledTexture::Icon * __ptr64 * __ptr64,bool (__cdecl*)(gfxu::TiledTexture::Icon const * __ptr64,gfxu::TiledTexture::Icon const * __ptr64),gfxu::TiledTexture::Icon * __ptr64>
PUBLIC	??$_Sort_heap@PEAPEAVIcon@TiledTexture@gfxu@@P6A_NPEBV123@0@Z@std@@YAXPEAPEAVIcon@TiledTexture@gfxu@@0P6A_NPEBV123@1@Z@Z ; std::_Sort_heap<gfxu::TiledTexture::Icon * __ptr64 * __ptr64,bool (__cdecl*)(gfxu::TiledTexture::Icon const * __ptr64,gfxu::TiledTexture::Icon const * __ptr64)>
PUBLIC	??$_Make_heap@PEAPEAVIcon@TiledTexture@gfxu@@_JPEAV123@P6A_NPEBV123@0@Z@std@@YAXPEAPEAVIcon@TiledTexture@gfxu@@0P6A_NPEBV123@1@ZPEA_J0@Z ; std::_Make_heap<gfxu::TiledTexture::Icon * __ptr64 * __ptr64,__int64,gfxu::TiledTexture::Icon * __ptr64,bool (__cdecl*)(gfxu::TiledTexture::Icon const * __ptr64,gfxu::TiledTexture::Icon const * __ptr64)>
PUBLIC	??$_Dist_type@PEAPEAVIcon@TiledTexture@gfxu@@@std@@YAPEA_JPEAPEAVIcon@TiledTexture@gfxu@@@Z ; std::_Dist_type<gfxu::TiledTexture::Icon * __ptr64 * __ptr64>
PUBLIC	??$_Unchecked@PEAPEAVIcon@TiledTexture@gfxu@@@std@@YAPEAPEAVIcon@TiledTexture@gfxu@@PEAPEAV123@@Z ; std::_Unchecked<gfxu::TiledTexture::Icon * __ptr64 * __ptr64>
PUBLIC	??$forward@PEAPEAVIcon@TiledTexture@gfxu@@@std@@YA$$QEAPEAPEAVIcon@TiledTexture@gfxu@@AEAPEAPEAV123@@Z ; std::forward<gfxu::TiledTexture::Icon * __ptr64 * __ptr64>
PUBLIC	??$?0AEAPEAPEAVIcon@TiledTexture@gfxu@@AEAPEAPEAV012@@?$pair@PEAPEAVIcon@TiledTexture@gfxu@@PEAPEAV123@@std@@QEAA@AEAPEAPEAVIcon@TiledTexture@gfxu@@0PEAPEAX@Z ; std::pair<gfxu::TiledTexture::Icon * __ptr64 * __ptr64,gfxu::TiledTexture::Icon * __ptr64 * __ptr64>::pair<gfxu::TiledTexture::Icon * __ptr64 * __ptr64,gfxu::TiledTexture::Icon * __ptr64 * __ptr64><gfxu::TiledTexture::Icon * __ptr64 * __ptr64 & __ptr64,gfxu::TiledTexture::Icon * __ptr64 * __ptr64 & __ptr64>
PUBLIC	??$iter_swap@PEAPEAVIcon@TiledTexture@gfxu@@PEAPEAV123@@std@@YAXPEAPEAVIcon@TiledTexture@gfxu@@0@Z ; std::iter_swap<gfxu::TiledTexture::Icon * __ptr64 * __ptr64,gfxu::TiledTexture::Icon * __ptr64 * __ptr64>
PUBLIC	??$_Median@PEAPEAVIcon@TiledTexture@gfxu@@P6A_NPEBV123@0@Z@std@@YAXPEAPEAVIcon@TiledTexture@gfxu@@00P6A_NPEBV123@1@Z@Z ; std::_Median<gfxu::TiledTexture::Icon * __ptr64 * __ptr64,bool (__cdecl*)(gfxu::TiledTexture::Icon const * __ptr64,gfxu::TiledTexture::Icon const * __ptr64)>
PUBLIC	?max_size@?$allocator@U?$_Tree_node@U?$pair@$$CBV?$basic_string@_WU?$char_traits@_W@std@@V?$allocator@_W@2@@std@@PEAVIcon@TiledTexture@gfxu@@@std@@PEAX@std@@@std@@QEBA_KXZ ; std::allocator<std::_Tree_node<std::pair<std::basic_string<wchar_t,std::char_traits<wchar_t>,std::allocator<wchar_t> > const ,gfxu::TiledTexture::Icon * __ptr64>,void * __ptr64> >::max_size
PUBLIC	??0?$_Deque_unchecked_const_iterator@V?$_Deque_val@U?$_Deque_simple_types@VMatrix@geom@@@std@@@std@@@std@@QEAA@_KPEBU_Container_base12@1@@Z ; std::_Deque_unchecked_const_iterator<std::_Deque_val<std::_Deque_simple_types<geom::Matrix> > >::_Deque_unchecked_const_iterator<std::_Deque_val<std::_Deque_simple_types<geom::Matrix> > >
PUBLIC	?max_size@?$allocator_traits@V?$allocator@U?$_Tree_node@U?$pair@$$CBV?$basic_string@_WU?$char_traits@_W@std@@V?$allocator@_W@2@@std@@PEAVIcon@TiledTexture@gfxu@@@std@@PEAX@std@@@std@@@std@@SA_KAEBV?$allocator@U?$_Tree_node@U?$pair@$$CBV?$basic_string@_WU?$char_traits@_W@std@@V?$allocator@_W@2@@std@@PEAVIcon@TiledTexture@gfxu@@@std@@PEAX@std@@@2@@Z ; std::allocator_traits<std::allocator<std::_Tree_node<std::pair<std::basic_string<wchar_t,std::char_traits<wchar_t>,std::allocator<wchar_t> > const ,gfxu::TiledTexture::Icon * __ptr64>,void * __ptr64> > >::max_size
PUBLIC	??8?$_Deque_unchecked_const_iterator@V?$_Deque_val@U?$_Deque_simple_types@VMatrix@geom@@@std@@@std@@@std@@QEBA_NAEBV01@@Z ; std::_Deque_unchecked_const_iterator<std::_Deque_val<std::_Deque_simple_types<geom::Matrix> > >::operator==
PUBLIC	??F?$_Deque_unchecked_const_iterator@V?$_Deque_val@U?$_Deque_simple_types@VMatrix@geom@@@std@@@std@@@std@@QEAAAEAV01@XZ ; std::_Deque_unchecked_const_iterator<std::_Deque_val<std::_Deque_simple_types<geom::Matrix> > >::operator--
PUBLIC	??E?$_Deque_unchecked_const_iterator@V?$_Deque_val@U?$_Deque_simple_types@VMatrix@geom@@@std@@@std@@@std@@QEAAAEAV01@XZ ; std::_Deque_unchecked_const_iterator<std::_Deque_val<std::_Deque_simple_types<geom::Matrix> > >::operator++
PUBLIC	??0?$_Deque_unchecked_iterator@V?$_Deque_val@U?$_Deque_simple_types@VMatrix@geom@@@std@@@std@@@std@@QEAA@_KPEBU_Container_base12@1@@Z ; std::_Deque_unchecked_iterator<std::_Deque_val<std::_Deque_simple_types<geom::Matrix> > >::_Deque_unchecked_iterator<std::_Deque_val<std::_Deque_simple_types<geom::Matrix> > >
PUBLIC	?max_size@?$_Wrap_alloc@V?$allocator@U?$_Tree_node@U?$pair@$$CBV?$basic_string@_WU?$char_traits@_W@std@@V?$allocator@_W@2@@std@@PEAVIcon@TiledTexture@gfxu@@@std@@PEAX@std@@@std@@@std@@QEBA_KXZ ; std::_Wrap_alloc<std::allocator<std::_Tree_node<std::pair<std::basic_string<wchar_t,std::char_traits<wchar_t>,std::allocator<wchar_t> > const ,gfxu::TiledTexture::Icon * __ptr64>,void * __ptr64> > >::max_size
PUBLIC	??9?$_Deque_unchecked_const_iterator@V?$_Deque_val@U?$_Deque_simple_types@VMatrix@geom@@@std@@@std@@@std@@QEBA_NAEBV01@@Z ; std::_Deque_unchecked_const_iterator<std::_Deque_val<std::_Deque_simple_types<geom::Matrix> > >::operator!=
PUBLIC	??F?$_Deque_unchecked_iterator@V?$_Deque_val@U?$_Deque_simple_types@VMatrix@geom@@@std@@@std@@@std@@QEAAAEAV01@XZ ; std::_Deque_unchecked_iterator<std::_Deque_val<std::_Deque_simple_types<geom::Matrix> > >::operator--
PUBLIC	??E?$_Deque_unchecked_iterator@V?$_Deque_val@U?$_Deque_simple_types@VMatrix@geom@@@std@@@std@@@std@@QEAAAEAV01@XZ ; std::_Deque_unchecked_iterator<std::_Deque_val<std::_Deque_simple_types<geom::Matrix> > >::operator++
PUBLIC	?_Unchecked@?$_Deque_iterator@V?$_Deque_val@U?$_Deque_simple_types@VMatrix@geom@@@std@@@std@@@std@@QEBA?AV?$_Deque_unchecked_iterator@V?$_Deque_val@U?$_Deque_simple_types@VMatrix@geom@@@std@@@std@@@2@XZ ; std::_Deque_iterator<std::_Deque_val<std::_Deque_simple_types<geom::Matrix> > >::_Unchecked
PUBLIC	??F?$_Tree_iterator@V?$_Tree_val@U?$_Tree_simple_types@U?$pair@$$CBV?$basic_string@_WU?$char_traits@_W@std@@V?$allocator@_W@2@@std@@PEAVIcon@TiledTexture@gfxu@@@std@@@std@@@std@@@std@@QEAAAEAV01@XZ ; std::_Tree_iterator<std::_Tree_val<std::_Tree_simple_types<std::pair<std::basic_string<wchar_t,std::char_traits<wchar_t>,std::allocator<wchar_t> > const ,gfxu::TiledTexture::Icon * __ptr64> > > >::operator--
PUBLIC	?max_size@?$_Tree@V?$_Tmap_traits@V?$basic_string@_WU?$char_traits@_W@std@@V?$allocator@_W@2@@std@@PEAVIcon@TiledTexture@gfxu@@U?$less@V?$basic_string@_WU?$char_traits@_W@std@@V?$allocator@_W@2@@std@@@2@V?$allocator@U?$pair@$$CBV?$basic_string@_WU?$char_traits@_W@std@@V?$allocator@_W@2@@std@@PEAVIcon@TiledTexture@gfxu@@@std@@@2@$0A@@std@@@std@@QEBA_KXZ ; std::_Tree<std::_Tmap_traits<std::basic_string<wchar_t,std::char_traits<wchar_t>,std::allocator<wchar_t> >,gfxu::TiledTexture::Icon * __ptr64,std::less<std::basic_string<wchar_t,std::char_traits<wchar_t>,std::allocator<wchar_t> > >,std::allocator<std::pair<std::basic_string<wchar_t,std::char_traits<wchar_t>,std::allocator<wchar_t> > const ,gfxu::TiledTexture::Icon * __ptr64> >,0> >::max_size
PUBLIC	??1?$pair@$$CBV?$basic_string@_WU?$char_traits@_W@std@@V?$allocator@_W@2@@std@@PEAVIcon@TiledTexture@gfxu@@@std@@QEAA@XZ ; std::pair<std::basic_string<wchar_t,std::char_traits<wchar_t>,std::allocator<wchar_t> > const ,gfxu::TiledTexture::Icon * __ptr64>::~pair<std::basic_string<wchar_t,std::char_traits<wchar_t>,std::allocator<wchar_t> > const ,gfxu::TiledTexture::Icon * __ptr64>
PUBLIC	??_G?$pair@$$CBV?$basic_string@_WU?$char_traits@_W@std@@V?$allocator@_W@2@@std@@PEAVIcon@TiledTexture@gfxu@@@std@@QEAAPEAXI@Z ; std::pair<std::basic_string<wchar_t,std::char_traits<wchar_t>,std::allocator<wchar_t> > const ,gfxu::TiledTexture::Icon * __ptr64>::`scalar deleting destructor'
PUBLIC	??$construct@PEAU?$_Tree_node@U?$pair@$$CBV?$basic_string@_WU?$char_traits@_W@std@@V?$allocator@_W@2@@std@@PEAVIcon@TiledTexture@gfxu@@@std@@PEAX@std@@AEAPEAU12@@?$allocator@U?$_Tree_node@U?$pair@$$CBV?$basic_string@_WU?$char_traits@_W@std@@V?$allocator@_W@2@@std@@PEAVIcon@TiledTexture@gfxu@@@std@@PEAX@std@@@std@@QEAAXPEAPEAU?$_Tree_node@U?$pair@$$CBV?$basic_string@_WU?$char_traits@_W@std@@V?$allocator@_W@2@@std@@PEAVIcon@TiledTexture@gfxu@@@std@@PEAX@1@AEAPEAU21@@Z ; std::allocator<std::_Tree_node<std::pair<std::basic_string<wchar_t,std::char_traits<wchar_t>,std::allocator<wchar_t> > const ,gfxu::TiledTexture::Icon * __ptr64>,void * __ptr64> >::construct<std::_Tree_node<std::pair<std::basic_string<wchar_t,std::char_traits<wchar_t>,std::allocator<wchar_t> > const ,gfxu::TiledTexture::Icon * __ptr64>,void * __ptr64> * __ptr64,std::_Tree_node<std::pair<std::basic_string<wchar_t,std::char_traits<wchar_t>,std::allocator<wchar_t> > const ,gfxu::TiledTexture::Icon * __ptr64>,void * __ptr64> * __ptr64 & __ptr64>
PUBLIC	??$destroy@U?$pair@$$CBV?$basic_string@_WU?$char_traits@_W@std@@V?$allocator@_W@2@@std@@PEAVIcon@TiledTexture@gfxu@@@std@@@?$allocator@U?$_Tree_node@U?$pair@$$CBV?$basic_string@_WU?$char_traits@_W@std@@V?$allocator@_W@2@@std@@PEAVIcon@TiledTexture@gfxu@@@std@@PEAX@std@@@std@@QEAAXPEAU?$pair@$$CBV?$basic_string@_WU?$char_traits@_W@std@@V?$allocator@_W@2@@std@@PEAVIcon@TiledTexture@gfxu@@@1@@Z ; std::allocator<std::_Tree_node<std::pair<std::basic_string<wchar_t,std::char_traits<wchar_t>,std::allocator<wchar_t> > const ,gfxu::TiledTexture::Icon * __ptr64>,void * __ptr64> >::destroy<std::pair<std::basic_string<wchar_t,std::char_traits<wchar_t>,std::allocator<wchar_t> > const ,gfxu::TiledTexture::Icon * __ptr64> >
PUBLIC	??$_Uninit_move@PEAVIcon@TiledTexture@gfxu@@PEAV123@PEAV123@@std@@YAPEAPEAVIcon@TiledTexture@gfxu@@PEAPEAV123@00AEAU?$_Wrap_alloc@V?$allocator@PEAVIcon@TiledTexture@gfxu@@@std@@@0@0U_Scalar_ptr_iterator_tag@0@@Z ; std::_Uninit_move<gfxu::TiledTexture::Icon * __ptr64,gfxu::TiledTexture::Icon * __ptr64,gfxu::TiledTexture::Icon * __ptr64>
PUBLIC	??$_Val_type@PEAPEAVIcon@TiledTexture@gfxu@@@std@@YAPEAPEAVIcon@TiledTexture@gfxu@@PEAPEAV123@@Z ; std::_Val_type<gfxu::TiledTexture::Icon * __ptr64 * __ptr64>
PUBLIC	??$_Fill_n@PEAPEAVMatrix@geom@@_KPEAV12@@std@@YAPEAPEAVMatrix@geom@@PEAPEAV12@_KAEBQEAV12@@Z ; std::_Fill_n<geom::Matrix * __ptr64 * __ptr64,unsigned __int64,geom::Matrix * __ptr64>
PUBLIC	??$destroy@PEAU?$_Tree_node@U?$pair@$$CBV?$basic_string@_WU?$char_traits@_W@std@@V?$allocator@_W@2@@std@@PEAVIcon@TiledTexture@gfxu@@@std@@PEAX@std@@@?$allocator@U?$_Tree_node@U?$pair@$$CBV?$basic_string@_WU?$char_traits@_W@std@@V?$allocator@_W@2@@std@@PEAVIcon@TiledTexture@gfxu@@@std@@PEAX@std@@@std@@QEAAXPEAPEAU?$_Tree_node@U?$pair@$$CBV?$basic_string@_WU?$char_traits@_W@std@@V?$allocator@_W@2@@std@@PEAVIcon@TiledTexture@gfxu@@@std@@PEAX@1@@Z ; std::allocator<std::_Tree_node<std::pair<std::basic_string<wchar_t,std::char_traits<wchar_t>,std::allocator<wchar_t> > const ,gfxu::TiledTexture::Icon * __ptr64>,void * __ptr64> >::destroy<std::_Tree_node<std::pair<std::basic_string<wchar_t,std::char_traits<wchar_t>,std::allocator<wchar_t> > const ,gfxu::TiledTexture::Icon * __ptr64>,void * __ptr64> * __ptr64>
PUBLIC	??$destroy@PEAVMatrix@geom@@@?$allocator@VMatrix@geom@@@std@@QEAAXPEAPEAVMatrix@geom@@@Z ; std::allocator<geom::Matrix>::destroy<geom::Matrix * __ptr64>
PUBLIC	??$destroy@VMatrix@geom@@@?$allocator@VMatrix@geom@@@std@@QEAAXPEAVMatrix@geom@@@Z ; std::allocator<geom::Matrix>::destroy<geom::Matrix>
PUBLIC	??$construct@VMatrix@geom@@V12@@?$allocator@VMatrix@geom@@@std@@QEAAXPEAVMatrix@geom@@$$QEAV23@@Z ; std::allocator<geom::Matrix>::construct<geom::Matrix,geom::Matrix>
PUBLIC	??$advance@V?$_Deque_iterator@V?$_Deque_val@U?$_Deque_simple_types@VMatrix@geom@@@std@@@std@@@std@@_J@std@@YAXAEAV?$_Deque_iterator@V?$_Deque_val@U?$_Deque_simple_types@VMatrix@geom@@@std@@@std@@@0@_J@Z ; std::advance<std::_Deque_iterator<std::_Deque_val<std::_Deque_simple_types<geom::Matrix> > >,__int64>
PUBLIC	??$distance@V?$_Deque_iterator@V?$_Deque_val@U?$_Deque_simple_types@VMatrix@geom@@@std@@@std@@@std@@@std@@YA_JV?$_Deque_iterator@V?$_Deque_val@U?$_Deque_simple_types@VMatrix@geom@@@std@@@std@@@0@0@Z ; std::distance<std::_Deque_iterator<std::_Deque_val<std::_Deque_simple_types<geom::Matrix> > > >
PUBLIC	??$_Rotate@V?$_Deque_unchecked_iterator@V?$_Deque_val@U?$_Deque_simple_types@VMatrix@geom@@@std@@@std@@@std@@@std@@YAXV?$_Deque_unchecked_iterator@V?$_Deque_val@U?$_Deque_simple_types@VMatrix@geom@@@std@@@std@@@0@00Urandom_access_iterator_tag@0@@Z ; std::_Rotate<std::_Deque_unchecked_iterator<std::_Deque_val<std::_Deque_simple_types<geom::Matrix> > > >
PUBLIC	??$_Reverse@V?$_Deque_unchecked_iterator@V?$_Deque_val@U?$_Deque_simple_types@VMatrix@geom@@@std@@@std@@@std@@@std@@YAXV?$_Deque_unchecked_iterator@V?$_Deque_val@U?$_Deque_simple_types@VMatrix@geom@@@std@@@std@@@0@0Ubidirectional_iterator_tag@0@@Z ; std::_Reverse<std::_Deque_unchecked_iterator<std::_Deque_val<std::_Deque_simple_types<geom::Matrix> > > >
PUBLIC	??$_Iter_cat@V?$_Deque_iterator@V?$_Deque_val@U?$_Deque_simple_types@VMatrix@geom@@@std@@@std@@@std@@@std@@YA?AUrandom_access_iterator_tag@0@AEBV?$_Deque_iterator@V?$_Deque_val@U?$_Deque_simple_types@VMatrix@geom@@@std@@@std@@@0@@Z ; std::_Iter_cat<std::_Deque_iterator<std::_Deque_val<std::_Deque_simple_types<geom::Matrix> > > >
PUBLIC	??$_Unchecked@V?$_Deque_val@U?$_Deque_simple_types@VMatrix@geom@@@std@@@std@@@std@@YA?AV?$_Deque_unchecked_iterator@V?$_Deque_val@U?$_Deque_simple_types@VMatrix@geom@@@std@@@std@@@0@V?$_Deque_iterator@V?$_Deque_val@U?$_Deque_simple_types@VMatrix@geom@@@std@@@std@@@0@@Z ; std::_Unchecked<std::_Deque_val<std::_Deque_simple_types<geom::Matrix> > >
PUBLIC	??$_Uninit_move@PEAVVertexUVRGBA@gfxu@@PEAV12@V?$allocator@VVertexUVRGBA@gfxu@@@std@@V12@@std@@YAPEAVVertexUVRGBA@gfxu@@PEAV12@00AEAU?$_Wrap_alloc@V?$allocator@VVertexUVRGBA@gfxu@@@std@@@0@0U_Nonscalar_ptr_iterator_tag@0@@Z ; std::_Uninit_move<gfxu::VertexUVRGBA * __ptr64,gfxu::VertexUVRGBA * __ptr64,std::allocator<gfxu::VertexUVRGBA>,gfxu::VertexUVRGBA>
PUBLIC	??$_Val_type@PEAVVertexUVRGBA@gfxu@@@std@@YAPEAVVertexUVRGBA@gfxu@@PEAV12@@Z ; std::_Val_type<gfxu::VertexUVRGBA * __ptr64>
PUBLIC	??$destroy@VVertexUVRGBA@gfxu@@@?$_Wrap_alloc@V?$allocator@VVertexUVRGBA@gfxu@@@std@@@std@@QEAAXPEAVVertexUVRGBA@gfxu@@@Z ; std::_Wrap_alloc<std::allocator<gfxu::VertexUVRGBA> >::destroy<gfxu::VertexUVRGBA>
PUBLIC	??$construct@PEAVIcon@TiledTexture@gfxu@@AEAPEAV123@@?$allocator@PEAVIcon@TiledTexture@gfxu@@@std@@QEAAXPEAPEAVIcon@TiledTexture@gfxu@@AEAPEAV234@@Z ; std::allocator<gfxu::TiledTexture::Icon * __ptr64>::construct<gfxu::TiledTexture::Icon * __ptr64,gfxu::TiledTexture::Icon * __ptr64 & __ptr64>
PUBLIC	??$construct@VVertexUVRGBA@gfxu@@AEAV12@@?$allocator@VVertexUVRGBA@gfxu@@@std@@QEAAXPEAVVertexUVRGBA@gfxu@@AEAV23@@Z ; std::allocator<gfxu::VertexUVRGBA>::construct<gfxu::VertexUVRGBA,gfxu::VertexUVRGBA & __ptr64>
PUBLIC	??$_Insert_nohint@AEAU?$pair@$$CBV?$basic_string@_WU?$char_traits@_W@std@@V?$allocator@_W@2@@std@@PEAVIcon@TiledTexture@gfxu@@@std@@PEAU?$_Tree_node@U?$pair@$$CBV?$basic_string@_WU?$char_traits@_W@std@@V?$allocator@_W@2@@std@@PEAVIcon@TiledTexture@gfxu@@@std@@PEAX@2@@?$_Tree@V?$_Tmap_traits@V?$basic_string@_WU?$char_traits@_W@std@@V?$allocator@_W@2@@std@@PEAVIcon@TiledTexture@gfxu@@U?$less@V?$basic_string@_WU?$char_traits@_W@std@@V?$allocator@_W@2@@std@@@2@V?$allocator@U?$pair@$$CBV?$basic_string@_WU?$char_traits@_W@std@@V?$allocator@_W@2@@std@@PEAVIcon@TiledTexture@gfxu@@@std@@@2@$0A@@std@@@std@@IEAA?AU?$pair@V?$_Tree_iterator@V?$_Tree_val@U?$_Tree_simple_types@U?$pair@$$CBV?$basic_string@_WU?$char_traits@_W@std@@V?$allocator@_W@2@@std@@PEAVIcon@TiledTexture@gfxu@@@std@@@std@@@std@@@std@@_N@1@_NAEAU?$pair@$$CBV?$basic_string@_WU?$char_traits@_W@std@@V?$allocator@_W@2@@std@@PEAVIcon@TiledTexture@gfxu@@@1@PEAU?$_Tree_node@U?$pair@$$CBV?$basic_string@_WU?$char_traits@_W@std@@V?$allocator@_W@2@@std@@PEAVIcon@TiledTexture@gfxu@@@std@@PEAX@1@@Z ; std::_Tree<std::_Tmap_traits<std::basic_string<wchar_t,std::char_traits<wchar_t>,std::allocator<wchar_t> >,gfxu::TiledTexture::Icon * __ptr64,std::less<std::basic_string<wchar_t,std::char_traits<wchar_t>,std::allocator<wchar_t> > >,std::allocator<std::pair<std::basic_string<wchar_t,std::char_traits<wchar_t>,std::allocator<wchar_t> > const ,gfxu::TiledTexture::Icon * __ptr64> >,0> >::_Insert_nohint<std::pair<std::basic_string<wchar_t,std::char_traits<wchar_t>,std::allocator<wchar_t> > const ,gfxu::TiledTexture::Icon * __ptr64> & __ptr64,std::_Tree_node<std::pair<std::basic_string<wchar_t,std::char_traits<wchar_t>,std::allocator<wchar_t> > const ,gfxu::TiledTexture::Icon * __ptr64>,void * __ptr64> * __ptr64>
PUBLIC	??$_Insert_at@AEAU?$pair@$$CBV?$basic_string@_WU?$char_traits@_W@std@@V?$allocator@_W@2@@std@@PEAVIcon@TiledTexture@gfxu@@@std@@PEAU?$_Tree_node@U?$pair@$$CBV?$basic_string@_WU?$char_traits@_W@std@@V?$allocator@_W@2@@std@@PEAVIcon@TiledTexture@gfxu@@@std@@PEAX@2@@?$_Tree@V?$_Tmap_traits@V?$basic_string@_WU?$char_traits@_W@std@@V?$allocator@_W@2@@std@@PEAVIcon@TiledTexture@gfxu@@U?$less@V?$basic_string@_WU?$char_traits@_W@std@@V?$allocator@_W@2@@std@@@2@V?$allocator@U?$pair@$$CBV?$basic_string@_WU?$char_traits@_W@std@@V?$allocator@_W@2@@std@@PEAVIcon@TiledTexture@gfxu@@@std@@@2@$0A@@std@@@std@@IEAA?AV?$_Tree_iterator@V?$_Tree_val@U?$_Tree_simple_types@U?$pair@$$CBV?$basic_string@_WU?$char_traits@_W@std@@V?$allocator@_W@2@@std@@PEAVIcon@TiledTexture@gfxu@@@std@@@std@@@std@@@1@_NPEAU?$_Tree_node@U?$pair@$$CBV?$basic_string@_WU?$char_traits@_W@std@@V?$allocator@_W@2@@std@@PEAVIcon@TiledTexture@gfxu@@@std@@PEAX@1@AEAU?$pair@$$CBV?$basic_string@_WU?$char_traits@_W@std@@V?$allocator@_W@2@@std@@PEAVIcon@TiledTexture@gfxu@@@1@1@Z ; std::_Tree<std::_Tmap_traits<std::basic_string<wchar_t,std::char_traits<wchar_t>,std::allocator<wchar_t> >,gfxu::TiledTexture::Icon * __ptr64,std::less<std::basic_string<wchar_t,std::char_traits<wchar_t>,std::allocator<wchar_t> > >,std::allocator<std::pair<std::basic_string<wchar_t,std::char_traits<wchar_t>,std::allocator<wchar_t> > const ,gfxu::TiledTexture::Icon * __ptr64> >,0> >::_Insert_at<std::pair<std::basic_string<wchar_t,std::char_traits<wchar_t>,std::allocator<wchar_t> > const ,gfxu::TiledTexture::Icon * __ptr64> & __ptr64,std::_Tree_node<std::pair<std::basic_string<wchar_t,std::char_traits<wchar_t>,std::allocator<wchar_t> > const ,gfxu::TiledTexture::Icon * __ptr64>,void * __ptr64> * __ptr64>
PUBLIC	??$forward@AEAU?$pair@$$CBV?$basic_string@_WU?$char_traits@_W@std@@V?$allocator@_W@2@@std@@PEAVIcon@TiledTexture@gfxu@@@std@@@std@@YAAEAU?$pair@$$CBV?$basic_string@_WU?$char_traits@_W@std@@V?$allocator@_W@2@@std@@PEAVIcon@TiledTexture@gfxu@@@0@AEAU10@@Z ; std::forward<std::pair<std::basic_string<wchar_t,std::char_traits<wchar_t>,std::allocator<wchar_t> > const ,gfxu::TiledTexture::Icon * __ptr64> & __ptr64>
PUBLIC	??$construct@U?$pair@$$CBV?$basic_string@_WU?$char_traits@_W@std@@V?$allocator@_W@2@@std@@PEAVIcon@TiledTexture@gfxu@@@std@@U?$pair@V?$basic_string@_WU?$char_traits@_W@std@@V?$allocator@_W@2@@std@@PEAVIcon@TiledTexture@gfxu@@@2@@?$_Wrap_alloc@V?$allocator@U?$_Tree_node@U?$pair@$$CBV?$basic_string@_WU?$char_traits@_W@std@@V?$allocator@_W@2@@std@@PEAVIcon@TiledTexture@gfxu@@@std@@PEAX@std@@@std@@@std@@QEAAXPEAU?$pair@$$CBV?$basic_string@_WU?$char_traits@_W@std@@V?$allocator@_W@2@@std@@PEAVIcon@TiledTexture@gfxu@@@1@$$QEAU?$pair@V?$basic_string@_WU?$char_traits@_W@std@@V?$allocator@_W@2@@std@@PEAVIcon@TiledTexture@gfxu@@@1@@Z ; std::_Wrap_alloc<std::allocator<std::_Tree_node<std::pair<std::basic_string<wchar_t,std::char_traits<wchar_t>,std::allocator<wchar_t> > const ,gfxu::TiledTexture::Icon * __ptr64>,void * __ptr64> > >::construct<std::pair<std::basic_string<wchar_t,std::char_traits<wchar_t>,std::allocator<wchar_t> > const ,gfxu::TiledTexture::Icon * __ptr64>,std::pair<std::basic_string<wchar_t,std::char_traits<wchar_t>,std::allocator<wchar_t> >,gfxu::TiledTexture::Icon * __ptr64> >
PUBLIC	??$_Insertion_sort@PEAPEAVIcon@TiledTexture@gfxu@@P6A_NPEBV123@0@Z@std@@YAXPEAPEAVIcon@TiledTexture@gfxu@@0P6A_NPEBV123@1@Z@Z ; std::_Insertion_sort<gfxu::TiledTexture::Icon * __ptr64 * __ptr64,bool (__cdecl*)(gfxu::TiledTexture::Icon const * __ptr64,gfxu::TiledTexture::Icon const * __ptr64)>
PUBLIC	??$sort_heap@PEAPEAVIcon@TiledTexture@gfxu@@P6A_NPEBV123@0@Z@std@@YAXPEAPEAVIcon@TiledTexture@gfxu@@0P6A_NPEBV123@1@Z@Z ; std::sort_heap<gfxu::TiledTexture::Icon * __ptr64 * __ptr64,bool (__cdecl*)(gfxu::TiledTexture::Icon const * __ptr64,gfxu::TiledTexture::Icon const * __ptr64)>
PUBLIC	??$make_heap@PEAPEAVIcon@TiledTexture@gfxu@@P6A_NPEBV123@0@Z@std@@YAXPEAPEAVIcon@TiledTexture@gfxu@@0P6A_NPEBV123@1@Z@Z ; std::make_heap<gfxu::TiledTexture::Icon * __ptr64 * __ptr64,bool (__cdecl*)(gfxu::TiledTexture::Icon const * __ptr64,gfxu::TiledTexture::Icon const * __ptr64)>
PUBLIC	??$?0PEAPEAVIcon@TiledTexture@gfxu@@PEAPEAV012@@?$pair@PEAPEAVIcon@TiledTexture@gfxu@@PEAPEAV123@@std@@QEAA@$$QEAU01@PEAPEAX@Z ; std::pair<gfxu::TiledTexture::Icon * __ptr64 * __ptr64,gfxu::TiledTexture::Icon * __ptr64 * __ptr64>::pair<gfxu::TiledTexture::Icon * __ptr64 * __ptr64,gfxu::TiledTexture::Icon * __ptr64 * __ptr64><gfxu::TiledTexture::Icon * __ptr64 * __ptr64,gfxu::TiledTexture::Icon * __ptr64 * __ptr64>
PUBLIC	??$_Unguarded_partition@PEAPEAVIcon@TiledTexture@gfxu@@P6A_NPEBV123@0@Z@std@@YA?AU?$pair@PEAPEAVIcon@TiledTexture@gfxu@@PEAPEAV123@@0@PEAPEAVIcon@TiledTexture@gfxu@@0P6A_NPEBV234@1@Z@Z ; std::_Unguarded_partition<gfxu::TiledTexture::Icon * __ptr64 * __ptr64,bool (__cdecl*)(gfxu::TiledTexture::Icon const * __ptr64,gfxu::TiledTexture::Icon const * __ptr64)>
PUBLIC	??F?$_Tree_unchecked_const_iterator@V?$_Tree_val@U?$_Tree_simple_types@U?$pair@$$CBV?$basic_string@_WU?$char_traits@_W@std@@V?$allocator@_W@2@@std@@PEAVIcon@TiledTexture@gfxu@@@std@@@std@@@std@@U_Iterator_base0@2@@std@@QEAAAEAV01@XZ ; std::_Tree_unchecked_const_iterator<std::_Tree_val<std::_Tree_simple_types<std::pair<std::basic_string<wchar_t,std::char_traits<wchar_t>,std::allocator<wchar_t> > const ,gfxu::TiledTexture::Icon * __ptr64> > >,std::_Iterator_base0>::operator--
PUBLIC	??0?$_Tree_unchecked_const_iterator@V?$_Tree_val@U?$_Tree_simple_types@U?$pair@$$CBV?$basic_string@_WU?$char_traits@_W@std@@V?$allocator@_W@2@@std@@PEAVIcon@TiledTexture@gfxu@@@std@@@std@@@std@@U_Iterator_base0@2@@std@@QEAA@XZ ; std::_Tree_unchecked_const_iterator<std::_Tree_val<std::_Tree_simple_types<std::pair<std::basic_string<wchar_t,std::char_traits<wchar_t>,std::allocator<wchar_t> > const ,gfxu::TiledTexture::Icon * __ptr64> > >,std::_Iterator_base0>::_Tree_unchecked_const_iterator<std::_Tree_val<std::_Tree_simple_types<std::pair<std::basic_string<wchar_t,std::char_traits<wchar_t>,std::allocator<wchar_t> > const ,gfxu::TiledTexture::Icon * __ptr64> > >,std::_Iterator_base0>
PUBLIC	?_Unchecked@?$_Vector_iterator@V?$_Vector_val@U?$_Simple_types@PEAVIcon@TiledTexture@gfxu@@@std@@@std@@@std@@QEBAPEAPEAVIcon@TiledTexture@gfxu@@XZ ; std::_Vector_iterator<std::_Vector_val<std::_Simple_types<gfxu::TiledTexture::Icon * __ptr64> > >::_Unchecked
PUBLIC	?construct@?$allocator@PEAVIcon@TiledTexture@gfxu@@@std@@QEAAXPEAPEAVIcon@TiledTexture@gfxu@@AEBQEAV345@@Z ; std::allocator<gfxu::TiledTexture::Icon * __ptr64>::construct
PUBLIC	??F?$_Tree_const_iterator@V?$_Tree_val@U?$_Tree_simple_types@U?$pair@$$CBV?$basic_string@_WU?$char_traits@_W@std@@V?$allocator@_W@2@@std@@PEAVIcon@TiledTexture@gfxu@@@std@@@std@@@std@@@std@@QEAAAEAV01@XZ ; std::_Tree_const_iterator<std::_Tree_val<std::_Tree_simple_types<std::pair<std::basic_string<wchar_t,std::char_traits<wchar_t>,std::allocator<wchar_t> > const ,gfxu::TiledTexture::Icon * __ptr64> > > >::operator--
PUBLIC	??0?$_Tree_const_iterator@V?$_Tree_val@U?$_Tree_simple_types@U?$pair@$$CBV?$basic_string@_WU?$char_traits@_W@std@@V?$allocator@_W@2@@std@@PEAVIcon@TiledTexture@gfxu@@@std@@@std@@@std@@@std@@QEAA@XZ ; std::_Tree_const_iterator<std::_Tree_val<std::_Tree_simple_types<std::pair<std::basic_string<wchar_t,std::char_traits<wchar_t>,std::allocator<wchar_t> > const ,gfxu::TiledTexture::Icon * __ptr64> > > >::_Tree_const_iterator<std::_Tree_val<std::_Tree_simple_types<std::pair<std::basic_string<wchar_t,std::char_traits<wchar_t>,std::allocator<wchar_t> > const ,gfxu::TiledTexture::Icon * __ptr64> > > >
PUBLIC	?construct@?$allocator@VMatrix@geom@@@std@@QEAAXPEAVMatrix@geom@@AEBV34@@Z ; std::allocator<geom::Matrix>::construct
PUBLIC	?construct@?$allocator@VVertexUVRGBA@gfxu@@@std@@QEAAXPEAVVertexUVRGBA@gfxu@@AEBV34@@Z ; std::allocator<gfxu::VertexUVRGBA>::construct
PUBLIC	?_Freenode0@?$_Tree_buy@U?$pair@$$CBV?$basic_string@_WU?$char_traits@_W@std@@V?$allocator@_W@2@@std@@PEAVIcon@TiledTexture@gfxu@@@std@@V?$allocator@U?$pair@$$CBV?$basic_string@_WU?$char_traits@_W@std@@V?$allocator@_W@2@@std@@PEAVIcon@TiledTexture@gfxu@@@std@@@2@@std@@QEAAXPEAU?$_Tree_node@U?$pair@$$CBV?$basic_string@_WU?$char_traits@_W@std@@V?$allocator@_W@2@@std@@PEAVIcon@TiledTexture@gfxu@@@std@@PEAX@2@@Z ; std::_Tree_buy<std::pair<std::basic_string<wchar_t,std::char_traits<wchar_t>,std::allocator<wchar_t> > const ,gfxu::TiledTexture::Icon * __ptr64>,std::allocator<std::pair<std::basic_string<wchar_t,std::char_traits<wchar_t>,std::allocator<wchar_t> > const ,gfxu::TiledTexture::Icon * __ptr64> > >::_Freenode0
PUBLIC	?_Buynode0@?$_Tree_buy@U?$pair@$$CBV?$basic_string@_WU?$char_traits@_W@std@@V?$allocator@_W@2@@std@@PEAVIcon@TiledTexture@gfxu@@@std@@V?$allocator@U?$pair@$$CBV?$basic_string@_WU?$char_traits@_W@std@@V?$allocator@_W@2@@std@@PEAVIcon@TiledTexture@gfxu@@@std@@@2@@std@@QEAAPEAU?$_Tree_node@U?$pair@$$CBV?$basic_string@_WU?$char_traits@_W@std@@V?$allocator@_W@2@@std@@PEAVIcon@TiledTexture@gfxu@@@std@@PEAX@2@XZ ; std::_Tree_buy<std::pair<std::basic_string<wchar_t,std::char_traits<wchar_t>,std::allocator<wchar_t> > const ,gfxu::TiledTexture::Icon * __ptr64>,std::allocator<std::pair<std::basic_string<wchar_t,std::char_traits<wchar_t>,std::allocator<wchar_t> > const ,gfxu::TiledTexture::Icon * __ptr64> > >::_Buynode0
PUBLIC	?_Destroy_if_not_nil@?$_Tree@V?$_Tmap_traits@V?$basic_string@_WU?$char_traits@_W@std@@V?$allocator@_W@2@@std@@PEAVIcon@TiledTexture@gfxu@@U?$less@V?$basic_string@_WU?$char_traits@_W@std@@V?$allocator@_W@2@@std@@@2@V?$allocator@U?$pair@$$CBV?$basic_string@_WU?$char_traits@_W@std@@V?$allocator@_W@2@@std@@PEAVIcon@TiledTexture@gfxu@@@std@@@2@$0A@@std@@@std@@IEAAXPEAU?$_Tree_node@U?$pair@$$CBV?$basic_string@_WU?$char_traits@_W@std@@V?$allocator@_W@2@@std@@PEAVIcon@TiledTexture@gfxu@@@std@@PEAX@2@@Z ; std::_Tree<std::_Tmap_traits<std::basic_string<wchar_t,std::char_traits<wchar_t>,std::allocator<wchar_t> >,gfxu::TiledTexture::Icon * __ptr64,std::less<std::basic_string<wchar_t,std::char_traits<wchar_t>,std::allocator<wchar_t> > >,std::allocator<std::pair<std::basic_string<wchar_t,std::char_traits<wchar_t>,std::allocator<wchar_t> > const ,gfxu::TiledTexture::Icon * __ptr64> >,0> >::_Destroy_if_not_nil
PUBLIC	?size@?$_Tree@V?$_Tmap_traits@V?$basic_string@_WU?$char_traits@_W@std@@V?$allocator@_W@2@@std@@PEAVIcon@TiledTexture@gfxu@@U?$less@V?$basic_string@_WU?$char_traits@_W@std@@V?$allocator@_W@2@@std@@@2@V?$allocator@U?$pair@$$CBV?$basic_string@_WU?$char_traits@_W@std@@V?$allocator@_W@2@@std@@PEAVIcon@TiledTexture@gfxu@@@std@@@2@$0A@@std@@@std@@QEBA_KXZ ; std::_Tree<std::_Tmap_traits<std::basic_string<wchar_t,std::char_traits<wchar_t>,std::allocator<wchar_t> >,gfxu::TiledTexture::Icon * __ptr64,std::less<std::basic_string<wchar_t,std::char_traits<wchar_t>,std::allocator<wchar_t> > >,std::allocator<std::pair<std::basic_string<wchar_t,std::char_traits<wchar_t>,std::allocator<wchar_t> > const ,gfxu::TiledTexture::Icon * __ptr64> >,0> >::size
PUBLIC	??$construct@PEAU?$_Tree_node@U?$pair@$$CBV?$basic_string@_WU?$char_traits@_W@std@@V?$allocator@_W@2@@std@@PEAVIcon@TiledTexture@gfxu@@@std@@PEAX@std@@AEAPEAU12@@?$allocator_traits@V?$allocator@U?$_Tree_node@U?$pair@$$CBV?$basic_string@_WU?$char_traits@_W@std@@V?$allocator@_W@2@@std@@PEAVIcon@TiledTexture@gfxu@@@std@@PEAX@std@@@std@@@std@@SAXAEAV?$allocator@U?$_Tree_node@U?$pair@$$CBV?$basic_string@_WU?$char_traits@_W@std@@V?$allocator@_W@2@@std@@PEAVIcon@TiledTexture@gfxu@@@std@@PEAX@std@@@1@PEAPEAU?$_Tree_node@U?$pair@$$CBV?$basic_string@_WU?$char_traits@_W@std@@V?$allocator@_W@2@@std@@PEAVIcon@TiledTexture@gfxu@@@std@@PEAX@1@AEAPEAU31@@Z ; std::allocator_traits<std::allocator<std::_Tree_node<std::pair<std::basic_string<wchar_t,std::char_traits<wchar_t>,std::allocator<wchar_t> > const ,gfxu::TiledTexture::Icon * __ptr64>,void * __ptr64> > >::construct<std::_Tree_node<std::pair<std::basic_string<wchar_t,std::char_traits<wchar_t>,std::allocator<wchar_t> > const ,gfxu::TiledTexture::Icon * __ptr64>,void * __ptr64> * __ptr64,std::_Tree_node<std::pair<std::basic_string<wchar_t,std::char_traits<wchar_t>,std::allocator<wchar_t> > const ,gfxu::TiledTexture::Icon * __ptr64>,void * __ptr64> * __ptr64 & __ptr64>
PUBLIC	??$forward@AEAPEAU?$_Tree_node@U?$pair@$$CBV?$basic_string@_WU?$char_traits@_W@std@@V?$allocator@_W@2@@std@@PEAVIcon@TiledTexture@gfxu@@@std@@PEAX@std@@@std@@YAAEAPEAU?$_Tree_node@U?$pair@$$CBV?$basic_string@_WU?$char_traits@_W@std@@V?$allocator@_W@2@@std@@PEAVIcon@TiledTexture@gfxu@@@std@@PEAX@0@AEAPEAU10@@Z ; std::forward<std::_Tree_node<std::pair<std::basic_string<wchar_t,std::char_traits<wchar_t>,std::allocator<wchar_t> > const ,gfxu::TiledTexture::Icon * __ptr64>,void * __ptr64> * __ptr64 & __ptr64>
PUBLIC	??$destroy@U?$pair@$$CBV?$basic_string@_WU?$char_traits@_W@std@@V?$allocator@_W@2@@std@@PEAVIcon@TiledTexture@gfxu@@@std@@@?$allocator_traits@V?$allocator@U?$_Tree_node@U?$pair@$$CBV?$basic_string@_WU?$char_traits@_W@std@@V?$allocator@_W@2@@std@@PEAVIcon@TiledTexture@gfxu@@@std@@PEAX@std@@@std@@@std@@SAXAEAV?$allocator@U?$_Tree_node@U?$pair@$$CBV?$basic_string@_WU?$char_traits@_W@std@@V?$allocator@_W@2@@std@@PEAVIcon@TiledTexture@gfxu@@@std@@PEAX@std@@@1@PEAU?$pair@$$CBV?$basic_string@_WU?$char_traits@_W@std@@V?$allocator@_W@2@@std@@PEAVIcon@TiledTexture@gfxu@@@1@@Z ; std::allocator_traits<std::allocator<std::_Tree_node<std::pair<std::basic_string<wchar_t,std::char_traits<wchar_t>,std::allocator<wchar_t> > const ,gfxu::TiledTexture::Icon * __ptr64>,void * __ptr64> > >::destroy<std::pair<std::basic_string<wchar_t,std::char_traits<wchar_t>,std::allocator<wchar_t> > const ,gfxu::TiledTexture::Icon * __ptr64> >
PUBLIC	??$_Uninitialized_move@PEAPEAVIcon@TiledTexture@gfxu@@PEAPEAV123@U?$_Wrap_alloc@V?$allocator@PEAVIcon@TiledTexture@gfxu@@@std@@@std@@@std@@YAPEAPEAVIcon@TiledTexture@gfxu@@PEAPEAV123@00AEAU?$_Wrap_alloc@V?$allocator@PEAVIcon@TiledTexture@gfxu@@@std@@@0@@Z ; std::_Uninitialized_move<gfxu::TiledTexture::Icon * __ptr64 * __ptr64,gfxu::TiledTexture::Icon * __ptr64 * __ptr64,std::_Wrap_alloc<std::allocator<gfxu::TiledTexture::Icon * __ptr64> > >
PUBLIC	??$_Destroy_range@U?$_Wrap_alloc@V?$allocator@PEAVIcon@TiledTexture@gfxu@@@std@@@std@@@std@@YAXPEAPEAVIcon@TiledTexture@gfxu@@0AEAU?$_Wrap_alloc@V?$allocator@PEAVIcon@TiledTexture@gfxu@@@std@@@0@U_Scalar_ptr_iterator_tag@0@@Z ; std::_Destroy_range<std::_Wrap_alloc<std::allocator<gfxu::TiledTexture::Icon * __ptr64> > >
PUBLIC	??$_Ptr_cat@PEAVIcon@TiledTexture@gfxu@@PEAV123@@std@@YA?AU_Scalar_ptr_iterator_tag@0@PEAPEAVIcon@TiledTexture@gfxu@@0@Z ; std::_Ptr_cat<gfxu::TiledTexture::Icon * __ptr64,gfxu::TiledTexture::Icon * __ptr64>
PUBLIC	??$_Destroy_range@U?$_Wrap_alloc@V?$allocator@PEAVMatrix@geom@@@std@@@std@@@std@@YAXPEAPEAVMatrix@geom@@0AEAU?$_Wrap_alloc@V?$allocator@PEAVMatrix@geom@@@std@@@0@U_Scalar_ptr_iterator_tag@0@@Z ; std::_Destroy_range<std::_Wrap_alloc<std::allocator<geom::Matrix * __ptr64> > >
PUBLIC	??$_Uninit_def_fill_n@PEAVMatrix@geom@@_KPEAV12@@std@@YAXPEAPEAVMatrix@geom@@_KAEAU?$_Wrap_alloc@V?$allocator@PEAVMatrix@geom@@@std@@@0@0U_Scalar_ptr_iterator_tag@0@@Z ; std::_Uninit_def_fill_n<geom::Matrix * __ptr64,unsigned __int64,geom::Matrix * __ptr64>
PUBLIC	??$_Val_type@PEAPEAVMatrix@geom@@@std@@YAPEAPEAVMatrix@geom@@PEAPEAV12@@Z ; std::_Val_type<geom::Matrix * __ptr64 * __ptr64>
PUBLIC	??$_Uninit_copy@PEAVMatrix@geom@@PEAV12@@std@@YAPEAPEAVMatrix@geom@@PEAPEAV12@00AEAU?$_Wrap_alloc@V?$allocator@PEAVMatrix@geom@@@std@@@0@U_Scalar_ptr_iterator_tag@0@@Z ; std::_Uninit_copy<geom::Matrix * __ptr64,geom::Matrix * __ptr64>
PUBLIC	??$_Ptr_cat@PEAVMatrix@geom@@PEAV12@@std@@YA?AU_Scalar_ptr_iterator_tag@0@PEAPEAVMatrix@geom@@0@Z ; std::_Ptr_cat<geom::Matrix * __ptr64,geom::Matrix * __ptr64>
PUBLIC	??$destroy@PEAU?$_Tree_node@U?$pair@$$CBV?$basic_string@_WU?$char_traits@_W@std@@V?$allocator@_W@2@@std@@PEAVIcon@TiledTexture@gfxu@@@std@@PEAX@std@@@?$allocator_traits@V?$allocator@U?$_Tree_node@U?$pair@$$CBV?$basic_string@_WU?$char_traits@_W@std@@V?$allocator@_W@2@@std@@PEAVIcon@TiledTexture@gfxu@@@std@@PEAX@std@@@std@@@std@@SAXAEAV?$allocator@U?$_Tree_node@U?$pair@$$CBV?$basic_string@_WU?$char_traits@_W@std@@V?$allocator@_W@2@@std@@PEAVIcon@TiledTexture@gfxu@@@std@@PEAX@std@@@1@PEAPEAU?$_Tree_node@U?$pair@$$CBV?$basic_string@_WU?$char_traits@_W@std@@V?$allocator@_W@2@@std@@PEAVIcon@TiledTexture@gfxu@@@std@@PEAX@1@@Z ; std::allocator_traits<std::allocator<std::_Tree_node<std::pair<std::basic_string<wchar_t,std::char_traits<wchar_t>,std::allocator<wchar_t> > const ,gfxu::TiledTexture::Icon * __ptr64>,void * __ptr64> > >::destroy<std::_Tree_node<std::pair<std::basic_string<wchar_t,std::char_traits<wchar_t>,std::allocator<wchar_t> > const ,gfxu::TiledTexture::Icon * __ptr64>,void * __ptr64> * __ptr64>
PUBLIC	??$destroy@PEAVMatrix@geom@@@?$allocator_traits@V?$allocator@VMatrix@geom@@@std@@@std@@SAXAEAV?$allocator@VMatrix@geom@@@1@PEAPEAVMatrix@geom@@@Z ; std::allocator_traits<std::allocator<geom::Matrix> >::destroy<geom::Matrix * __ptr64>
PUBLIC	??$?0VMatrix@geom@@@?$allocator@PEAVMatrix@geom@@@std@@QEAA@AEBV?$allocator@VMatrix@geom@@@1@@Z ; std::allocator<geom::Matrix * __ptr64>::allocator<geom::Matrix * __ptr64><geom::Matrix>
PUBLIC	??$destroy@VMatrix@geom@@@?$allocator_traits@V?$allocator@VMatrix@geom@@@std@@@std@@SAXAEAV?$allocator@VMatrix@geom@@@1@PEAVMatrix@geom@@@Z ; std::allocator_traits<std::allocator<geom::Matrix> >::destroy<geom::Matrix>
PUBLIC	??$construct@VMatrix@geom@@AEBV12@@?$allocator_traits@V?$allocator@VMatrix@geom@@@std@@@std@@SAXAEAV?$allocator@VMatrix@geom@@@1@PEAVMatrix@geom@@AEBV34@@Z ; std::allocator_traits<std::allocator<geom::Matrix> >::construct<geom::Matrix,geom::Matrix const & __ptr64>
PUBLIC	??$forward@AEBVMatrix@geom@@@std@@YAAEBVMatrix@geom@@AEBV12@@Z ; std::forward<geom::Matrix const & __ptr64>
PUBLIC	??$construct@VMatrix@geom@@V12@@?$allocator_traits@V?$allocator@VMatrix@geom@@@std@@@std@@SAXAEAV?$allocator@VMatrix@geom@@@1@PEAVMatrix@geom@@$$QEAV34@@Z ; std::allocator_traits<std::allocator<geom::Matrix> >::construct<geom::Matrix,geom::Matrix>
PUBLIC	??$rotate@V?$_Deque_iterator@V?$_Deque_val@U?$_Deque_simple_types@VMatrix@geom@@@std@@@std@@@std@@@std@@YA?AV?$_Deque_iterator@V?$_Deque_val@U?$_Deque_simple_types@VMatrix@geom@@@std@@@std@@@0@V10@00@Z ; std::rotate<std::_Deque_iterator<std::_Deque_val<std::_Deque_simple_types<geom::Matrix> > > >
PUBLIC	??$reverse@V?$_Deque_iterator@V?$_Deque_val@U?$_Deque_simple_types@VMatrix@geom@@@std@@@std@@@std@@@std@@YAXV?$_Deque_iterator@V?$_Deque_val@U?$_Deque_simple_types@VMatrix@geom@@@std@@@std@@@0@0@Z ; std::reverse<std::_Deque_iterator<std::_Deque_val<std::_Deque_simple_types<geom::Matrix> > > >
PUBLIC	??$_Uninitialized_move@PEAVVertexUVRGBA@gfxu@@PEAV12@U?$_Wrap_alloc@V?$allocator@VVertexUVRGBA@gfxu@@@std@@@std@@@std@@YAPEAVVertexUVRGBA@gfxu@@PEAV12@00AEAU?$_Wrap_alloc@V?$allocator@VVertexUVRGBA@gfxu@@@std@@@0@@Z ; std::_Uninitialized_move<gfxu::VertexUVRGBA * __ptr64,gfxu::VertexUVRGBA * __ptr64,std::_Wrap_alloc<std::allocator<gfxu::VertexUVRGBA> > >
PUBLIC	??$_Destroy_range@U?$_Wrap_alloc@V?$allocator@VVertexUVRGBA@gfxu@@@std@@@std@@@std@@YAXPEAVVertexUVRGBA@gfxu@@0AEAU?$_Wrap_alloc@V?$allocator@VVertexUVRGBA@gfxu@@@std@@@0@U_Nonscalar_ptr_iterator_tag@0@@Z ; std::_Destroy_range<std::_Wrap_alloc<std::allocator<gfxu::VertexUVRGBA> > >
PUBLIC	??$_Ptr_cat@VVertexUVRGBA@gfxu@@V12@@std@@YA?AU_Nonscalar_ptr_iterator_tag@0@PEAVVertexUVRGBA@gfxu@@0@Z ; std::_Ptr_cat<gfxu::VertexUVRGBA,gfxu::VertexUVRGBA>
PUBLIC	??$construct@PEAVIcon@TiledTexture@gfxu@@AEBQEAV123@@?$allocator_traits@V?$allocator@PEAVIcon@TiledTexture@gfxu@@@std@@@std@@SAXAEAV?$allocator@PEAVIcon@TiledTexture@gfxu@@@1@PEAPEAVIcon@TiledTexture@gfxu@@AEBQEAV345@@Z ; std::allocator_traits<std::allocator<gfxu::TiledTexture::Icon * __ptr64> >::construct<gfxu::TiledTexture::Icon * __ptr64,gfxu::TiledTexture::Icon * __ptr64 const & __ptr64>
PUBLIC	??$forward@AEBQEAVIcon@TiledTexture@gfxu@@@std@@YAAEBQEAVIcon@TiledTexture@gfxu@@AEBQEAV123@@Z ; std::forward<gfxu::TiledTexture::Icon * __ptr64 const & __ptr64>
PUBLIC	??$construct@PEAVIcon@TiledTexture@gfxu@@AEAPEAV123@@?$allocator_traits@V?$allocator@PEAVIcon@TiledTexture@gfxu@@@std@@@std@@SAXAEAV?$allocator@PEAVIcon@TiledTexture@gfxu@@@1@PEAPEAVIcon@TiledTexture@gfxu@@AEAPEAV345@@Z ; std::allocator_traits<std::allocator<gfxu::TiledTexture::Icon * __ptr64> >::construct<gfxu::TiledTexture::Icon * __ptr64,gfxu::TiledTexture::Icon * __ptr64 & __ptr64>
PUBLIC	??$forward@AEAPEAVIcon@TiledTexture@gfxu@@@std@@YAAEAPEAVIcon@TiledTexture@gfxu@@AEAPEAV123@@Z ; std::forward<gfxu::TiledTexture::Icon * __ptr64 & __ptr64>
PUBLIC	??$construct@VVertexUVRGBA@gfxu@@AEBV12@@?$allocator_traits@V?$allocator@VVertexUVRGBA@gfxu@@@std@@@std@@SAXAEAV?$allocator@VVertexUVRGBA@gfxu@@@1@PEAVVertexUVRGBA@gfxu@@AEBV34@@Z ; std::allocator_traits<std::allocator<gfxu::VertexUVRGBA> >::construct<gfxu::VertexUVRGBA,gfxu::VertexUVRGBA const & __ptr64>
PUBLIC	??$forward@AEBVVertexUVRGBA@gfxu@@@std@@YAAEBVVertexUVRGBA@gfxu@@AEBV12@@Z ; std::forward<gfxu::VertexUVRGBA const & __ptr64>
PUBLIC	??$construct@VVertexUVRGBA@gfxu@@AEAV12@@?$allocator_traits@V?$allocator@VVertexUVRGBA@gfxu@@@std@@@std@@SAXAEAV?$allocator@VVertexUVRGBA@gfxu@@@1@PEAVVertexUVRGBA@gfxu@@AEAV34@@Z ; std::allocator_traits<std::allocator<gfxu::VertexUVRGBA> >::construct<gfxu::VertexUVRGBA,gfxu::VertexUVRGBA & __ptr64>
PUBLIC	??$forward@AEAVVertexUVRGBA@gfxu@@@std@@YAAEAVVertexUVRGBA@gfxu@@AEAV12@@Z ; std::forward<gfxu::VertexUVRGBA & __ptr64>
PUBLIC	??$_Insert_hint@AEAU?$pair@$$CBV?$basic_string@_WU?$char_traits@_W@std@@V?$allocator@_W@2@@std@@PEAVIcon@TiledTexture@gfxu@@@std@@PEAU?$_Tree_node@U?$pair@$$CBV?$basic_string@_WU?$char_traits@_W@std@@V?$allocator@_W@2@@std@@PEAVIcon@TiledTexture@gfxu@@@std@@PEAX@2@@?$_Tree@V?$_Tmap_traits@V?$basic_string@_WU?$char_traits@_W@std@@V?$allocator@_W@2@@std@@PEAVIcon@TiledTexture@gfxu@@U?$less@V?$basic_string@_WU?$char_traits@_W@std@@V?$allocator@_W@2@@std@@@2@V?$allocator@U?$pair@$$CBV?$basic_string@_WU?$char_traits@_W@std@@V?$allocator@_W@2@@std@@PEAVIcon@TiledTexture@gfxu@@@std@@@2@$0A@@std@@@std@@IEAA?AV?$_Tree_iterator@V?$_Tree_val@U?$_Tree_simple_types@U?$pair@$$CBV?$basic_string@_WU?$char_traits@_W@std@@V?$allocator@_W@2@@std@@PEAVIcon@TiledTexture@gfxu@@@std@@@std@@@std@@@1@V?$_Tree_const_iterator@V?$_Tree_val@U?$_Tree_simple_types@U?$pair@$$CBV?$basic_string@_WU?$char_traits@_W@std@@V?$allocator@_W@2@@std@@PEAVIcon@TiledTexture@gfxu@@@std@@@std@@@std@@@1@AEAU?$pair@$$CBV?$basic_string@_WU?$char_traits@_W@std@@V?$allocator@_W@2@@std@@PEAVIcon@TiledTexture@gfxu@@@1@PEAU?$_Tree_node@U?$pair@$$CBV?$basic_string@_WU?$char_traits@_W@std@@V?$allocator@_W@2@@std@@PEAVIcon@TiledTexture@gfxu@@@std@@PEAX@1@@Z ; std::_Tree<std::_Tmap_traits<std::basic_string<wchar_t,std::char_traits<wchar_t>,std::allocator<wchar_t> >,gfxu::TiledTexture::Icon * __ptr64,std::less<std::basic_string<wchar_t,std::char_traits<wchar_t>,std::allocator<wchar_t> > >,std::allocator<std::pair<std::basic_string<wchar_t,std::char_traits<wchar_t>,std::allocator<wchar_t> > const ,gfxu::TiledTexture::Icon * __ptr64> >,0> >::_Insert_hint<std::pair<std::basic_string<wchar_t,std::char_traits<wchar_t>,std::allocator<wchar_t> > const ,gfxu::TiledTexture::Icon * __ptr64> & __ptr64,std::_Tree_node<std::pair<std::basic_string<wchar_t,std::char_traits<wchar_t>,std::allocator<wchar_t> > const ,gfxu::TiledTexture::Icon * __ptr64>,void * __ptr64> * __ptr64>
PUBLIC	??$_Buynode@U?$pair@V?$basic_string@_WU?$char_traits@_W@std@@V?$allocator@_W@2@@std@@PEAVIcon@TiledTexture@gfxu@@@std@@@?$_Tree_buy@U?$pair@$$CBV?$basic_string@_WU?$char_traits@_W@std@@V?$allocator@_W@2@@std@@PEAVIcon@TiledTexture@gfxu@@@std@@V?$allocator@U?$pair@$$CBV?$basic_string@_WU?$char_traits@_W@std@@V?$allocator@_W@2@@std@@PEAVIcon@TiledTexture@gfxu@@@std@@@2@@std@@QEAAPEAU?$_Tree_node@U?$pair@$$CBV?$basic_string@_WU?$char_traits@_W@std@@V?$allocator@_W@2@@std@@PEAVIcon@TiledTexture@gfxu@@@std@@PEAX@1@$$QEAU?$pair@V?$basic_string@_WU?$char_traits@_W@std@@V?$allocator@_W@2@@std@@PEAVIcon@TiledTexture@gfxu@@@1@@Z ; std::_Tree_buy<std::pair<std::basic_string<wchar_t,std::char_traits<wchar_t>,std::allocator<wchar_t> > const ,gfxu::TiledTexture::Icon * __ptr64>,std::allocator<std::pair<std::basic_string<wchar_t,std::char_traits<wchar_t>,std::allocator<wchar_t> > const ,gfxu::TiledTexture::Icon * __ptr64> > >::_Buynode<std::pair<std::basic_string<wchar_t,std::char_traits<wchar_t>,std::allocator<wchar_t> >,gfxu::TiledTexture::Icon * __ptr64> >
PUBLIC	??$forward@U?$pair@V?$basic_string@_WU?$char_traits@_W@std@@V?$allocator@_W@2@@std@@PEAVIcon@TiledTexture@gfxu@@@std@@@std@@YA$$QEAU?$pair@V?$basic_string@_WU?$char_traits@_W@std@@V?$allocator@_W@2@@std@@PEAVIcon@TiledTexture@gfxu@@@0@AEAU10@@Z ; std::forward<std::pair<std::basic_string<wchar_t,std::char_traits<wchar_t>,std::allocator<wchar_t> >,gfxu::TiledTexture::Icon * __ptr64> >
PUBLIC	??$forward@PEAVIcon@TiledTexture@gfxu@@@std@@YA$$QEAPEAVIcon@TiledTexture@gfxu@@AEAPEAV123@@Z ; std::forward<gfxu::TiledTexture::Icon * __ptr64>
PUBLIC	??$forward@AEBV?$basic_string@_WU?$char_traits@_W@std@@V?$allocator@_W@2@@std@@@std@@YAAEBV?$basic_string@_WU?$char_traits@_W@std@@V?$allocator@_W@2@@0@AEBV10@@Z ; std::forward<std::basic_string<wchar_t,std::char_traits<wchar_t>,std::allocator<wchar_t> > const & __ptr64>
PUBLIC	??$_Sort@PEAPEAVIcon@TiledTexture@gfxu@@_JP6A_NPEBV123@0@Z@std@@YAXPEAPEAVIcon@TiledTexture@gfxu@@0_JP6A_NPEBV123@2@Z@Z ; std::_Sort<gfxu::TiledTexture::Icon * __ptr64 * __ptr64,__int64,bool (__cdecl*)(gfxu::TiledTexture::Icon const * __ptr64,gfxu::TiledTexture::Icon const * __ptr64)>
PUBLIC	??$_Unchecked@V?$_Vector_val@U?$_Simple_types@PEAVIcon@TiledTexture@gfxu@@@std@@@std@@@std@@YAPEAPEAVIcon@TiledTexture@gfxu@@V?$_Vector_iterator@V?$_Vector_val@U?$_Simple_types@PEAVIcon@TiledTexture@gfxu@@@std@@@std@@@0@@Z ; std::_Unchecked<std::_Vector_val<std::_Simple_types<gfxu::TiledTexture::Icon * __ptr64> > >
PUBLIC	??$put@VTaskVBOVAOSet@Tasks@@@MiniHeap@MemUtil@@QEAAPEAVTaskVBOVAOSet@Tasks@@V23@@Z ; MemUtil::MiniHeap::put<Tasks::TaskVBOVAOSet>
PUBLIC	?_Compat@?$_Deque_const_iterator@V?$_Deque_val@U?$_Deque_simple_types@VMatrix@geom@@@std@@@std@@@std@@QEBAXAEBV12@@Z ; std::_Deque_const_iterator<std::_Deque_val<std::_Deque_simple_types<geom::Matrix> > >::_Compat
PUBLIC	??G?$_Vector_const_iterator@V?$_Vector_val@U?$_Simple_types@PEAVIcon@TiledTexture@gfxu@@@std@@@std@@@std@@QEBA_JAEBV01@@Z ; std::_Vector_const_iterator<std::_Vector_val<std::_Simple_types<gfxu::TiledTexture::Icon * __ptr64> > >::operator-
PUBLIC	?compare@?$basic_string@_WU?$char_traits@_W@std@@V?$allocator@_W@2@@std@@QEBAH_K0PEB_W0@Z ; std::basic_string<wchar_t,std::char_traits<wchar_t>,std::allocator<wchar_t> >::compare
PUBLIC	??9?$_Deque_const_iterator@V?$_Deque_val@U?$_Deque_simple_types@VMatrix@geom@@@std@@@std@@@std@@QEBA_NAEBV01@@Z ; std::_Deque_const_iterator<std::_Deque_val<std::_Deque_simple_types<geom::Matrix> > >::operator!=
PUBLIC	??8?$_Deque_const_iterator@V?$_Deque_val@U?$_Deque_simple_types@VMatrix@geom@@@std@@@std@@@std@@QEBA_NAEBV01@@Z ; std::_Deque_const_iterator<std::_Deque_val<std::_Deque_simple_types<geom::Matrix> > >::operator==
PUBLIC	??G?$_Deque_const_iterator@V?$_Deque_val@U?$_Deque_simple_types@VMatrix@geom@@@std@@@std@@@std@@QEBA_JAEBV01@@Z ; std::_Deque_const_iterator<std::_Deque_val<std::_Deque_simple_types<geom::Matrix> > >::operator-
PUBLIC	??E?$_Deque_const_iterator@V?$_Deque_val@U?$_Deque_simple_types@VMatrix@geom@@@std@@@std@@@std@@QEAAAEAV01@XZ ; std::_Deque_const_iterator<std::_Deque_val<std::_Deque_simple_types<geom::Matrix> > >::operator++
PUBLIC	??H?$_Deque_iterator@V?$_Deque_val@U?$_Deque_simple_types@VMatrix@geom@@@std@@@std@@@std@@QEBA?AV01@_J@Z ; std::_Deque_iterator<std::_Deque_val<std::_Deque_simple_types<geom::Matrix> > >::operator+
PUBLIC	??G?$_Vector_iterator@V?$_Vector_val@U?$_Simple_types@PEAVIcon@TiledTexture@gfxu@@@std@@@std@@@std@@QEBA_JAEBV?$_Vector_const_iterator@V?$_Vector_val@U?$_Simple_types@PEAVIcon@TiledTexture@gfxu@@@std@@@std@@@1@@Z ; std::_Vector_iterator<std::_Vector_val<std::_Simple_types<gfxu::TiledTexture::Icon * __ptr64> > >::operator-
PUBLIC	?put@?$List@PEAVTask@Tasks@@$0BAA@@@QEAAXPEAVTask@Tasks@@@Z ; List<Tasks::Task * __ptr64,256>::put
PUBLIC	?pop_front@?$deque@VMatrix@geom@@V?$allocator@VMatrix@geom@@@std@@@std@@QEAAXXZ ; std::deque<geom::Matrix,std::allocator<geom::Matrix> >::pop_front
PUBLIC	?push_front@?$deque@VMatrix@geom@@V?$allocator@VMatrix@geom@@@std@@@std@@QEAAXAEBVMatrix@geom@@@Z ; std::deque<geom::Matrix,std::allocator<geom::Matrix> >::push_front
PUBLIC	?compare@?$basic_string@_WU?$char_traits@_W@std@@V?$allocator@_W@2@@std@@QEBAHAEBV12@@Z ; std::basic_string<wchar_t,std::char_traits<wchar_t>,std::allocator<wchar_t> >::compare
PUBLIC	??0Task@Tasks@@QEAA@AEBV01@@Z			; Tasks::Task::Task
PUBLIC	??0TaskVBOVAOSet@Tasks@@QEAA@AEBV01@@Z		; Tasks::TaskVBOVAOSet::TaskVBOVAOSet
PUBLIC	??$_Allocate@U?$_Tree_node@U?$pair@$$CBV?$basic_string@_WU?$char_traits@_W@std@@V?$allocator@_W@2@@std@@PEAVIcon@TiledTexture@gfxu@@@std@@PEAX@std@@@std@@YAPEAU?$_Tree_node@U?$pair@$$CBV?$basic_string@_WU?$char_traits@_W@std@@V?$allocator@_W@2@@std@@PEAVIcon@TiledTexture@gfxu@@@std@@PEAX@0@_KPEAU10@@Z ; std::_Allocate<std::_Tree_node<std::pair<std::basic_string<wchar_t,std::char_traits<wchar_t>,std::allocator<wchar_t> > const ,gfxu::TiledTexture::Icon * __ptr64>,void * __ptr64> >
PUBLIC	??$construct@PEAU?$_Tree_node@U?$pair@$$CBV?$basic_string@_WU?$char_traits@_W@std@@V?$allocator@_W@2@@std@@PEAVIcon@TiledTexture@gfxu@@@std@@PEAX@std@@AEAPEAU12@@?$_Wrap_alloc@V?$allocator@U?$_Tree_node@U?$pair@$$CBV?$basic_string@_WU?$char_traits@_W@std@@V?$allocator@_W@2@@std@@PEAVIcon@TiledTexture@gfxu@@@std@@PEAX@std@@@std@@@std@@QEAAXPEAPEAU?$_Tree_node@U?$pair@$$CBV?$basic_string@_WU?$char_traits@_W@std@@V?$allocator@_W@2@@std@@PEAVIcon@TiledTexture@gfxu@@@std@@PEAX@1@AEAPEAU21@@Z ; std::_Wrap_alloc<std::allocator<std::_Tree_node<std::pair<std::basic_string<wchar_t,std::char_traits<wchar_t>,std::allocator<wchar_t> > const ,gfxu::TiledTexture::Icon * __ptr64>,void * __ptr64> > >::construct<std::_Tree_node<std::pair<std::basic_string<wchar_t,std::char_traits<wchar_t>,std::allocator<wchar_t> > const ,gfxu::TiledTexture::Icon * __ptr64>,void * __ptr64> * __ptr64,std::_Tree_node<std::pair<std::basic_string<wchar_t,std::char_traits<wchar_t>,std::allocator<wchar_t> > const ,gfxu::TiledTexture::Icon * __ptr64>,void * __ptr64> * __ptr64 & __ptr64>
PUBLIC	??$_Allocate@PEAVIcon@TiledTexture@gfxu@@@std@@YAPEAPEAVIcon@TiledTexture@gfxu@@_KPEAPEAV123@@Z ; std::_Allocate<gfxu::TiledTexture::Icon * __ptr64>
PUBLIC	??$_Allocate@PEAVMatrix@geom@@@std@@YAPEAPEAVMatrix@geom@@_KPEAPEAV12@@Z ; std::_Allocate<geom::Matrix * __ptr64>
PUBLIC	??$_Allocate@VMatrix@geom@@@std@@YAPEAVMatrix@geom@@_KPEAV12@@Z ; std::_Allocate<geom::Matrix>
PUBLIC	??$_Allocate@VVertexUVRGBA@gfxu@@@std@@YAPEAVVertexUVRGBA@gfxu@@_KPEAV12@@Z ; std::_Allocate<gfxu::VertexUVRGBA>
PUBLIC	??$destroy@U?$pair@$$CBV?$basic_string@_WU?$char_traits@_W@std@@V?$allocator@_W@2@@std@@PEAVIcon@TiledTexture@gfxu@@@std@@@?$_Wrap_alloc@V?$allocator@U?$_Tree_node@U?$pair@$$CBV?$basic_string@_WU?$char_traits@_W@std@@V?$allocator@_W@2@@std@@PEAVIcon@TiledTexture@gfxu@@@std@@PEAX@std@@@std@@@std@@QEAAXPEAU?$pair@$$CBV?$basic_string@_WU?$char_traits@_W@std@@V?$allocator@_W@2@@std@@PEAVIcon@TiledTexture@gfxu@@@1@@Z ; std::_Wrap_alloc<std::allocator<std::_Tree_node<std::pair<std::basic_string<wchar_t,std::char_traits<wchar_t>,std::allocator<wchar_t> > const ,gfxu::TiledTexture::Icon * __ptr64>,void * __ptr64> > >::destroy<std::pair<std::basic_string<wchar_t,std::char_traits<wchar_t>,std::allocator<wchar_t> > const ,gfxu::TiledTexture::Icon * __ptr64> >
PUBLIC	??$_Umove@PEAPEAVIcon@TiledTexture@gfxu@@@?$vector@PEAVIcon@TiledTexture@gfxu@@V?$allocator@PEAVIcon@TiledTexture@gfxu@@@std@@@std@@IEAAPEAPEAVIcon@TiledTexture@gfxu@@PEAPEAV234@00@Z ; std::vector<gfxu::TiledTexture::Icon * __ptr64,std::allocator<gfxu::TiledTexture::Icon * __ptr64> >::_Umove<gfxu::TiledTexture::Icon * __ptr64 * __ptr64>
PUBLIC	??$_Destroy_range@U?$_Wrap_alloc@V?$allocator@PEAVIcon@TiledTexture@gfxu@@@std@@@std@@@std@@YAXPEAPEAVIcon@TiledTexture@gfxu@@0AEAU?$_Wrap_alloc@V?$allocator@PEAVIcon@TiledTexture@gfxu@@@std@@@0@@Z ; std::_Destroy_range<std::_Wrap_alloc<std::allocator<gfxu::TiledTexture::Icon * __ptr64> > >
PUBLIC	??$_Destroy_range@U?$_Wrap_alloc@V?$allocator@PEAVMatrix@geom@@@std@@@std@@@std@@YAXPEAPEAVMatrix@geom@@0AEAU?$_Wrap_alloc@V?$allocator@PEAVMatrix@geom@@@std@@@0@@Z ; std::_Destroy_range<std::_Wrap_alloc<std::allocator<geom::Matrix * __ptr64> > >
PUBLIC	??$_Uninitialized_default_fill_n@PEAPEAVMatrix@geom@@_KU?$_Wrap_alloc@V?$allocator@PEAVMatrix@geom@@@std@@@std@@@std@@YAXPEAPEAVMatrix@geom@@_KAEAU?$_Wrap_alloc@V?$allocator@PEAVMatrix@geom@@@std@@@0@@Z ; std::_Uninitialized_default_fill_n<geom::Matrix * __ptr64 * __ptr64,unsigned __int64,std::_Wrap_alloc<std::allocator<geom::Matrix * __ptr64> > >
PUBLIC	??$_Uninitialized_copy@PEAPEAVMatrix@geom@@PEAPEAV12@U?$_Wrap_alloc@V?$allocator@PEAVMatrix@geom@@@std@@@std@@@std@@YAPEAPEAVMatrix@geom@@PEAPEAV12@00AEAU?$_Wrap_alloc@V?$allocator@PEAVMatrix@geom@@@std@@@0@@Z ; std::_Uninitialized_copy<geom::Matrix * __ptr64 * __ptr64,geom::Matrix * __ptr64 * __ptr64,std::_Wrap_alloc<std::allocator<geom::Matrix * __ptr64> > >
PUBLIC	??$destroy@PEAU?$_Tree_node@U?$pair@$$CBV?$basic_string@_WU?$char_traits@_W@std@@V?$allocator@_W@2@@std@@PEAVIcon@TiledTexture@gfxu@@@std@@PEAX@std@@@?$_Wrap_alloc@V?$allocator@U?$_Tree_node@U?$pair@$$CBV?$basic_string@_WU?$char_traits@_W@std@@V?$allocator@_W@2@@std@@PEAVIcon@TiledTexture@gfxu@@@std@@PEAX@std@@@std@@@std@@QEAAXPEAPEAU?$_Tree_node@U?$pair@$$CBV?$basic_string@_WU?$char_traits@_W@std@@V?$allocator@_W@2@@std@@PEAVIcon@TiledTexture@gfxu@@@std@@PEAX@1@@Z ; std::_Wrap_alloc<std::allocator<std::_Tree_node<std::pair<std::basic_string<wchar_t,std::char_traits<wchar_t>,std::allocator<wchar_t> > const ,gfxu::TiledTexture::Icon * __ptr64>,void * __ptr64> > >::destroy<std::_Tree_node<std::pair<std::basic_string<wchar_t,std::char_traits<wchar_t>,std::allocator<wchar_t> > const ,gfxu::TiledTexture::Icon * __ptr64>,void * __ptr64> * __ptr64>
PUBLIC	??$addressof@PEAU?$_Tree_node@U?$pair@$$CBV?$basic_string@_WU?$char_traits@_W@std@@V?$allocator@_W@2@@std@@PEAVIcon@TiledTexture@gfxu@@@std@@PEAX@std@@@std@@YAPEAPEAU?$_Tree_node@U?$pair@$$CBV?$basic_string@_WU?$char_traits@_W@std@@V?$allocator@_W@2@@std@@PEAVIcon@TiledTexture@gfxu@@@std@@PEAX@0@AEAPEAU10@@Z ; std::addressof<std::_Tree_node<std::pair<std::basic_string<wchar_t,std::char_traits<wchar_t>,std::allocator<wchar_t> > const ,gfxu::TiledTexture::Icon * __ptr64>,void * __ptr64> * __ptr64>
PUBLIC	??$_Kfn@$$CBV?$basic_string@_WU?$char_traits@_W@std@@V?$allocator@_W@2@@std@@PEAVIcon@TiledTexture@gfxu@@@?$_Tmap_traits@V?$basic_string@_WU?$char_traits@_W@std@@V?$allocator@_W@2@@std@@PEAVIcon@TiledTexture@gfxu@@U?$less@V?$basic_string@_WU?$char_traits@_W@std@@V?$allocator@_W@2@@std@@@2@V?$allocator@U?$pair@$$CBV?$basic_string@_WU?$char_traits@_W@std@@V?$allocator@_W@2@@std@@PEAVIcon@TiledTexture@gfxu@@@std@@@2@$0A@@std@@SAAEBV?$basic_string@_WU?$char_traits@_W@std@@V?$allocator@_W@2@@1@AEBU?$pair@$$CBV?$basic_string@_WU?$char_traits@_W@std@@V?$allocator@_W@2@@std@@PEAVIcon@TiledTexture@gfxu@@@1@@Z ; std::_Tmap_traits<std::basic_string<wchar_t,std::char_traits<wchar_t>,std::allocator<wchar_t> >,gfxu::TiledTexture::Icon * __ptr64,std::less<std::basic_string<wchar_t,std::char_traits<wchar_t>,std::allocator<wchar_t> > >,std::allocator<std::pair<std::basic_string<wchar_t,std::char_traits<wchar_t>,std::allocator<wchar_t> > const ,gfxu::TiledTexture::Icon * __ptr64> >,0>::_Kfn<std::basic_string<wchar_t,std::char_traits<wchar_t>,std::allocator<wchar_t> > const ,gfxu::TiledTexture::Icon * __ptr64>
PUBLIC	??$addressof@U?$pair@$$CBV?$basic_string@_WU?$char_traits@_W@std@@V?$allocator@_W@2@@std@@PEAVIcon@TiledTexture@gfxu@@@std@@@std@@YAPEAU?$pair@$$CBV?$basic_string@_WU?$char_traits@_W@std@@V?$allocator@_W@2@@std@@PEAVIcon@TiledTexture@gfxu@@@0@AEAU10@@Z ; std::addressof<std::pair<std::basic_string<wchar_t,std::char_traits<wchar_t>,std::allocator<wchar_t> > const ,gfxu::TiledTexture::Icon * __ptr64> >
PUBLIC	??$destroy@PEAVMatrix@geom@@@?$_Wrap_alloc@V?$allocator@VMatrix@geom@@@std@@@std@@QEAAXPEAPEAVMatrix@geom@@@Z ; std::_Wrap_alloc<std::allocator<geom::Matrix> >::destroy<geom::Matrix * __ptr64>
PUBLIC	??$?0U?$_Wrap_alloc@V?$allocator@VMatrix@geom@@@std@@@std@@@?$_Wrap_alloc@V?$allocator@PEAVMatrix@geom@@@std@@@std@@QEAA@AEBU?$_Wrap_alloc@V?$allocator@VMatrix@geom@@@std@@@1@@Z ; std::_Wrap_alloc<std::allocator<geom::Matrix * __ptr64> >::_Wrap_alloc<std::allocator<geom::Matrix * __ptr64> ><std::_Wrap_alloc<std::allocator<geom::Matrix> > >
PUBLIC	??$destroy@VMatrix@geom@@@?$_Wrap_alloc@V?$allocator@VMatrix@geom@@@std@@@std@@QEAAXPEAVMatrix@geom@@@Z ; std::_Wrap_alloc<std::allocator<geom::Matrix> >::destroy<geom::Matrix>
PUBLIC	??$construct@VMatrix@geom@@AEBV12@@?$_Wrap_alloc@V?$allocator@VMatrix@geom@@@std@@@std@@QEAAXPEAVMatrix@geom@@AEBV23@@Z ; std::_Wrap_alloc<std::allocator<geom::Matrix> >::construct<geom::Matrix,geom::Matrix const & __ptr64>
PUBLIC	??$construct@VMatrix@geom@@V12@@?$_Wrap_alloc@V?$allocator@VMatrix@geom@@@std@@@std@@QEAAXPEAVMatrix@geom@@$$QEAV23@@Z ; std::_Wrap_alloc<std::allocator<geom::Matrix> >::construct<geom::Matrix,geom::Matrix>
PUBLIC	??$forward@VMatrix@geom@@@std@@YA$$QEAVMatrix@geom@@AEAV12@@Z ; std::forward<geom::Matrix>
PUBLIC	??$insert@V?$_Deque_const_iterator@V?$_Deque_val@U?$_Deque_simple_types@VMatrix@geom@@@std@@@std@@@std@@@?$deque@VMatrix@geom@@V?$allocator@VMatrix@geom@@@std@@@std@@QEAA?AV?$_Deque_iterator@V?$_Deque_val@U?$_Deque_simple_types@VMatrix@geom@@@std@@@std@@@1@V?$_Deque_const_iterator@V?$_Deque_val@U?$_Deque_simple_types@VMatrix@geom@@@std@@@std@@@1@00@Z ; std::deque<geom::Matrix,std::allocator<geom::Matrix> >::insert<std::_Deque_const_iterator<std::_Deque_val<std::_Deque_simple_types<geom::Matrix> > > >
PUBLIC	??$_Umove@PEAVVertexUVRGBA@gfxu@@@?$vector@VVertexUVRGBA@gfxu@@V?$allocator@VVertexUVRGBA@gfxu@@@std@@@std@@IEAAPEAVVertexUVRGBA@gfxu@@PEAV23@00@Z ; std::vector<gfxu::VertexUVRGBA,std::allocator<gfxu::VertexUVRGBA> >::_Umove<gfxu::VertexUVRGBA * __ptr64>
PUBLIC	??$_Destroy_range@U?$_Wrap_alloc@V?$allocator@VVertexUVRGBA@gfxu@@@std@@@std@@@std@@YAXPEAVVertexUVRGBA@gfxu@@0AEAU?$_Wrap_alloc@V?$allocator@VVertexUVRGBA@gfxu@@@std@@@0@@Z ; std::_Destroy_range<std::_Wrap_alloc<std::allocator<gfxu::VertexUVRGBA> > >
PUBLIC	??$?M_WU?$char_traits@_W@std@@V?$allocator@_W@1@@std@@YA_NAEBV?$basic_string@_WU?$char_traits@_W@std@@V?$allocator@_W@2@@0@0@Z ; std::operator<<wchar_t,std::char_traits<wchar_t>,std::allocator<wchar_t> >
PUBLIC	??$construct@PEAVIcon@TiledTexture@gfxu@@AEBQEAV123@@?$_Wrap_alloc@V?$allocator@PEAVIcon@TiledTexture@gfxu@@@std@@@std@@QEAAXPEAPEAVIcon@TiledTexture@gfxu@@AEBQEAV234@@Z ; std::_Wrap_alloc<std::allocator<gfxu::TiledTexture::Icon * __ptr64> >::construct<gfxu::TiledTexture::Icon * __ptr64,gfxu::TiledTexture::Icon * __ptr64 const & __ptr64>
PUBLIC	??$construct@PEAVIcon@TiledTexture@gfxu@@AEAPEAV123@@?$_Wrap_alloc@V?$allocator@PEAVIcon@TiledTexture@gfxu@@@std@@@std@@QEAAXPEAPEAVIcon@TiledTexture@gfxu@@AEAPEAV234@@Z ; std::_Wrap_alloc<std::allocator<gfxu::TiledTexture::Icon * __ptr64> >::construct<gfxu::TiledTexture::Icon * __ptr64,gfxu::TiledTexture::Icon * __ptr64 & __ptr64>
PUBLIC	??$addressof@QEAVIcon@TiledTexture@gfxu@@@std@@YAPEBQEAVIcon@TiledTexture@gfxu@@AEBQEAV123@@Z ; std::addressof<gfxu::TiledTexture::Icon * __ptr64 const>
PUBLIC	??$move@AEAVMatrix@geom@@@std@@YA$$QEAVMatrix@geom@@AEAV12@@Z ; std::move<geom::Matrix & __ptr64>
PUBLIC	??$construct@VVertexUVRGBA@gfxu@@AEBV12@@?$_Wrap_alloc@V?$allocator@VVertexUVRGBA@gfxu@@@std@@@std@@QEAAXPEAVVertexUVRGBA@gfxu@@AEBV23@@Z ; std::_Wrap_alloc<std::allocator<gfxu::VertexUVRGBA> >::construct<gfxu::VertexUVRGBA,gfxu::VertexUVRGBA const & __ptr64>
PUBLIC	??$construct@VVertexUVRGBA@gfxu@@AEAV12@@?$_Wrap_alloc@V?$allocator@VVertexUVRGBA@gfxu@@@std@@@std@@QEAAXPEAVVertexUVRGBA@gfxu@@AEAV23@@Z ; std::_Wrap_alloc<std::allocator<gfxu::VertexUVRGBA> >::construct<gfxu::VertexUVRGBA,gfxu::VertexUVRGBA & __ptr64>
PUBLIC	??$addressof@$$CBVVertexUVRGBA@gfxu@@@std@@YAPEBVVertexUVRGBA@gfxu@@AEBV12@@Z ; std::addressof<gfxu::VertexUVRGBA const >
PUBLIC	??$insert@U?$pair@V?$basic_string@_WU?$char_traits@_W@std@@V?$allocator@_W@2@@std@@PEAVIcon@TiledTexture@gfxu@@@std@@@?$_Tree@V?$_Tmap_traits@V?$basic_string@_WU?$char_traits@_W@std@@V?$allocator@_W@2@@std@@PEAVIcon@TiledTexture@gfxu@@U?$less@V?$basic_string@_WU?$char_traits@_W@std@@V?$allocator@_W@2@@std@@@2@V?$allocator@U?$pair@$$CBV?$basic_string@_WU?$char_traits@_W@std@@V?$allocator@_W@2@@std@@PEAVIcon@TiledTexture@gfxu@@@std@@@2@$0A@@std@@@std@@QEAA?AV?$_Tree_iterator@V?$_Tree_val@U?$_Tree_simple_types@U?$pair@$$CBV?$basic_string@_WU?$char_traits@_W@std@@V?$allocator@_W@2@@std@@PEAVIcon@TiledTexture@gfxu@@@std@@@std@@@std@@@1@V?$_Tree_const_iterator@V?$_Tree_val@U?$_Tree_simple_types@U?$pair@$$CBV?$basic_string@_WU?$char_traits@_W@std@@V?$allocator@_W@2@@std@@PEAVIcon@TiledTexture@gfxu@@@std@@@std@@@std@@@1@$$QEAU?$pair@V?$basic_string@_WU?$char_traits@_W@std@@V?$allocator@_W@2@@std@@PEAVIcon@TiledTexture@gfxu@@@1@@Z ; std::_Tree<std::_Tmap_traits<std::basic_string<wchar_t,std::char_traits<wchar_t>,std::allocator<wchar_t> >,gfxu::TiledTexture::Icon * __ptr64,std::less<std::basic_string<wchar_t,std::char_traits<wchar_t>,std::allocator<wchar_t> > >,std::allocator<std::pair<std::basic_string<wchar_t,std::char_traits<wchar_t>,std::allocator<wchar_t> > const ,gfxu::TiledTexture::Icon * __ptr64> >,0> >::insert<std::pair<std::basic_string<wchar_t,std::char_traits<wchar_t>,std::allocator<wchar_t> >,gfxu::TiledTexture::Icon * __ptr64> >
PUBLIC	??$?0AEBV?$basic_string@_WU?$char_traits@_W@std@@V?$allocator@_W@2@@std@@PEAVIcon@TiledTexture@gfxu@@@?$pair@V?$basic_string@_WU?$char_traits@_W@std@@V?$allocator@_W@2@@std@@PEAVIcon@TiledTexture@gfxu@@@std@@QEAA@AEBV?$basic_string@_WU?$char_traits@_W@std@@V?$allocator@_W@2@@1@$$QEAPEAVIcon@TiledTexture@gfxu@@PEAPEAX@Z ; std::pair<std::basic_string<wchar_t,std::char_traits<wchar_t>,std::allocator<wchar_t> >,gfxu::TiledTexture::Icon * __ptr64>::pair<std::basic_string<wchar_t,std::char_traits<wchar_t>,std::allocator<wchar_t> >,gfxu::TiledTexture::Icon * __ptr64><std::basic_string<wchar_t,std::char_traits<wchar_t>,std::allocator<wchar_t> > const & __ptr64,gfxu::TiledTexture::Icon * __ptr64>
PUBLIC	??$sort@V?$_Vector_iterator@V?$_Vector_val@U?$_Simple_types@PEAVIcon@TiledTexture@gfxu@@@std@@@std@@@std@@P6A_NPEBVIcon@TiledTexture@gfxu@@0@Z@std@@YAXV?$_Vector_iterator@V?$_Vector_val@U?$_Simple_types@PEAVIcon@TiledTexture@gfxu@@@std@@@std@@@0@0P6A_NPEBVIcon@TiledTexture@gfxu@@1@Z@Z ; std::sort<std::_Vector_iterator<std::_Vector_val<std::_Simple_types<gfxu::TiledTexture::Icon * __ptr64> > >,bool (__cdecl*)(gfxu::TiledTexture::Icon const * __ptr64,gfxu::TiledTexture::Icon const * __ptr64)>
PUBLIC	??$put@VTaskVBOVAOSet@Tasks@@@?$VirtualList@VTask@Tasks@@$0BAA@$0BAAC@@@QEAAPEAVTask@Tasks@@VTaskVBOVAOSet@2@@Z ; VirtualList<Tasks::Task,256,4098>::put<Tasks::TaskVBOVAOSet>
PUBLIC	?allocate@?$allocator@U?$_Tree_node@U?$pair@$$CBV?$basic_string@_WU?$char_traits@_W@std@@V?$allocator@_W@2@@std@@PEAVIcon@TiledTexture@gfxu@@@std@@PEAX@std@@@std@@QEAAPEAU?$_Tree_node@U?$pair@$$CBV?$basic_string@_WU?$char_traits@_W@std@@V?$allocator@_W@2@@std@@PEAVIcon@TiledTexture@gfxu@@@std@@PEAX@2@_K@Z ; std::allocator<std::_Tree_node<std::pair<std::basic_string<wchar_t,std::char_traits<wchar_t>,std::allocator<wchar_t> > const ,gfxu::TiledTexture::Icon * __ptr64>,void * __ptr64> >::allocate
PUBLIC	?max_size@?$allocator@VMatrix@geom@@@std@@QEBA_KXZ ; std::allocator<geom::Matrix>::max_size
PUBLIC	?allocate@?$_Wrap_alloc@V?$allocator@U?$_Tree_node@U?$pair@$$CBV?$basic_string@_WU?$char_traits@_W@std@@V?$allocator@_W@2@@std@@PEAVIcon@TiledTexture@gfxu@@@std@@PEAX@std@@@std@@@std@@QEAAPEAU?$_Tree_node@U?$pair@$$CBV?$basic_string@_WU?$char_traits@_W@std@@V?$allocator@_W@2@@std@@PEAVIcon@TiledTexture@gfxu@@@std@@PEAX@2@_K@Z ; std::_Wrap_alloc<std::allocator<std::_Tree_node<std::pair<std::basic_string<wchar_t,std::char_traits<wchar_t>,std::allocator<wchar_t> > const ,gfxu::TiledTexture::Icon * __ptr64>,void * __ptr64> > >::allocate
PUBLIC	?max_size@?$allocator@PEAVIcon@TiledTexture@gfxu@@@std@@QEBA_KXZ ; std::allocator<gfxu::TiledTexture::Icon * __ptr64>::max_size
PUBLIC	?max_size@?$allocator_traits@V?$allocator@VMatrix@geom@@@std@@@std@@SA_KAEBV?$allocator@VMatrix@geom@@@2@@Z ; std::allocator_traits<std::allocator<geom::Matrix> >::max_size
PUBLIC	??0?$_Tree_val@U?$_Tree_simple_types@U?$pair@$$CBV?$basic_string@_WU?$char_traits@_W@std@@V?$allocator@_W@2@@std@@PEAVIcon@TiledTexture@gfxu@@@std@@@std@@@std@@QEAA@XZ ; std::_Tree_val<std::_Tree_simple_types<std::pair<std::basic_string<wchar_t,std::char_traits<wchar_t>,std::allocator<wchar_t> > const ,gfxu::TiledTexture::Icon * __ptr64> > >::_Tree_val<std::_Tree_simple_types<std::pair<std::basic_string<wchar_t,std::char_traits<wchar_t>,std::allocator<wchar_t> > const ,gfxu::TiledTexture::Icon * __ptr64> > >
PUBLIC	??0?$allocator@U?$_Tree_node@U?$pair@$$CBV?$basic_string@_WU?$char_traits@_W@std@@V?$allocator@_W@2@@std@@PEAVIcon@TiledTexture@gfxu@@@std@@PEAX@std@@@std@@QEAA@XZ ; std::allocator<std::_Tree_node<std::pair<std::basic_string<wchar_t,std::char_traits<wchar_t>,std::allocator<wchar_t> > const ,gfxu::TiledTexture::Icon * __ptr64>,void * __ptr64> >::allocator<std::_Tree_node<std::pair<std::basic_string<wchar_t,std::char_traits<wchar_t>,std::allocator<wchar_t> > const ,gfxu::TiledTexture::Icon * __ptr64>,void * __ptr64> >
PUBLIC	?_Buyheadnode@?$_Tree_alloc@$0A@U?$_Tree_base_types@U?$pair@$$CBV?$basic_string@_WU?$char_traits@_W@std@@V?$allocator@_W@2@@std@@PEAVIcon@TiledTexture@gfxu@@@std@@V?$allocator@U?$pair@$$CBV?$basic_string@_WU?$char_traits@_W@std@@V?$allocator@_W@2@@std@@PEAVIcon@TiledTexture@gfxu@@@std@@@2@@std@@@std@@QEAAPEAU?$_Tree_node@U?$pair@$$CBV?$basic_string@_WU?$char_traits@_W@std@@V?$allocator@_W@2@@std@@PEAVIcon@TiledTexture@gfxu@@@std@@PEAX@2@XZ ; std::_Tree_alloc<0,std::_Tree_base_types<std::pair<std::basic_string<wchar_t,std::char_traits<wchar_t>,std::allocator<wchar_t> > const ,gfxu::TiledTexture::Icon * __ptr64>,std::allocator<std::pair<std::basic_string<wchar_t,std::char_traits<wchar_t>,std::allocator<wchar_t> > const ,gfxu::TiledTexture::Icon * __ptr64> > > >::_Buyheadnode
PUBLIC	?_Setcont@?$_Deque_const_iterator@V?$_Deque_val@U?$_Deque_simple_types@VMatrix@geom@@@std@@@std@@@std@@QEAAXPEBV?$_Deque_val@U?$_Deque_simple_types@VMatrix@geom@@@std@@@2@@Z ; std::_Deque_const_iterator<std::_Deque_val<std::_Deque_simple_types<geom::Matrix> > >::_Setcont
PUBLIC	??Y?$_Deque_iterator@V?$_Deque_val@U?$_Deque_simple_types@VMatrix@geom@@@std@@@std@@@std@@QEAAAEAV01@_J@Z ; std::_Deque_iterator<std::_Deque_val<std::_Deque_simple_types<geom::Matrix> > >::operator+=
PUBLIC	?max_size@?$allocator_traits@V?$allocator@PEAVIcon@TiledTexture@gfxu@@@std@@@std@@SA_KAEBV?$allocator@PEAVIcon@TiledTexture@gfxu@@@2@@Z ; std::allocator_traits<std::allocator<gfxu::TiledTexture::Icon * __ptr64> >::max_size
PUBLIC	?allocate@?$allocator@PEAVIcon@TiledTexture@gfxu@@@std@@QEAAPEAPEAVIcon@TiledTexture@gfxu@@_K@Z ; std::allocator<gfxu::TiledTexture::Icon * __ptr64>::allocate
PUBLIC	?allocate@?$allocator@PEAVMatrix@geom@@@std@@QEAAPEAPEAVMatrix@geom@@_K@Z ; std::allocator<geom::Matrix * __ptr64>::allocate
PUBLIC	?max_size@?$_Wrap_alloc@V?$allocator@VMatrix@geom@@@std@@@std@@QEBA_KXZ ; std::_Wrap_alloc<std::allocator<geom::Matrix> >::max_size
PUBLIC	??0?$allocator@VMatrix@geom@@@std@@QEAA@AEBV01@@Z ; std::allocator<geom::Matrix>::allocator<geom::Matrix>
PUBLIC	?select_on_container_copy_construction@?$allocator@VMatrix@geom@@@std@@QEBA?AV12@XZ ; std::allocator<geom::Matrix>::select_on_container_copy_construction
PUBLIC	?max_size@?$allocator@VVertexUVRGBA@gfxu@@@std@@QEBA_KXZ ; std::allocator<gfxu::VertexUVRGBA>::max_size
PUBLIC	?_Max@?$_Tree_val@U?$_Tree_simple_types@U?$pair@$$CBV?$basic_string@_WU?$char_traits@_W@std@@V?$allocator@_W@2@@std@@PEAVIcon@TiledTexture@gfxu@@@std@@@std@@@std@@SAPEAU?$_Tree_node@U?$pair@$$CBV?$basic_string@_WU?$char_traits@_W@std@@V?$allocator@_W@2@@std@@PEAVIcon@TiledTexture@gfxu@@@std@@PEAX@2@PEAU32@@Z ; std::_Tree_val<std::_Tree_simple_types<std::pair<std::basic_string<wchar_t,std::char_traits<wchar_t>,std::allocator<wchar_t> > const ,gfxu::TiledTexture::Icon * __ptr64> > >::_Max
PUBLIC	?_Color@?$_Tree_val@U?$_Tree_simple_types@U?$pair@$$CBV?$basic_string@_WU?$char_traits@_W@std@@V?$allocator@_W@2@@std@@PEAVIcon@TiledTexture@gfxu@@@std@@@std@@@std@@SAAEADPEAU?$_Tree_node@U?$pair@$$CBV?$basic_string@_WU?$char_traits@_W@std@@V?$allocator@_W@2@@std@@PEAVIcon@TiledTexture@gfxu@@@std@@PEAX@2@@Z ; std::_Tree_val<std::_Tree_simple_types<std::pair<std::basic_string<wchar_t,std::char_traits<wchar_t>,std::allocator<wchar_t> > const ,gfxu::TiledTexture::Icon * __ptr64> > >::_Color
PUBLIC	?deallocate@?$allocator@U?$_Tree_node@U?$pair@$$CBV?$basic_string@_WU?$char_traits@_W@std@@V?$allocator@_W@2@@std@@PEAVIcon@TiledTexture@gfxu@@@std@@PEAX@std@@@std@@QEAAXPEAU?$_Tree_node@U?$pair@$$CBV?$basic_string@_WU?$char_traits@_W@std@@V?$allocator@_W@2@@std@@PEAVIcon@TiledTexture@gfxu@@@std@@PEAX@2@_K@Z ; std::allocator<std::_Tree_node<std::pair<std::basic_string<wchar_t,std::char_traits<wchar_t>,std::allocator<wchar_t> > const ,gfxu::TiledTexture::Icon * __ptr64>,void * __ptr64> >::deallocate
PUBLIC	??0?$_Wrap_alloc@V?$allocator@U?$_Tree_node@U?$pair@$$CBV?$basic_string@_WU?$char_traits@_W@std@@V?$allocator@_W@2@@std@@PEAVIcon@TiledTexture@gfxu@@@std@@PEAX@std@@@std@@@std@@QEAA@XZ ; std::_Wrap_alloc<std::allocator<std::_Tree_node<std::pair<std::basic_string<wchar_t,std::char_traits<wchar_t>,std::allocator<wchar_t> > const ,gfxu::TiledTexture::Icon * __ptr64>,void * __ptr64> > >::_Wrap_alloc<std::allocator<std::_Tree_node<std::pair<std::basic_string<wchar_t,std::char_traits<wchar_t>,std::allocator<wchar_t> > const ,gfxu::TiledTexture::Icon * __ptr64>,void * __ptr64> > >
PUBLIC	??0?$_Tree_alloc@$0A@U?$_Tree_base_types@U?$pair@$$CBV?$basic_string@_WU?$char_traits@_W@std@@V?$allocator@_W@2@@std@@PEAVIcon@TiledTexture@gfxu@@@std@@V?$allocator@U?$pair@$$CBV?$basic_string@_WU?$char_traits@_W@std@@V?$allocator@_W@2@@std@@PEAVIcon@TiledTexture@gfxu@@@std@@@2@@std@@@std@@QEAA@AEBV?$allocator@U?$pair@$$CBV?$basic_string@_WU?$char_traits@_W@std@@V?$allocator@_W@2@@std@@PEAVIcon@TiledTexture@gfxu@@@std@@@1@@Z ; std::_Tree_alloc<0,std::_Tree_base_types<std::pair<std::basic_string<wchar_t,std::char_traits<wchar_t>,std::allocator<wchar_t> > const ,gfxu::TiledTexture::Icon * __ptr64>,std::allocator<std::pair<std::basic_string<wchar_t,std::char_traits<wchar_t>,std::allocator<wchar_t> > const ,gfxu::TiledTexture::Icon * __ptr64> > > >::_Tree_alloc<0,std::_Tree_base_types<std::pair<std::basic_string<wchar_t,std::char_traits<wchar_t>,std::allocator<wchar_t> > const ,gfxu::TiledTexture::Icon * __ptr64>,std::allocator<std::pair<std::basic_string<wchar_t,std::char_traits<wchar_t>,std::allocator<wchar_t> > const ,gfxu::TiledTexture::Icon * __ptr64> > > >
PUBLIC	?_Rrotate@?$_Tree@V?$_Tmap_traits@V?$basic_string@_WU?$char_traits@_W@std@@V?$allocator@_W@2@@std@@PEAVIcon@TiledTexture@gfxu@@U?$less@V?$basic_string@_WU?$char_traits@_W@std@@V?$allocator@_W@2@@std@@@2@V?$allocator@U?$pair@$$CBV?$basic_string@_WU?$char_traits@_W@std@@V?$allocator@_W@2@@std@@PEAVIcon@TiledTexture@gfxu@@@std@@@2@$0A@@std@@@std@@IEAAXPEAU?$_Tree_node@U?$pair@$$CBV?$basic_string@_WU?$char_traits@_W@std@@V?$allocator@_W@2@@std@@PEAVIcon@TiledTexture@gfxu@@@std@@PEAX@2@@Z ; std::_Tree<std::_Tmap_traits<std::basic_string<wchar_t,std::char_traits<wchar_t>,std::allocator<wchar_t> >,gfxu::TiledTexture::Icon * __ptr64,std::less<std::basic_string<wchar_t,std::char_traits<wchar_t>,std::allocator<wchar_t> > >,std::allocator<std::pair<std::basic_string<wchar_t,std::char_traits<wchar_t>,std::allocator<wchar_t> > const ,gfxu::TiledTexture::Icon * __ptr64> >,0> >::_Rrotate
PUBLIC	?_Rmost@?$_Tree@V?$_Tmap_traits@V?$basic_string@_WU?$char_traits@_W@std@@V?$allocator@_W@2@@std@@PEAVIcon@TiledTexture@gfxu@@U?$less@V?$basic_string@_WU?$char_traits@_W@std@@V?$allocator@_W@2@@std@@@2@V?$allocator@U?$pair@$$CBV?$basic_string@_WU?$char_traits@_W@std@@V?$allocator@_W@2@@std@@PEAVIcon@TiledTexture@gfxu@@@std@@@2@$0A@@std@@@std@@IEBAAEAPEAU?$_Tree_node@U?$pair@$$CBV?$basic_string@_WU?$char_traits@_W@std@@V?$allocator@_W@2@@std@@PEAVIcon@TiledTexture@gfxu@@@std@@PEAX@2@XZ ; std::_Tree<std::_Tmap_traits<std::basic_string<wchar_t,std::char_traits<wchar_t>,std::allocator<wchar_t> >,gfxu::TiledTexture::Icon * __ptr64,std::less<std::basic_string<wchar_t,std::char_traits<wchar_t>,std::allocator<wchar_t> > >,std::allocator<std::pair<std::basic_string<wchar_t,std::char_traits<wchar_t>,std::allocator<wchar_t> > const ,gfxu::TiledTexture::Icon * __ptr64> >,0> >::_Rmost
PUBLIC	?_Lrotate@?$_Tree@V?$_Tmap_traits@V?$basic_string@_WU?$char_traits@_W@std@@V?$allocator@_W@2@@std@@PEAVIcon@TiledTexture@gfxu@@U?$less@V?$basic_string@_WU?$char_traits@_W@std@@V?$allocator@_W@2@@std@@@2@V?$allocator@U?$pair@$$CBV?$basic_string@_WU?$char_traits@_W@std@@V?$allocator@_W@2@@std@@PEAVIcon@TiledTexture@gfxu@@@std@@@2@$0A@@std@@@std@@IEAAXPEAU?$_Tree_node@U?$pair@$$CBV?$basic_string@_WU?$char_traits@_W@std@@V?$allocator@_W@2@@std@@PEAVIcon@TiledTexture@gfxu@@@std@@PEAX@2@@Z ; std::_Tree<std::_Tmap_traits<std::basic_string<wchar_t,std::char_traits<wchar_t>,std::allocator<wchar_t> >,gfxu::TiledTexture::Icon * __ptr64,std::less<std::basic_string<wchar_t,std::char_traits<wchar_t>,std::allocator<wchar_t> > >,std::allocator<std::pair<std::basic_string<wchar_t,std::char_traits<wchar_t>,std::allocator<wchar_t> > const ,gfxu::TiledTexture::Icon * __ptr64> >,0> >::_Lrotate
PUBLIC	?_Erase@?$_Tree@V?$_Tmap_traits@V?$basic_string@_WU?$char_traits@_W@std@@V?$allocator@_W@2@@std@@PEAVIcon@TiledTexture@gfxu@@U?$less@V?$basic_string@_WU?$char_traits@_W@std@@V?$allocator@_W@2@@std@@@2@V?$allocator@U?$pair@$$CBV?$basic_string@_WU?$char_traits@_W@std@@V?$allocator@_W@2@@std@@PEAVIcon@TiledTexture@gfxu@@@std@@@2@$0A@@std@@@std@@IEAAXPEAU?$_Tree_node@U?$pair@$$CBV?$basic_string@_WU?$char_traits@_W@std@@V?$allocator@_W@2@@std@@PEAVIcon@TiledTexture@gfxu@@@std@@PEAX@2@@Z ; std::_Tree<std::_Tmap_traits<std::basic_string<wchar_t,std::char_traits<wchar_t>,std::allocator<wchar_t> >,gfxu::TiledTexture::Icon * __ptr64,std::less<std::basic_string<wchar_t,std::char_traits<wchar_t>,std::allocator<wchar_t> > >,std::allocator<std::pair<std::basic_string<wchar_t,std::char_traits<wchar_t>,std::allocator<wchar_t> > const ,gfxu::TiledTexture::Icon * __ptr64> >,0> >::_Erase
PUBLIC	??D?$_Deque_const_iterator@V?$_Deque_val@U?$_Deque_simple_types@VMatrix@geom@@@std@@@std@@@std@@QEBAAEBVMatrix@geom@@XZ ; std::_Deque_const_iterator<std::_Deque_val<std::_Deque_simple_types<geom::Matrix> > >::operator*
PUBLIC	??0?$_Deque_const_iterator@V?$_Deque_val@U?$_Deque_simple_types@VMatrix@geom@@@std@@@std@@@std@@QEAA@_KPEBU_Container_base12@1@@Z ; std::_Deque_const_iterator<std::_Deque_val<std::_Deque_simple_types<geom::Matrix> > >::_Deque_const_iterator<std::_Deque_val<std::_Deque_simple_types<geom::Matrix> > >
PUBLIC	??Z?$_Deque_iterator@V?$_Deque_val@U?$_Deque_simple_types@VMatrix@geom@@@std@@@std@@@std@@QEAAAEAV01@_J@Z ; std::_Deque_iterator<std::_Deque_val<std::_Deque_simple_types<geom::Matrix> > >::operator-=
PUBLIC	??0?$_Deque_iterator@V?$_Deque_val@U?$_Deque_simple_types@VMatrix@geom@@@std@@@std@@@std@@QEAA@_KPEBU_Container_base12@1@@Z ; std::_Deque_iterator<std::_Deque_val<std::_Deque_simple_types<geom::Matrix> > >::_Deque_iterator<std::_Deque_val<std::_Deque_simple_types<geom::Matrix> > >
PUBLIC	?max_size@?$_Wrap_alloc@V?$allocator@PEAVIcon@TiledTexture@gfxu@@@std@@@std@@QEBA_KXZ ; std::_Wrap_alloc<std::allocator<gfxu::TiledTexture::Icon * __ptr64> >::max_size
PUBLIC	?allocate@?$_Wrap_alloc@V?$allocator@PEAVIcon@TiledTexture@gfxu@@@std@@@std@@QEAAPEAPEAVIcon@TiledTexture@gfxu@@_K@Z ; std::_Wrap_alloc<std::allocator<gfxu::TiledTexture::Icon * __ptr64> >::allocate
PUBLIC	?deallocate@?$allocator@PEAVIcon@TiledTexture@gfxu@@@std@@QEAAXPEAPEAVIcon@TiledTexture@gfxu@@_K@Z ; std::allocator<gfxu::TiledTexture::Icon * __ptr64>::deallocate
PUBLIC	?capacity@?$vector@PEAVIcon@TiledTexture@gfxu@@V?$allocator@PEAVIcon@TiledTexture@gfxu@@@std@@@std@@QEBA_KXZ ; std::vector<gfxu::TiledTexture::Icon * __ptr64,std::allocator<gfxu::TiledTexture::Icon * __ptr64> >::capacity
PUBLIC	??0?$_Tree_unchecked_const_iterator@V?$_Tree_val@U?$_Tree_simple_types@U?$pair@$$CBV?$basic_string@_WU?$char_traits@_W@std@@V?$allocator@_W@2@@std@@PEAVIcon@TiledTexture@gfxu@@@std@@@std@@@std@@U_Iterator_base0@2@@std@@QEAA@PEAU?$_Tree_node@U?$pair@$$CBV?$basic_string@_WU?$char_traits@_W@std@@V?$allocator@_W@2@@std@@PEAVIcon@TiledTexture@gfxu@@@std@@PEAX@1@PEBV?$_Tree_val@U?$_Tree_simple_types@U?$pair@$$CBV?$basic_string@_WU?$char_traits@_W@std@@V?$allocator@_W@2@@std@@PEAVIcon@TiledTexture@gfxu@@@std@@@std@@@1@@Z ; std::_Tree_unchecked_const_iterator<std::_Tree_val<std::_Tree_simple_types<std::pair<std::basic_string<wchar_t,std::char_traits<wchar_t>,std::allocator<wchar_t> > const ,gfxu::TiledTexture::Icon * __ptr64> > >,std::_Iterator_base0>::_Tree_unchecked_const_iterator<std::_Tree_val<std::_Tree_simple_types<std::pair<std::basic_string<wchar_t,std::char_traits<wchar_t>,std::allocator<wchar_t> > const ,gfxu::TiledTexture::Icon * __ptr64> > >,std::_Iterator_base0>
PUBLIC	??E?$_Tree_const_iterator@V?$_Tree_val@U?$_Tree_simple_types@U?$pair@$$CBV?$basic_string@_WU?$char_traits@_W@std@@V?$allocator@_W@2@@std@@PEAVIcon@TiledTexture@gfxu@@@std@@@std@@@std@@@std@@QEAA?AV01@H@Z ; std::_Tree_const_iterator<std::_Tree_val<std::_Tree_simple_types<std::pair<std::basic_string<wchar_t,std::char_traits<wchar_t>,std::allocator<wchar_t> > const ,gfxu::TiledTexture::Icon * __ptr64> > > >::operator++
PUBLIC	??0?$_Deque_val@U?$_Deque_simple_types@VMatrix@geom@@@std@@@std@@QEAA@XZ ; std::_Deque_val<std::_Deque_simple_types<geom::Matrix> >::_Deque_val<std::_Deque_simple_types<geom::Matrix> >
PUBLIC	?deallocate@?$allocator@PEAVMatrix@geom@@@std@@QEAAXPEAPEAVMatrix@geom@@_K@Z ; std::allocator<geom::Matrix * __ptr64>::deallocate
PUBLIC	?allocate@?$_Wrap_alloc@V?$allocator@PEAVMatrix@geom@@@std@@@std@@QEAAPEAPEAVMatrix@geom@@_K@Z ; std::_Wrap_alloc<std::allocator<geom::Matrix * __ptr64> >::allocate
PUBLIC	?select_on_container_copy_construction@?$allocator_traits@V?$allocator@VMatrix@geom@@@std@@@std@@SA?AV?$allocator@VMatrix@geom@@@2@AEBV32@@Z ; std::allocator_traits<std::allocator<geom::Matrix> >::select_on_container_copy_construction
PUBLIC	??0?$_Wrap_alloc@V?$allocator@VMatrix@geom@@@std@@@std@@QEAA@AEBV?$allocator@VMatrix@geom@@@1@@Z ; std::_Wrap_alloc<std::allocator<geom::Matrix> >::_Wrap_alloc<std::allocator<geom::Matrix> >
PUBLIC	??0?$_Wrap_alloc@V?$allocator@VMatrix@geom@@@std@@@std@@QEAA@XZ ; std::_Wrap_alloc<std::allocator<geom::Matrix> >::_Wrap_alloc<std::allocator<geom::Matrix> >
PUBLIC	?_Alloc_proxy@?$_Deque_alloc@$0A@U?$_Deque_base_types@VMatrix@geom@@V?$allocator@VMatrix@geom@@@std@@@std@@@std@@QEAAXXZ ; std::_Deque_alloc<0,std::_Deque_base_types<geom::Matrix,std::allocator<geom::Matrix> > >::_Alloc_proxy
PUBLIC	?allocate@?$allocator@VMatrix@geom@@@std@@QEAAPEAVMatrix@geom@@_K@Z ; std::allocator<geom::Matrix>::allocate
PUBLIC	?deallocate@?$allocator@VMatrix@geom@@@std@@QEAAXPEAVMatrix@geom@@_K@Z ; std::allocator<geom::Matrix>::deallocate
PUBLIC	?_Xlen@?$deque@VMatrix@geom@@V?$allocator@VMatrix@geom@@@std@@@std@@IEBAXXZ ; std::deque<geom::Matrix,std::allocator<geom::Matrix> >::_Xlen
PUBLIC	?max_size@?$deque@VMatrix@geom@@V?$allocator@VMatrix@geom@@@std@@@std@@QEBA_KXZ ; std::deque<geom::Matrix,std::allocator<geom::Matrix> >::max_size
PUBLIC	?max_size@?$allocator_traits@V?$allocator@VVertexUVRGBA@gfxu@@@std@@@std@@SA_KAEBV?$allocator@VVertexUVRGBA@gfxu@@@2@@Z ; std::allocator_traits<std::allocator<gfxu::VertexUVRGBA> >::max_size
PUBLIC	?allocate@?$allocator@VVertexUVRGBA@gfxu@@@std@@QEAAPEAVVertexUVRGBA@gfxu@@_K@Z ; std::allocator<gfxu::VertexUVRGBA>::allocate
PUBLIC	?deallocate@?$allocator@VVertexUVRGBA@gfxu@@@std@@QEAAXPEAVVertexUVRGBA@gfxu@@_K@Z ; std::allocator<gfxu::VertexUVRGBA>::deallocate
PUBLIC	?_Min@?$_Tree_val@U?$_Tree_simple_types@U?$pair@$$CBV?$basic_string@_WU?$char_traits@_W@std@@V?$allocator@_W@2@@std@@PEAVIcon@TiledTexture@gfxu@@@std@@@std@@@std@@SAPEAU?$_Tree_node@U?$pair@$$CBV?$basic_string@_WU?$char_traits@_W@std@@V?$allocator@_W@2@@std@@PEAVIcon@TiledTexture@gfxu@@@std@@PEAX@2@PEAU32@@Z ; std::_Tree_val<std::_Tree_simple_types<std::pair<std::basic_string<wchar_t,std::char_traits<wchar_t>,std::allocator<wchar_t> > const ,gfxu::TiledTexture::Icon * __ptr64> > >::_Min
PUBLIC	?_Right@?$_Tree_val@U?$_Tree_simple_types@U?$pair@$$CBV?$basic_string@_WU?$char_traits@_W@std@@V?$allocator@_W@2@@std@@PEAVIcon@TiledTexture@gfxu@@@std@@@std@@@std@@SAAEAPEAU?$_Tree_node@U?$pair@$$CBV?$basic_string@_WU?$char_traits@_W@std@@V?$allocator@_W@2@@std@@PEAVIcon@TiledTexture@gfxu@@@std@@PEAX@2@PEAU32@@Z ; std::_Tree_val<std::_Tree_simple_types<std::pair<std::basic_string<wchar_t,std::char_traits<wchar_t>,std::allocator<wchar_t> > const ,gfxu::TiledTexture::Icon * __ptr64> > >::_Right
PUBLIC	?_Parent@?$_Tree_val@U?$_Tree_simple_types@U?$pair@$$CBV?$basic_string@_WU?$char_traits@_W@std@@V?$allocator@_W@2@@std@@PEAVIcon@TiledTexture@gfxu@@@std@@@std@@@std@@SAAEAPEAU?$_Tree_node@U?$pair@$$CBV?$basic_string@_WU?$char_traits@_W@std@@V?$allocator@_W@2@@std@@PEAVIcon@TiledTexture@gfxu@@@std@@PEAX@2@PEAU32@@Z ; std::_Tree_val<std::_Tree_simple_types<std::pair<std::basic_string<wchar_t,std::char_traits<wchar_t>,std::allocator<wchar_t> > const ,gfxu::TiledTexture::Icon * __ptr64> > >::_Parent
PUBLIC	?_Isnil@?$_Tree_val@U?$_Tree_simple_types@U?$pair@$$CBV?$basic_string@_WU?$char_traits@_W@std@@V?$allocator@_W@2@@std@@PEAVIcon@TiledTexture@gfxu@@@std@@@std@@@std@@SAAEADPEAU?$_Tree_node@U?$pair@$$CBV?$basic_string@_WU?$char_traits@_W@std@@V?$allocator@_W@2@@std@@PEAVIcon@TiledTexture@gfxu@@@std@@PEAX@2@@Z ; std::_Tree_val<std::_Tree_simple_types<std::pair<std::basic_string<wchar_t,std::char_traits<wchar_t>,std::allocator<wchar_t> > const ,gfxu::TiledTexture::Icon * __ptr64> > >::_Isnil
PUBLIC	?deallocate@?$_Wrap_alloc@V?$allocator@U?$_Tree_node@U?$pair@$$CBV?$basic_string@_WU?$char_traits@_W@std@@V?$allocator@_W@2@@std@@PEAVIcon@TiledTexture@gfxu@@@std@@PEAX@std@@@std@@@std@@QEAAXPEAU?$_Tree_node@U?$pair@$$CBV?$basic_string@_WU?$char_traits@_W@std@@V?$allocator@_W@2@@std@@PEAVIcon@TiledTexture@gfxu@@@std@@PEAX@2@_K@Z ; std::_Wrap_alloc<std::allocator<std::_Tree_node<std::pair<std::basic_string<wchar_t,std::char_traits<wchar_t>,std::allocator<wchar_t> > const ,gfxu::TiledTexture::Icon * __ptr64>,void * __ptr64> > >::deallocate
PUBLIC	?_Getal@?$_Tree_alloc@$0A@U?$_Tree_base_types@U?$pair@$$CBV?$basic_string@_WU?$char_traits@_W@std@@V?$allocator@_W@2@@std@@PEAVIcon@TiledTexture@gfxu@@@std@@V?$allocator@U?$pair@$$CBV?$basic_string@_WU?$char_traits@_W@std@@V?$allocator@_W@2@@std@@PEAVIcon@TiledTexture@gfxu@@@std@@@2@@std@@@std@@QEBA?AU?$_Wrap_alloc@V?$allocator@U?$_Tree_node@U?$pair@$$CBV?$basic_string@_WU?$char_traits@_W@std@@V?$allocator@_W@2@@std@@PEAVIcon@TiledTexture@gfxu@@@std@@PEAX@std@@@std@@@2@XZ ; std::_Tree_alloc<0,std::_Tree_base_types<std::pair<std::basic_string<wchar_t,std::char_traits<wchar_t>,std::allocator<wchar_t> > const ,gfxu::TiledTexture::Icon * __ptr64>,std::allocator<std::pair<std::basic_string<wchar_t,std::char_traits<wchar_t>,std::allocator<wchar_t> > const ,gfxu::TiledTexture::Icon * __ptr64> > > >::_Getal
PUBLIC	??0?$_Tree_buy@U?$pair@$$CBV?$basic_string@_WU?$char_traits@_W@std@@V?$allocator@_W@2@@std@@PEAVIcon@TiledTexture@gfxu@@@std@@V?$allocator@U?$pair@$$CBV?$basic_string@_WU?$char_traits@_W@std@@V?$allocator@_W@2@@std@@PEAVIcon@TiledTexture@gfxu@@@std@@@2@@std@@QEAA@AEBV?$allocator@U?$pair@$$CBV?$basic_string@_WU?$char_traits@_W@std@@V?$allocator@_W@2@@std@@PEAVIcon@TiledTexture@gfxu@@@std@@@1@@Z ; std::_Tree_buy<std::pair<std::basic_string<wchar_t,std::char_traits<wchar_t>,std::allocator<wchar_t> > const ,gfxu::TiledTexture::Icon * __ptr64>,std::allocator<std::pair<std::basic_string<wchar_t,std::char_traits<wchar_t>,std::allocator<wchar_t> > const ,gfxu::TiledTexture::Icon * __ptr64> > >::_Tree_buy<std::pair<std::basic_string<wchar_t,std::char_traits<wchar_t>,std::allocator<wchar_t> > const ,gfxu::TiledTexture::Icon * __ptr64>,std::allocator<std::pair<std::basic_string<wchar_t,std::char_traits<wchar_t>,std::allocator<wchar_t> > const ,gfxu::TiledTexture::Icon * __ptr64> > >
PUBLIC	?_Root@?$_Tree@V?$_Tmap_traits@V?$basic_string@_WU?$char_traits@_W@std@@V?$allocator@_W@2@@std@@PEAVIcon@TiledTexture@gfxu@@U?$less@V?$basic_string@_WU?$char_traits@_W@std@@V?$allocator@_W@2@@std@@@2@V?$allocator@U?$pair@$$CBV?$basic_string@_WU?$char_traits@_W@std@@V?$allocator@_W@2@@std@@PEAVIcon@TiledTexture@gfxu@@@std@@@2@$0A@@std@@@std@@IEBAAEAPEAU?$_Tree_node@U?$pair@$$CBV?$basic_string@_WU?$char_traits@_W@std@@V?$allocator@_W@2@@std@@PEAVIcon@TiledTexture@gfxu@@@std@@PEAX@2@XZ ; std::_Tree<std::_Tmap_traits<std::basic_string<wchar_t,std::char_traits<wchar_t>,std::allocator<wchar_t> >,gfxu::TiledTexture::Icon * __ptr64,std::less<std::basic_string<wchar_t,std::char_traits<wchar_t>,std::allocator<wchar_t> > >,std::allocator<std::pair<std::basic_string<wchar_t,std::char_traits<wchar_t>,std::allocator<wchar_t> > const ,gfxu::TiledTexture::Icon * __ptr64> >,0> >::_Root
PUBLIC	?clear@?$_Tree@V?$_Tmap_traits@V?$basic_string@_WU?$char_traits@_W@std@@V?$allocator@_W@2@@std@@PEAVIcon@TiledTexture@gfxu@@U?$less@V?$basic_string@_WU?$char_traits@_W@std@@V?$allocator@_W@2@@std@@@2@V?$allocator@U?$pair@$$CBV?$basic_string@_WU?$char_traits@_W@std@@V?$allocator@_W@2@@std@@PEAVIcon@TiledTexture@gfxu@@@std@@@2@$0A@@std@@@std@@QEAAXXZ ; std::_Tree<std::_Tmap_traits<std::basic_string<wchar_t,std::char_traits<wchar_t>,std::allocator<wchar_t> >,gfxu::TiledTexture::Icon * __ptr64,std::less<std::basic_string<wchar_t,std::char_traits<wchar_t>,std::allocator<wchar_t> > >,std::allocator<std::pair<std::basic_string<wchar_t,std::char_traits<wchar_t>,std::allocator<wchar_t> > const ,gfxu::TiledTexture::Icon * __ptr64> >,0> >::clear
PUBLIC	?erase@?$_Tree@V?$_Tmap_traits@V?$basic_string@_WU?$char_traits@_W@std@@V?$allocator@_W@2@@std@@PEAVIcon@TiledTexture@gfxu@@U?$less@V?$basic_string@_WU?$char_traits@_W@std@@V?$allocator@_W@2@@std@@@2@V?$allocator@U?$pair@$$CBV?$basic_string@_WU?$char_traits@_W@std@@V?$allocator@_W@2@@std@@PEAVIcon@TiledTexture@gfxu@@@std@@@2@$0A@@std@@@std@@QEAA?AV?$_Tree_iterator@V?$_Tree_val@U?$_Tree_simple_types@U?$pair@$$CBV?$basic_string@_WU?$char_traits@_W@std@@V?$allocator@_W@2@@std@@PEAVIcon@TiledTexture@gfxu@@@std@@@std@@@std@@@2@V?$_Tree_const_iterator@V?$_Tree_val@U?$_Tree_simple_types@U?$pair@$$CBV?$basic_string@_WU?$char_traits@_W@std@@V?$allocator@_W@2@@std@@PEAVIcon@TiledTexture@gfxu@@@std@@@std@@@std@@@2@@Z ; std::_Tree<std::_Tmap_traits<std::basic_string<wchar_t,std::char_traits<wchar_t>,std::allocator<wchar_t> >,gfxu::TiledTexture::Icon * __ptr64,std::less<std::basic_string<wchar_t,std::char_traits<wchar_t>,std::allocator<wchar_t> > >,std::allocator<std::pair<std::basic_string<wchar_t,std::char_traits<wchar_t>,std::allocator<wchar_t> > const ,gfxu::TiledTexture::Icon * __ptr64> >,0> >::erase
PUBLIC	??0?$_Deque_iterator@V?$_Deque_val@U?$_Deque_simple_types@VMatrix@geom@@@std@@@std@@@std@@QEAA@AEBV01@@Z ; std::_Deque_iterator<std::_Deque_val<std::_Deque_simple_types<geom::Matrix> > >::_Deque_iterator<std::_Deque_val<std::_Deque_simple_types<geom::Matrix> > >
PUBLIC	??G?$_Deque_iterator@V?$_Deque_val@U?$_Deque_simple_types@VMatrix@geom@@@std@@@std@@@std@@QEBA?AV01@_J@Z ; std::_Deque_iterator<std::_Deque_val<std::_Deque_simple_types<geom::Matrix> > >::operator-
PUBLIC	??D?$_Deque_iterator@V?$_Deque_val@U?$_Deque_simple_types@VMatrix@geom@@@std@@@std@@@std@@QEBAAEAVMatrix@geom@@XZ ; std::_Deque_iterator<std::_Deque_val<std::_Deque_simple_types<geom::Matrix> > >::operator*
PUBLIC	?_Compat@?$_Vector_const_iterator@V?$_Vector_val@U?$_Simple_types@PEAVIcon@TiledTexture@gfxu@@@std@@@std@@@std@@QEBAXAEBV12@@Z ; std::_Vector_const_iterator<std::_Vector_val<std::_Simple_types<gfxu::TiledTexture::Icon * __ptr64> > >::_Compat
PUBLIC	??0?$_Vector_const_iterator@V?$_Vector_val@U?$_Simple_types@PEAVIcon@TiledTexture@gfxu@@@std@@@std@@@std@@QEAA@PEAPEAVIcon@TiledTexture@gfxu@@PEBU_Container_base0@1@@Z ; std::_Vector_const_iterator<std::_Vector_val<std::_Simple_types<gfxu::TiledTexture::Icon * __ptr64> > >::_Vector_const_iterator<std::_Vector_val<std::_Simple_types<gfxu::TiledTexture::Icon * __ptr64> > >
PUBLIC	??0?$_Vector_val@U?$_Simple_types@PEAVIcon@TiledTexture@gfxu@@@std@@@std@@QEAA@XZ ; std::_Vector_val<std::_Simple_types<gfxu::TiledTexture::Icon * __ptr64> >::_Vector_val<std::_Simple_types<gfxu::TiledTexture::Icon * __ptr64> >
PUBLIC	?deallocate@?$_Wrap_alloc@V?$allocator@PEAVIcon@TiledTexture@gfxu@@@std@@@std@@QEAAXPEAPEAVIcon@TiledTexture@gfxu@@_K@Z ; std::_Wrap_alloc<std::allocator<gfxu::TiledTexture::Icon * __ptr64> >::deallocate
PUBLIC	??0?$_Wrap_alloc@V?$allocator@PEAVIcon@TiledTexture@gfxu@@@std@@@std@@QEAA@XZ ; std::_Wrap_alloc<std::allocator<gfxu::TiledTexture::Icon * __ptr64> >::_Wrap_alloc<std::allocator<gfxu::TiledTexture::Icon * __ptr64> >
PUBLIC	?_Xlen@?$vector@PEAVIcon@TiledTexture@gfxu@@V?$allocator@PEAVIcon@TiledTexture@gfxu@@@std@@@std@@IEBAXXZ ; std::vector<gfxu::TiledTexture::Icon * __ptr64,std::allocator<gfxu::TiledTexture::Icon * __ptr64> >::_Xlen
PUBLIC	?_Reallocate@?$vector@PEAVIcon@TiledTexture@gfxu@@V?$allocator@PEAVIcon@TiledTexture@gfxu@@@std@@@std@@IEAAX_K@Z ; std::vector<gfxu::TiledTexture::Icon * __ptr64,std::allocator<gfxu::TiledTexture::Icon * __ptr64> >::_Reallocate
PUBLIC	?_Grow_to@?$vector@PEAVIcon@TiledTexture@gfxu@@V?$allocator@PEAVIcon@TiledTexture@gfxu@@@std@@@std@@IEBA_K_K@Z ; std::vector<gfxu::TiledTexture::Icon * __ptr64,std::allocator<gfxu::TiledTexture::Icon * __ptr64> >::_Grow_to
PUBLIC	?_Destroy@?$vector@PEAVIcon@TiledTexture@gfxu@@V?$allocator@PEAVIcon@TiledTexture@gfxu@@@std@@@std@@IEAAXPEAPEAVIcon@TiledTexture@gfxu@@0@Z ; std::vector<gfxu::TiledTexture::Icon * __ptr64,std::allocator<gfxu::TiledTexture::Icon * __ptr64> >::_Destroy
PUBLIC	?max_size@?$vector@PEAVIcon@TiledTexture@gfxu@@V?$allocator@PEAVIcon@TiledTexture@gfxu@@@std@@@std@@QEBA_KXZ ; std::vector<gfxu::TiledTexture::Icon * __ptr64,std::allocator<gfxu::TiledTexture::Icon * __ptr64> >::max_size
PUBLIC	?size@?$vector@PEAVIcon@TiledTexture@gfxu@@V?$allocator@PEAVIcon@TiledTexture@gfxu@@@std@@@std@@QEBA_KXZ ; std::vector<gfxu::TiledTexture::Icon * __ptr64,std::allocator<gfxu::TiledTexture::Icon * __ptr64> >::size
PUBLIC	?_Unused_capacity@?$vector@PEAVIcon@TiledTexture@gfxu@@V?$allocator@PEAVIcon@TiledTexture@gfxu@@@std@@@std@@QEBA_KXZ ; std::vector<gfxu::TiledTexture::Icon * __ptr64,std::allocator<gfxu::TiledTexture::Icon * __ptr64> >::_Unused_capacity
PUBLIC	??E?$_Tree_unchecked_const_iterator@V?$_Tree_val@U?$_Tree_simple_types@U?$pair@$$CBV?$basic_string@_WU?$char_traits@_W@std@@V?$allocator@_W@2@@std@@PEAVIcon@TiledTexture@gfxu@@@std@@@std@@@std@@U_Iterator_base0@2@@std@@QEAAAEAV01@XZ ; std::_Tree_unchecked_const_iterator<std::_Tree_val<std::_Tree_simple_types<std::pair<std::basic_string<wchar_t,std::char_traits<wchar_t>,std::allocator<wchar_t> > const ,gfxu::TiledTexture::Icon * __ptr64> > >,std::_Iterator_base0>::operator++
PUBLIC	??D?$_Tree_const_iterator@V?$_Tree_val@U?$_Tree_simple_types@U?$pair@$$CBV?$basic_string@_WU?$char_traits@_W@std@@V?$allocator@_W@2@@std@@PEAVIcon@TiledTexture@gfxu@@@std@@@std@@@std@@@std@@QEBAAEBU?$pair@$$CBV?$basic_string@_WU?$char_traits@_W@std@@V?$allocator@_W@2@@std@@PEAVIcon@TiledTexture@gfxu@@@1@XZ ; std::_Tree_const_iterator<std::_Tree_val<std::_Tree_simple_types<std::pair<std::basic_string<wchar_t,std::char_traits<wchar_t>,std::allocator<wchar_t> > const ,gfxu::TiledTexture::Icon * __ptr64> > > >::operator*
PUBLIC	??0?$_Tree_const_iterator@V?$_Tree_val@U?$_Tree_simple_types@U?$pair@$$CBV?$basic_string@_WU?$char_traits@_W@std@@V?$allocator@_W@2@@std@@PEAVIcon@TiledTexture@gfxu@@@std@@@std@@@std@@@std@@QEAA@PEAU?$_Tree_node@U?$pair@$$CBV?$basic_string@_WU?$char_traits@_W@std@@V?$allocator@_W@2@@std@@PEAVIcon@TiledTexture@gfxu@@@std@@PEAX@1@PEBV?$_Tree_val@U?$_Tree_simple_types@U?$pair@$$CBV?$basic_string@_WU?$char_traits@_W@std@@V?$allocator@_W@2@@std@@PEAVIcon@TiledTexture@gfxu@@@std@@@std@@@1@@Z ; std::_Tree_const_iterator<std::_Tree_val<std::_Tree_simple_types<std::pair<std::basic_string<wchar_t,std::char_traits<wchar_t>,std::allocator<wchar_t> > const ,gfxu::TiledTexture::Icon * __ptr64> > > >::_Tree_const_iterator<std::_Tree_val<std::_Tree_simple_types<std::pair<std::basic_string<wchar_t,std::char_traits<wchar_t>,std::allocator<wchar_t> > const ,gfxu::TiledTexture::Icon * __ptr64> > > >
PUBLIC	?_Getblock@?$_Deque_val@U?$_Deque_simple_types@VMatrix@geom@@@std@@@std@@QEBA_K_K@Z ; std::_Deque_val<std::_Deque_simple_types<geom::Matrix> >::_Getblock
PUBLIC	?deallocate@?$_Wrap_alloc@V?$allocator@PEAVMatrix@geom@@@std@@@std@@QEAAXPEAPEAVMatrix@geom@@_K@Z ; std::_Wrap_alloc<std::allocator<geom::Matrix * __ptr64> >::deallocate
PUBLIC	?deallocate@?$_Wrap_alloc@V?$allocator@VMatrix@geom@@@std@@@std@@QEAAXPEAVMatrix@geom@@_K@Z ; std::_Wrap_alloc<std::allocator<geom::Matrix> >::deallocate
PUBLIC	?allocate@?$_Wrap_alloc@V?$allocator@VMatrix@geom@@@std@@@std@@QEAAPEAVMatrix@geom@@_K@Z ; std::_Wrap_alloc<std::allocator<geom::Matrix> >::allocate
PUBLIC	?select_on_container_copy_construction@?$_Wrap_alloc@V?$allocator@VMatrix@geom@@@std@@@std@@QEBA?AU12@XZ ; std::_Wrap_alloc<std::allocator<geom::Matrix> >::select_on_container_copy_construction
PUBLIC	?_Getal@?$_Deque_alloc@$0A@U?$_Deque_base_types@VMatrix@geom@@V?$allocator@VMatrix@geom@@@std@@@std@@@std@@QEBA?AU?$_Wrap_alloc@V?$allocator@VMatrix@geom@@@std@@@2@XZ ; std::_Deque_alloc<0,std::_Deque_base_types<geom::Matrix,std::allocator<geom::Matrix> > >::_Getal
PUBLIC	?_Free_proxy@?$_Deque_alloc@$0A@U?$_Deque_base_types@VMatrix@geom@@V?$allocator@VMatrix@geom@@@std@@@std@@@std@@QEAAXXZ ; std::_Deque_alloc<0,std::_Deque_base_types<geom::Matrix,std::allocator<geom::Matrix> > >::_Free_proxy
PUBLIC	??0?$_Deque_alloc@$0A@U?$_Deque_base_types@VMatrix@geom@@V?$allocator@VMatrix@geom@@@std@@@std@@@std@@QEAA@AEBV?$allocator@VMatrix@geom@@@1@@Z ; std::_Deque_alloc<0,std::_Deque_base_types<geom::Matrix,std::allocator<geom::Matrix> > >::_Deque_alloc<0,std::_Deque_base_types<geom::Matrix,std::allocator<geom::Matrix> > >
PUBLIC	??0?$allocator@VMatrix@geom@@@std@@QEAA@XZ	; std::allocator<geom::Matrix>::allocator<geom::Matrix>
PUBLIC	?_Growmap@?$deque@VMatrix@geom@@V?$allocator@VMatrix@geom@@@std@@@std@@IEAAX_K@Z ; std::deque<geom::Matrix,std::allocator<geom::Matrix> >::_Growmap
PUBLIC	?end@?$deque@VMatrix@geom@@V?$allocator@VMatrix@geom@@@std@@@std@@QEBA?AV?$_Deque_const_iterator@V?$_Deque_val@U?$_Deque_simple_types@VMatrix@geom@@@std@@@std@@@2@XZ ; std::deque<geom::Matrix,std::allocator<geom::Matrix> >::end
PUBLIC	?end@?$deque@VMatrix@geom@@V?$allocator@VMatrix@geom@@@std@@@std@@QEAA?AV?$_Deque_iterator@V?$_Deque_val@U?$_Deque_simple_types@VMatrix@geom@@@std@@@std@@@2@XZ ; std::deque<geom::Matrix,std::allocator<geom::Matrix> >::end
PUBLIC	?begin@?$deque@VMatrix@geom@@V?$allocator@VMatrix@geom@@@std@@@std@@QEBA?AV?$_Deque_const_iterator@V?$_Deque_val@U?$_Deque_simple_types@VMatrix@geom@@@std@@@std@@@2@XZ ; std::deque<geom::Matrix,std::allocator<geom::Matrix> >::begin
PUBLIC	?begin@?$deque@VMatrix@geom@@V?$allocator@VMatrix@geom@@@std@@@std@@QEAA?AV?$_Deque_iterator@V?$_Deque_val@U?$_Deque_simple_types@VMatrix@geom@@@std@@@std@@@2@XZ ; std::deque<geom::Matrix,std::allocator<geom::Matrix> >::begin
PUBLIC	??0?$_Vector_val@U?$_Simple_types@VVertexUVRGBA@gfxu@@@std@@@std@@QEAA@XZ ; std::_Vector_val<std::_Simple_types<gfxu::VertexUVRGBA> >::_Vector_val<std::_Simple_types<gfxu::VertexUVRGBA> >
PUBLIC	?max_size@?$_Wrap_alloc@V?$allocator@VVertexUVRGBA@gfxu@@@std@@@std@@QEBA_KXZ ; std::_Wrap_alloc<std::allocator<gfxu::VertexUVRGBA> >::max_size
PUBLIC	?deallocate@?$_Wrap_alloc@V?$allocator@VVertexUVRGBA@gfxu@@@std@@@std@@QEAAXPEAVVertexUVRGBA@gfxu@@_K@Z ; std::_Wrap_alloc<std::allocator<gfxu::VertexUVRGBA> >::deallocate
PUBLIC	?allocate@?$_Wrap_alloc@V?$allocator@VVertexUVRGBA@gfxu@@@std@@@std@@QEAAPEAVVertexUVRGBA@gfxu@@_K@Z ; std::_Wrap_alloc<std::allocator<gfxu::VertexUVRGBA> >::allocate
PUBLIC	??0?$_Wrap_alloc@V?$allocator@VVertexUVRGBA@gfxu@@@std@@@std@@QEAA@XZ ; std::_Wrap_alloc<std::allocator<gfxu::VertexUVRGBA> >::_Wrap_alloc<std::allocator<gfxu::VertexUVRGBA> >
PUBLIC	?_Grow_to@?$vector@VVertexUVRGBA@gfxu@@V?$allocator@VVertexUVRGBA@gfxu@@@std@@@std@@IEBA_K_K@Z ; std::vector<gfxu::VertexUVRGBA,std::allocator<gfxu::VertexUVRGBA> >::_Grow_to
PUBLIC	?_Unused_capacity@?$vector@VVertexUVRGBA@gfxu@@V?$allocator@VVertexUVRGBA@gfxu@@@std@@@std@@QEBA_KXZ ; std::vector<gfxu::VertexUVRGBA,std::allocator<gfxu::VertexUVRGBA> >::_Unused_capacity
PUBLIC	?_Myval@?$_Tree_val@U?$_Tree_simple_types@U?$pair@$$CBV?$basic_string@_WU?$char_traits@_W@std@@V?$allocator@_W@2@@std@@PEAVIcon@TiledTexture@gfxu@@@std@@@std@@@std@@SAAEAU?$pair@$$CBV?$basic_string@_WU?$char_traits@_W@std@@V?$allocator@_W@2@@std@@PEAVIcon@TiledTexture@gfxu@@@2@PEAU?$_Tree_node@U?$pair@$$CBV?$basic_string@_WU?$char_traits@_W@std@@V?$allocator@_W@2@@std@@PEAVIcon@TiledTexture@gfxu@@@std@@PEAX@2@@Z ; std::_Tree_val<std::_Tree_simple_types<std::pair<std::basic_string<wchar_t,std::char_traits<wchar_t>,std::allocator<wchar_t> > const ,gfxu::TiledTexture::Icon * __ptr64> > >::_Myval
PUBLIC	?_Left@?$_Tree_val@U?$_Tree_simple_types@U?$pair@$$CBV?$basic_string@_WU?$char_traits@_W@std@@V?$allocator@_W@2@@std@@PEAVIcon@TiledTexture@gfxu@@@std@@@std@@@std@@SAAEAPEAU?$_Tree_node@U?$pair@$$CBV?$basic_string@_WU?$char_traits@_W@std@@V?$allocator@_W@2@@std@@PEAVIcon@TiledTexture@gfxu@@@std@@PEAX@2@PEAU32@@Z ; std::_Tree_val<std::_Tree_simple_types<std::pair<std::basic_string<wchar_t,std::char_traits<wchar_t>,std::allocator<wchar_t> > const ,gfxu::TiledTexture::Icon * __ptr64> > >::_Left
PUBLIC	?_Freeheadnode@?$_Tree_alloc@$0A@U?$_Tree_base_types@U?$pair@$$CBV?$basic_string@_WU?$char_traits@_W@std@@V?$allocator@_W@2@@std@@PEAVIcon@TiledTexture@gfxu@@@std@@V?$allocator@U?$pair@$$CBV?$basic_string@_WU?$char_traits@_W@std@@V?$allocator@_W@2@@std@@PEAVIcon@TiledTexture@gfxu@@@std@@@2@@std@@@std@@QEAAXPEAU?$_Tree_node@U?$pair@$$CBV?$basic_string@_WU?$char_traits@_W@std@@V?$allocator@_W@2@@std@@PEAVIcon@TiledTexture@gfxu@@@std@@PEAX@2@@Z ; std::_Tree_alloc<0,std::_Tree_base_types<std::pair<std::basic_string<wchar_t,std::char_traits<wchar_t>,std::allocator<wchar_t> > const ,gfxu::TiledTexture::Icon * __ptr64>,std::allocator<std::pair<std::basic_string<wchar_t,std::char_traits<wchar_t>,std::allocator<wchar_t> > const ,gfxu::TiledTexture::Icon * __ptr64> > > >::_Freeheadnode
PUBLIC	??0?$_Tree_comp@$0A@V?$_Tmap_traits@V?$basic_string@_WU?$char_traits@_W@std@@V?$allocator@_W@2@@std@@PEAVIcon@TiledTexture@gfxu@@U?$less@V?$basic_string@_WU?$char_traits@_W@std@@V?$allocator@_W@2@@std@@@2@V?$allocator@U?$pair@$$CBV?$basic_string@_WU?$char_traits@_W@std@@V?$allocator@_W@2@@std@@PEAVIcon@TiledTexture@gfxu@@@std@@@2@$0A@@std@@@std@@QEAA@AEBU?$less@V?$basic_string@_WU?$char_traits@_W@std@@V?$allocator@_W@2@@std@@@1@AEBV?$allocator@U?$pair@$$CBV?$basic_string@_WU?$char_traits@_W@std@@V?$allocator@_W@2@@std@@PEAVIcon@TiledTexture@gfxu@@@std@@@1@@Z ; std::_Tree_comp<0,std::_Tmap_traits<std::basic_string<wchar_t,std::char_traits<wchar_t>,std::allocator<wchar_t> >,gfxu::TiledTexture::Icon * __ptr64,std::less<std::basic_string<wchar_t,std::char_traits<wchar_t>,std::allocator<wchar_t> > >,std::allocator<std::pair<std::basic_string<wchar_t,std::char_traits<wchar_t>,std::allocator<wchar_t> > const ,gfxu::TiledTexture::Icon * __ptr64> >,0> >::_Tree_comp<0,std::_Tmap_traits<std::basic_string<wchar_t,std::char_traits<wchar_t>,std::allocator<wchar_t> >,gfxu::TiledTexture::Icon * __ptr64,std::less<std::basic_string<wchar_t,std::char_traits<wchar_t>,std::allocator<wchar_t> > >,std::allocator<std::pair<std::basic_string<wchar_t,std::char_traits<wchar_t>,std::allocator<wchar_t> > const ,gfxu::TiledTexture::Icon * __ptr64> >,0> >
PUBLIC	?_Kfn@?$_Tree@V?$_Tmap_traits@V?$basic_string@_WU?$char_traits@_W@std@@V?$allocator@_W@2@@std@@PEAVIcon@TiledTexture@gfxu@@U?$less@V?$basic_string@_WU?$char_traits@_W@std@@V?$allocator@_W@2@@std@@@2@V?$allocator@U?$pair@$$CBV?$basic_string@_WU?$char_traits@_W@std@@V?$allocator@_W@2@@std@@PEAVIcon@TiledTexture@gfxu@@@std@@@2@$0A@@std@@@std@@IEBAAEBV?$basic_string@_WU?$char_traits@_W@std@@V?$allocator@_W@2@@2@AEBU?$pair@$$CBV?$basic_string@_WU?$char_traits@_W@std@@V?$allocator@_W@2@@std@@PEAVIcon@TiledTexture@gfxu@@@2@@Z ; std::_Tree<std::_Tmap_traits<std::basic_string<wchar_t,std::char_traits<wchar_t>,std::allocator<wchar_t> >,gfxu::TiledTexture::Icon * __ptr64,std::less<std::basic_string<wchar_t,std::char_traits<wchar_t>,std::allocator<wchar_t> > >,std::allocator<std::pair<std::basic_string<wchar_t,std::char_traits<wchar_t>,std::allocator<wchar_t> > const ,gfxu::TiledTexture::Icon * __ptr64> >,0> >::_Kfn
PUBLIC	?_Lbound@?$_Tree@V?$_Tmap_traits@V?$basic_string@_WU?$char_traits@_W@std@@V?$allocator@_W@2@@std@@PEAVIcon@TiledTexture@gfxu@@U?$less@V?$basic_string@_WU?$char_traits@_W@std@@V?$allocator@_W@2@@std@@@2@V?$allocator@U?$pair@$$CBV?$basic_string@_WU?$char_traits@_W@std@@V?$allocator@_W@2@@std@@PEAVIcon@TiledTexture@gfxu@@@std@@@2@$0A@@std@@@std@@IEAAPEAU?$_Tree_node@U?$pair@$$CBV?$basic_string@_WU?$char_traits@_W@std@@V?$allocator@_W@2@@std@@PEAVIcon@TiledTexture@gfxu@@@std@@PEAX@2@AEBV?$basic_string@_WU?$char_traits@_W@std@@V?$allocator@_W@2@@2@@Z ; std::_Tree<std::_Tmap_traits<std::basic_string<wchar_t,std::char_traits<wchar_t>,std::allocator<wchar_t> >,gfxu::TiledTexture::Icon * __ptr64,std::less<std::basic_string<wchar_t,std::char_traits<wchar_t>,std::allocator<wchar_t> > >,std::allocator<std::pair<std::basic_string<wchar_t,std::char_traits<wchar_t>,std::allocator<wchar_t> > const ,gfxu::TiledTexture::Icon * __ptr64> >,0> >::_Lbound
PUBLIC	?erase@?$_Tree@V?$_Tmap_traits@V?$basic_string@_WU?$char_traits@_W@std@@V?$allocator@_W@2@@std@@PEAVIcon@TiledTexture@gfxu@@U?$less@V?$basic_string@_WU?$char_traits@_W@std@@V?$allocator@_W@2@@std@@@2@V?$allocator@U?$pair@$$CBV?$basic_string@_WU?$char_traits@_W@std@@V?$allocator@_W@2@@std@@PEAVIcon@TiledTexture@gfxu@@@std@@@2@$0A@@std@@@std@@QEAA?AV?$_Tree_iterator@V?$_Tree_val@U?$_Tree_simple_types@U?$pair@$$CBV?$basic_string@_WU?$char_traits@_W@std@@V?$allocator@_W@2@@std@@PEAVIcon@TiledTexture@gfxu@@@std@@@std@@@std@@@2@V?$_Tree_const_iterator@V?$_Tree_val@U?$_Tree_simple_types@U?$pair@$$CBV?$basic_string@_WU?$char_traits@_W@std@@V?$allocator@_W@2@@std@@PEAVIcon@TiledTexture@gfxu@@@std@@@std@@@std@@@2@0@Z ; std::_Tree<std::_Tmap_traits<std::basic_string<wchar_t,std::char_traits<wchar_t>,std::allocator<wchar_t> >,gfxu::TiledTexture::Icon * __ptr64,std::less<std::basic_string<wchar_t,std::char_traits<wchar_t>,std::allocator<wchar_t> > >,std::allocator<std::pair<std::basic_string<wchar_t,std::char_traits<wchar_t>,std::allocator<wchar_t> > const ,gfxu::TiledTexture::Icon * __ptr64> >,0> >::erase
PUBLIC	??1?$_Deque_val@U?$_Deque_simple_types@VMatrix@geom@@@std@@@std@@QEAA@XZ ; std::_Deque_val<std::_Deque_simple_types<geom::Matrix> >::~_Deque_val<std::_Deque_simple_types<geom::Matrix> >
PUBLIC	??0?$_Deque_const_iterator@V?$_Deque_val@U?$_Deque_simple_types@VMatrix@geom@@@std@@@std@@@std@@QEAA@AEBV01@@Z ; std::_Deque_const_iterator<std::_Deque_val<std::_Deque_simple_types<geom::Matrix> > >::_Deque_const_iterator<std::_Deque_val<std::_Deque_simple_types<geom::Matrix> > >
PUBLIC	??1?$_Deque_const_iterator@V?$_Deque_val@U?$_Deque_simple_types@VMatrix@geom@@@std@@@std@@@std@@QEAA@XZ ; std::_Deque_const_iterator<std::_Deque_val<std::_Deque_simple_types<geom::Matrix> > >::~_Deque_const_iterator<std::_Deque_val<std::_Deque_simple_types<geom::Matrix> > >
PUBLIC	??1?$_Deque_iterator@V?$_Deque_val@U?$_Deque_simple_types@VMatrix@geom@@@std@@@std@@@std@@QEAA@XZ ; std::_Deque_iterator<std::_Deque_val<std::_Deque_simple_types<geom::Matrix> > >::~_Deque_iterator<std::_Deque_val<std::_Deque_simple_types<geom::Matrix> > >
PUBLIC	?pointer_to@?$pointer_traits@PEAU?$pair@$$CBV?$basic_string@_WU?$char_traits@_W@std@@V?$allocator@_W@2@@std@@PEAVIcon@TiledTexture@gfxu@@@std@@@std@@SAPEAU?$pair@$$CBV?$basic_string@_WU?$char_traits@_W@std@@V?$allocator@_W@2@@std@@PEAVIcon@TiledTexture@gfxu@@@2@AEAU32@@Z ; std::pointer_traits<std::pair<std::basic_string<wchar_t,std::char_traits<wchar_t>,std::allocator<wchar_t> > const ,gfxu::TiledTexture::Icon * __ptr64> * __ptr64>::pointer_to
PUBLIC	??8?$_Vector_const_iterator@V?$_Vector_val@U?$_Simple_types@PEAVIcon@TiledTexture@gfxu@@@std@@@std@@@std@@QEBA_NAEBV01@@Z ; std::_Vector_const_iterator<std::_Vector_val<std::_Simple_types<gfxu::TiledTexture::Icon * __ptr64> > >::operator==
PUBLIC	??E?$_Vector_const_iterator@V?$_Vector_val@U?$_Simple_types@PEAVIcon@TiledTexture@gfxu@@@std@@@std@@@std@@QEAAAEAV01@XZ ; std::_Vector_const_iterator<std::_Vector_val<std::_Simple_types<gfxu::TiledTexture::Icon * __ptr64> > >::operator++
PUBLIC	??D?$_Vector_const_iterator@V?$_Vector_val@U?$_Simple_types@PEAVIcon@TiledTexture@gfxu@@@std@@@std@@@std@@QEBAAEBQEAVIcon@TiledTexture@gfxu@@XZ ; std::_Vector_const_iterator<std::_Vector_val<std::_Simple_types<gfxu::TiledTexture::Icon * __ptr64> > >::operator*
PUBLIC	??0?$_Vector_iterator@V?$_Vector_val@U?$_Simple_types@PEAVIcon@TiledTexture@gfxu@@@std@@@std@@@std@@QEAA@PEAPEAVIcon@TiledTexture@gfxu@@PEBU_Container_base0@1@@Z ; std::_Vector_iterator<std::_Vector_val<std::_Simple_types<gfxu::TiledTexture::Icon * __ptr64> > >::_Vector_iterator<std::_Vector_val<std::_Simple_types<gfxu::TiledTexture::Icon * __ptr64> > >
PUBLIC	?_Getal@?$_Vector_alloc@$0A@U?$_Vec_base_types@PEAVIcon@TiledTexture@gfxu@@V?$allocator@PEAVIcon@TiledTexture@gfxu@@@std@@@std@@@std@@QEBA?AU?$_Wrap_alloc@V?$allocator@PEAVIcon@TiledTexture@gfxu@@@std@@@2@XZ ; std::_Vector_alloc<0,std::_Vec_base_types<gfxu::TiledTexture::Icon * __ptr64,std::allocator<gfxu::TiledTexture::Icon * __ptr64> > >::_Getal
PUBLIC	??0?$_Vector_alloc@$0A@U?$_Vec_base_types@PEAVIcon@TiledTexture@gfxu@@V?$allocator@PEAVIcon@TiledTexture@gfxu@@@std@@@std@@@std@@QEAA@AEBV?$allocator@PEAVIcon@TiledTexture@gfxu@@@1@@Z ; std::_Vector_alloc<0,std::_Vec_base_types<gfxu::TiledTexture::Icon * __ptr64,std::allocator<gfxu::TiledTexture::Icon * __ptr64> > >::_Vector_alloc<0,std::_Vec_base_types<gfxu::TiledTexture::Icon * __ptr64,std::allocator<gfxu::TiledTexture::Icon * __ptr64> > >
PUBLIC	??0?$allocator@PEAVIcon@TiledTexture@gfxu@@@std@@QEAA@XZ ; std::allocator<gfxu::TiledTexture::Icon * __ptr64>::allocator<gfxu::TiledTexture::Icon * __ptr64>
PUBLIC	?_Orphan_range@?$vector@PEAVIcon@TiledTexture@gfxu@@V?$allocator@PEAVIcon@TiledTexture@gfxu@@@std@@@std@@IEBAXPEAPEAVIcon@TiledTexture@gfxu@@0@Z ; std::vector<gfxu::TiledTexture::Icon * __ptr64,std::allocator<gfxu::TiledTexture::Icon * __ptr64> >::_Orphan_range
PUBLIC	?_Tidy@?$vector@PEAVIcon@TiledTexture@gfxu@@V?$allocator@PEAVIcon@TiledTexture@gfxu@@@std@@@std@@IEAAXXZ ; std::vector<gfxu::TiledTexture::Icon * __ptr64,std::allocator<gfxu::TiledTexture::Icon * __ptr64> >::_Tidy
PUBLIC	?_Reserve@?$vector@PEAVIcon@TiledTexture@gfxu@@V?$allocator@PEAVIcon@TiledTexture@gfxu@@@std@@@std@@IEAAX_K@Z ; std::vector<gfxu::TiledTexture::Icon * __ptr64,std::allocator<gfxu::TiledTexture::Icon * __ptr64> >::_Reserve
PUBLIC	?_Inside@?$vector@PEAVIcon@TiledTexture@gfxu@@V?$allocator@PEAVIcon@TiledTexture@gfxu@@@std@@@std@@IEBA_NPEBQEAVIcon@TiledTexture@gfxu@@@Z ; std::vector<gfxu::TiledTexture::Icon * __ptr64,std::allocator<gfxu::TiledTexture::Icon * __ptr64> >::_Inside
PUBLIC	?_Mynode@?$_Tree_unchecked_const_iterator@V?$_Tree_val@U?$_Tree_simple_types@U?$pair@$$CBV?$basic_string@_WU?$char_traits@_W@std@@V?$allocator@_W@2@@std@@PEAVIcon@TiledTexture@gfxu@@@std@@@std@@@std@@U_Iterator_base0@2@@std@@QEBAPEAU?$_Tree_node@U?$pair@$$CBV?$basic_string@_WU?$char_traits@_W@std@@V?$allocator@_W@2@@std@@PEAVIcon@TiledTexture@gfxu@@@std@@PEAX@2@XZ ; std::_Tree_unchecked_const_iterator<std::_Tree_val<std::_Tree_simple_types<std::pair<std::basic_string<wchar_t,std::char_traits<wchar_t>,std::allocator<wchar_t> > const ,gfxu::TiledTexture::Icon * __ptr64> > >,std::_Iterator_base0>::_Mynode
PUBLIC	??E?$_Tree_const_iterator@V?$_Tree_val@U?$_Tree_simple_types@U?$pair@$$CBV?$basic_string@_WU?$char_traits@_W@std@@V?$allocator@_W@2@@std@@PEAVIcon@TiledTexture@gfxu@@@std@@@std@@@std@@@std@@QEAAAEAV01@XZ ; std::_Tree_const_iterator<std::_Tree_val<std::_Tree_simple_types<std::pair<std::basic_string<wchar_t,std::char_traits<wchar_t>,std::allocator<wchar_t> > const ,gfxu::TiledTexture::Icon * __ptr64> > > >::operator++
PUBLIC	??D?$_Tree_iterator@V?$_Tree_val@U?$_Tree_simple_types@U?$pair@$$CBV?$basic_string@_WU?$char_traits@_W@std@@V?$allocator@_W@2@@std@@PEAVIcon@TiledTexture@gfxu@@@std@@@std@@@std@@@std@@QEBAAEAU?$pair@$$CBV?$basic_string@_WU?$char_traits@_W@std@@V?$allocator@_W@2@@std@@PEAVIcon@TiledTexture@gfxu@@@1@XZ ; std::_Tree_iterator<std::_Tree_val<std::_Tree_simple_types<std::pair<std::basic_string<wchar_t,std::char_traits<wchar_t>,std::allocator<wchar_t> > const ,gfxu::TiledTexture::Icon * __ptr64> > > >::operator*
PUBLIC	??0?$_Tree_iterator@V?$_Tree_val@U?$_Tree_simple_types@U?$pair@$$CBV?$basic_string@_WU?$char_traits@_W@std@@V?$allocator@_W@2@@std@@PEAVIcon@TiledTexture@gfxu@@@std@@@std@@@std@@@std@@QEAA@PEAU?$_Tree_node@U?$pair@$$CBV?$basic_string@_WU?$char_traits@_W@std@@V?$allocator@_W@2@@std@@PEAVIcon@TiledTexture@gfxu@@@std@@PEAX@1@PEBV?$_Tree_val@U?$_Tree_simple_types@U?$pair@$$CBV?$basic_string@_WU?$char_traits@_W@std@@V?$allocator@_W@2@@std@@PEAVIcon@TiledTexture@gfxu@@@std@@@std@@@1@@Z ; std::_Tree_iterator<std::_Tree_val<std::_Tree_simple_types<std::pair<std::basic_string<wchar_t,std::char_traits<wchar_t>,std::allocator<wchar_t> > const ,gfxu::TiledTexture::Icon * __ptr64> > > >::_Tree_iterator<std::_Tree_val<std::_Tree_simple_types<std::pair<std::basic_string<wchar_t,std::char_traits<wchar_t>,std::allocator<wchar_t> > const ,gfxu::TiledTexture::Icon * __ptr64> > > >
PUBLIC	??1?$_Deque_alloc@$0A@U?$_Deque_base_types@VMatrix@geom@@V?$allocator@VMatrix@geom@@@std@@@std@@@std@@QEAA@XZ ; std::_Deque_alloc<0,std::_Deque_base_types<geom::Matrix,std::allocator<geom::Matrix> > >::~_Deque_alloc<0,std::_Deque_base_types<geom::Matrix,std::allocator<geom::Matrix> > >
PUBLIC	?_Tidy@?$deque@VMatrix@geom@@V?$allocator@VMatrix@geom@@@std@@@std@@IEAAXXZ ; std::deque<geom::Matrix,std::allocator<geom::Matrix> >::_Tidy
PUBLIC	?pop_back@?$deque@VMatrix@geom@@V?$allocator@VMatrix@geom@@@std@@@std@@QEAAXXZ ; std::deque<geom::Matrix,std::allocator<geom::Matrix> >::pop_back
PUBLIC	?push_back@?$deque@VMatrix@geom@@V?$allocator@VMatrix@geom@@@std@@@std@@QEAAXAEBVMatrix@geom@@@Z ; std::deque<geom::Matrix,std::allocator<geom::Matrix> >::push_back
PUBLIC	?back@?$deque@VMatrix@geom@@V?$allocator@VMatrix@geom@@@std@@@std@@QEAAAEAVMatrix@geom@@XZ ; std::deque<geom::Matrix,std::allocator<geom::Matrix> >::back
PUBLIC	?empty@?$deque@VMatrix@geom@@V?$allocator@VMatrix@geom@@@std@@@std@@QEBA_NXZ ; std::deque<geom::Matrix,std::allocator<geom::Matrix> >::empty
PUBLIC	?push_back@?$deque@VMatrix@geom@@V?$allocator@VMatrix@geom@@@std@@@std@@QEAAX$$QEAVMatrix@geom@@@Z ; std::deque<geom::Matrix,std::allocator<geom::Matrix> >::push_back
PUBLIC	??0?$deque@VMatrix@geom@@V?$allocator@VMatrix@geom@@@std@@@std@@QEAA@AEBV01@@Z ; std::deque<geom::Matrix,std::allocator<geom::Matrix> >::deque<geom::Matrix,std::allocator<geom::Matrix> >
PUBLIC	??0?$deque@VMatrix@geom@@V?$allocator@VMatrix@geom@@@std@@@std@@QEAA@XZ ; std::deque<geom::Matrix,std::allocator<geom::Matrix> >::deque<geom::Matrix,std::allocator<geom::Matrix> >
PUBLIC	?_Getal@?$_Vector_alloc@$0A@U?$_Vec_base_types@VVertexUVRGBA@gfxu@@V?$allocator@VVertexUVRGBA@gfxu@@@std@@@std@@@std@@QEBA?AU?$_Wrap_alloc@V?$allocator@VVertexUVRGBA@gfxu@@@std@@@2@XZ ; std::_Vector_alloc<0,std::_Vec_base_types<gfxu::VertexUVRGBA,std::allocator<gfxu::VertexUVRGBA> > >::_Getal
PUBLIC	??0?$_Vector_alloc@$0A@U?$_Vec_base_types@VVertexUVRGBA@gfxu@@V?$allocator@VVertexUVRGBA@gfxu@@@std@@@std@@@std@@QEAA@AEBV?$allocator@VVertexUVRGBA@gfxu@@@1@@Z ; std::_Vector_alloc<0,std::_Vec_base_types<gfxu::VertexUVRGBA,std::allocator<gfxu::VertexUVRGBA> > >::_Vector_alloc<0,std::_Vec_base_types<gfxu::VertexUVRGBA,std::allocator<gfxu::VertexUVRGBA> > >
PUBLIC	??0?$allocator@VVertexUVRGBA@gfxu@@@std@@QEAA@XZ ; std::allocator<gfxu::VertexUVRGBA>::allocator<gfxu::VertexUVRGBA>
PUBLIC	?_Orphan_range@?$vector@VVertexUVRGBA@gfxu@@V?$allocator@VVertexUVRGBA@gfxu@@@std@@@std@@IEBAXPEAVVertexUVRGBA@gfxu@@0@Z ; std::vector<gfxu::VertexUVRGBA,std::allocator<gfxu::VertexUVRGBA> >::_Orphan_range
PUBLIC	?_Xlen@?$vector@VVertexUVRGBA@gfxu@@V?$allocator@VVertexUVRGBA@gfxu@@@std@@@std@@IEBAXXZ ; std::vector<gfxu::VertexUVRGBA,std::allocator<gfxu::VertexUVRGBA> >::_Xlen
PUBLIC	?_Tidy@?$vector@VVertexUVRGBA@gfxu@@V?$allocator@VVertexUVRGBA@gfxu@@@std@@@std@@IEAAXXZ ; std::vector<gfxu::VertexUVRGBA,std::allocator<gfxu::VertexUVRGBA> >::_Tidy
PUBLIC	?_Reserve@?$vector@VVertexUVRGBA@gfxu@@V?$allocator@VVertexUVRGBA@gfxu@@@std@@@std@@IEAAX_K@Z ; std::vector<gfxu::VertexUVRGBA,std::allocator<gfxu::VertexUVRGBA> >::_Reserve
PUBLIC	?_Reallocate@?$vector@VVertexUVRGBA@gfxu@@V?$allocator@VVertexUVRGBA@gfxu@@@std@@@std@@IEAAX_K@Z ; std::vector<gfxu::VertexUVRGBA,std::allocator<gfxu::VertexUVRGBA> >::_Reallocate
PUBLIC	?_Inside@?$vector@VVertexUVRGBA@gfxu@@V?$allocator@VVertexUVRGBA@gfxu@@@std@@@std@@IEBA_NPEBVVertexUVRGBA@gfxu@@@Z ; std::vector<gfxu::VertexUVRGBA,std::allocator<gfxu::VertexUVRGBA> >::_Inside
PUBLIC	?_Destroy@?$vector@VVertexUVRGBA@gfxu@@V?$allocator@VVertexUVRGBA@gfxu@@@std@@@std@@IEAAXPEAVVertexUVRGBA@gfxu@@0@Z ; std::vector<gfxu::VertexUVRGBA,std::allocator<gfxu::VertexUVRGBA> >::_Destroy
PUBLIC	?empty@?$vector@VVertexUVRGBA@gfxu@@V?$allocator@VVertexUVRGBA@gfxu@@@std@@@std@@QEBA_NXZ ; std::vector<gfxu::VertexUVRGBA,std::allocator<gfxu::VertexUVRGBA> >::empty
PUBLIC	?max_size@?$vector@VVertexUVRGBA@gfxu@@V?$allocator@VVertexUVRGBA@gfxu@@@std@@@std@@QEBA_KXZ ; std::vector<gfxu::VertexUVRGBA,std::allocator<gfxu::VertexUVRGBA> >::max_size
PUBLIC	?_Has_unused_capacity@?$vector@VVertexUVRGBA@gfxu@@V?$allocator@VVertexUVRGBA@gfxu@@@std@@@std@@QEBA_KXZ ; std::vector<gfxu::VertexUVRGBA,std::allocator<gfxu::VertexUVRGBA> >::_Has_unused_capacity
PUBLIC	?capacity@?$vector@VVertexUVRGBA@gfxu@@V?$allocator@VVertexUVRGBA@gfxu@@@std@@@std@@QEBA_KXZ ; std::vector<gfxu::VertexUVRGBA,std::allocator<gfxu::VertexUVRGBA> >::capacity
PUBLIC	??1?$_Tree_alloc@$0A@U?$_Tree_base_types@U?$pair@$$CBV?$basic_string@_WU?$char_traits@_W@std@@V?$allocator@_W@2@@std@@PEAVIcon@TiledTexture@gfxu@@@std@@V?$allocator@U?$pair@$$CBV?$basic_string@_WU?$char_traits@_W@std@@V?$allocator@_W@2@@std@@PEAVIcon@TiledTexture@gfxu@@@std@@@2@@std@@@std@@QEAA@XZ ; std::_Tree_alloc<0,std::_Tree_base_types<std::pair<std::basic_string<wchar_t,std::char_traits<wchar_t>,std::allocator<wchar_t> > const ,gfxu::TiledTexture::Icon * __ptr64>,std::allocator<std::pair<std::basic_string<wchar_t,std::char_traits<wchar_t>,std::allocator<wchar_t> > const ,gfxu::TiledTexture::Icon * __ptr64> > > >::~_Tree_alloc<0,std::_Tree_base_types<std::pair<std::basic_string<wchar_t,std::char_traits<wchar_t>,std::allocator<wchar_t> > const ,gfxu::TiledTexture::Icon * __ptr64>,std::allocator<std::pair<std::basic_string<wchar_t,std::char_traits<wchar_t>,std::allocator<wchar_t> > const ,gfxu::TiledTexture::Icon * __ptr64> > > >
PUBLIC	??0?$allocator@U?$pair@$$CBV?$basic_string@_WU?$char_traits@_W@std@@V?$allocator@_W@2@@std@@PEAVIcon@TiledTexture@gfxu@@@std@@@std@@QEAA@XZ ; std::allocator<std::pair<std::basic_string<wchar_t,std::char_traits<wchar_t>,std::allocator<wchar_t> > const ,gfxu::TiledTexture::Icon * __ptr64> >::allocator<std::pair<std::basic_string<wchar_t,std::char_traits<wchar_t>,std::allocator<wchar_t> > const ,gfxu::TiledTexture::Icon * __ptr64> >
PUBLIC	?_Getcomp@?$_Tree_comp@$0A@V?$_Tmap_traits@V?$basic_string@_WU?$char_traits@_W@std@@V?$allocator@_W@2@@std@@PEAVIcon@TiledTexture@gfxu@@U?$less@V?$basic_string@_WU?$char_traits@_W@std@@V?$allocator@_W@2@@std@@@2@V?$allocator@U?$pair@$$CBV?$basic_string@_WU?$char_traits@_W@std@@V?$allocator@_W@2@@std@@PEAVIcon@TiledTexture@gfxu@@@std@@@2@$0A@@std@@@std@@QEBA?AU?$less@V?$basic_string@_WU?$char_traits@_W@std@@V?$allocator@_W@2@@std@@@2@XZ ; std::_Tree_comp<0,std::_Tmap_traits<std::basic_string<wchar_t,std::char_traits<wchar_t>,std::allocator<wchar_t> >,gfxu::TiledTexture::Icon * __ptr64,std::less<std::basic_string<wchar_t,std::char_traits<wchar_t>,std::allocator<wchar_t> > >,std::allocator<std::pair<std::basic_string<wchar_t,std::char_traits<wchar_t>,std::allocator<wchar_t> > const ,gfxu::TiledTexture::Icon * __ptr64> >,0> >::_Getcomp
PUBLIC	??R?$less@V?$basic_string@_WU?$char_traits@_W@std@@V?$allocator@_W@2@@std@@@std@@QEBA_NAEBV?$basic_string@_WU?$char_traits@_W@std@@V?$allocator@_W@2@@1@0@Z ; std::less<std::basic_string<wchar_t,std::char_traits<wchar_t>,std::allocator<wchar_t> > >::operator()
PUBLIC	?_Key@?$_Tree@V?$_Tmap_traits@V?$basic_string@_WU?$char_traits@_W@std@@V?$allocator@_W@2@@std@@PEAVIcon@TiledTexture@gfxu@@U?$less@V?$basic_string@_WU?$char_traits@_W@std@@V?$allocator@_W@2@@std@@@2@V?$allocator@U?$pair@$$CBV?$basic_string@_WU?$char_traits@_W@std@@V?$allocator@_W@2@@std@@PEAVIcon@TiledTexture@gfxu@@@std@@@2@$0A@@std@@@std@@IEBAAEBV?$basic_string@_WU?$char_traits@_W@std@@V?$allocator@_W@2@@2@PEAU?$_Tree_node@U?$pair@$$CBV?$basic_string@_WU?$char_traits@_W@std@@V?$allocator@_W@2@@std@@PEAVIcon@TiledTexture@gfxu@@@std@@PEAX@2@@Z ; std::_Tree<std::_Tmap_traits<std::basic_string<wchar_t,std::char_traits<wchar_t>,std::allocator<wchar_t> >,gfxu::TiledTexture::Icon * __ptr64,std::less<std::basic_string<wchar_t,std::char_traits<wchar_t>,std::allocator<wchar_t> > >,std::allocator<std::pair<std::basic_string<wchar_t,std::char_traits<wchar_t>,std::allocator<wchar_t> > const ,gfxu::TiledTexture::Icon * __ptr64> >,0> >::_Key
PUBLIC	?_Tidy@?$_Tree@V?$_Tmap_traits@V?$basic_string@_WU?$char_traits@_W@std@@V?$allocator@_W@2@@std@@PEAVIcon@TiledTexture@gfxu@@U?$less@V?$basic_string@_WU?$char_traits@_W@std@@V?$allocator@_W@2@@std@@@2@V?$allocator@U?$pair@$$CBV?$basic_string@_WU?$char_traits@_W@std@@V?$allocator@_W@2@@std@@PEAVIcon@TiledTexture@gfxu@@@std@@@2@$0A@@std@@@std@@IEAAXXZ ; std::_Tree<std::_Tmap_traits<std::basic_string<wchar_t,std::char_traits<wchar_t>,std::allocator<wchar_t> >,gfxu::TiledTexture::Icon * __ptr64,std::less<std::basic_string<wchar_t,std::char_traits<wchar_t>,std::allocator<wchar_t> > >,std::allocator<std::pair<std::basic_string<wchar_t,std::char_traits<wchar_t>,std::allocator<wchar_t> > const ,gfxu::TiledTexture::Icon * __ptr64> >,0> >::_Tidy
PUBLIC	?_Lmost@?$_Tree@V?$_Tmap_traits@V?$basic_string@_WU?$char_traits@_W@std@@V?$allocator@_W@2@@std@@PEAVIcon@TiledTexture@gfxu@@U?$less@V?$basic_string@_WU?$char_traits@_W@std@@V?$allocator@_W@2@@std@@@2@V?$allocator@U?$pair@$$CBV?$basic_string@_WU?$char_traits@_W@std@@V?$allocator@_W@2@@std@@PEAVIcon@TiledTexture@gfxu@@@std@@@2@$0A@@std@@@std@@IEBAAEAPEAU?$_Tree_node@U?$pair@$$CBV?$basic_string@_WU?$char_traits@_W@std@@V?$allocator@_W@2@@std@@PEAVIcon@TiledTexture@gfxu@@@std@@PEAX@2@XZ ; std::_Tree<std::_Tmap_traits<std::basic_string<wchar_t,std::char_traits<wchar_t>,std::allocator<wchar_t> >,gfxu::TiledTexture::Icon * __ptr64,std::less<std::basic_string<wchar_t,std::char_traits<wchar_t>,std::allocator<wchar_t> > >,std::allocator<std::pair<std::basic_string<wchar_t,std::char_traits<wchar_t>,std::allocator<wchar_t> > const ,gfxu::TiledTexture::Icon * __ptr64> >,0> >::_Lmost
PUBLIC	?lower_bound@?$_Tree@V?$_Tmap_traits@V?$basic_string@_WU?$char_traits@_W@std@@V?$allocator@_W@2@@std@@PEAVIcon@TiledTexture@gfxu@@U?$less@V?$basic_string@_WU?$char_traits@_W@std@@V?$allocator@_W@2@@std@@@2@V?$allocator@U?$pair@$$CBV?$basic_string@_WU?$char_traits@_W@std@@V?$allocator@_W@2@@std@@PEAVIcon@TiledTexture@gfxu@@@std@@@2@$0A@@std@@@std@@QEAA?AV?$_Tree_iterator@V?$_Tree_val@U?$_Tree_simple_types@U?$pair@$$CBV?$basic_string@_WU?$char_traits@_W@std@@V?$allocator@_W@2@@std@@PEAVIcon@TiledTexture@gfxu@@@std@@@std@@@std@@@2@AEBV?$basic_string@_WU?$char_traits@_W@std@@V?$allocator@_W@2@@2@@Z ; std::_Tree<std::_Tmap_traits<std::basic_string<wchar_t,std::char_traits<wchar_t>,std::allocator<wchar_t> >,gfxu::TiledTexture::Icon * __ptr64,std::less<std::basic_string<wchar_t,std::char_traits<wchar_t>,std::allocator<wchar_t> > >,std::allocator<std::pair<std::basic_string<wchar_t,std::char_traits<wchar_t>,std::allocator<wchar_t> > const ,gfxu::TiledTexture::Icon * __ptr64> >,0> >::lower_bound
PUBLIC	??0?$_Tree@V?$_Tmap_traits@V?$basic_string@_WU?$char_traits@_W@std@@V?$allocator@_W@2@@std@@PEAVIcon@TiledTexture@gfxu@@U?$less@V?$basic_string@_WU?$char_traits@_W@std@@V?$allocator@_W@2@@std@@@2@V?$allocator@U?$pair@$$CBV?$basic_string@_WU?$char_traits@_W@std@@V?$allocator@_W@2@@std@@PEAVIcon@TiledTexture@gfxu@@@std@@@2@$0A@@std@@@std@@QEAA@AEBU?$less@V?$basic_string@_WU?$char_traits@_W@std@@V?$allocator@_W@2@@std@@@1@AEBV?$allocator@U?$pair@$$CBV?$basic_string@_WU?$char_traits@_W@std@@V?$allocator@_W@2@@std@@PEAVIcon@TiledTexture@gfxu@@@std@@@1@@Z ; std::_Tree<std::_Tmap_traits<std::basic_string<wchar_t,std::char_traits<wchar_t>,std::allocator<wchar_t> >,gfxu::TiledTexture::Icon * __ptr64,std::less<std::basic_string<wchar_t,std::char_traits<wchar_t>,std::allocator<wchar_t> > >,std::allocator<std::pair<std::basic_string<wchar_t,std::char_traits<wchar_t>,std::allocator<wchar_t> > const ,gfxu::TiledTexture::Icon * __ptr64> >,0> >::_Tree<std::_Tmap_traits<std::basic_string<wchar_t,std::char_traits<wchar_t>,std::allocator<wchar_t> >,gfxu::TiledTexture::Icon * __ptr64,std::less<std::basic_string<wchar_t,std::char_traits<wchar_t>,std::allocator<wchar_t> > >,std::allocator<std::pair<std::basic_string<wchar_t,std::char_traits<wchar_t>,std::allocator<wchar_t> > const ,gfxu::TiledTexture::Icon * __ptr64> >,0> >
PUBLIC	??1?$_Tree_buy@U?$pair@$$CBV?$basic_string@_WU?$char_traits@_W@std@@V?$allocator@_W@2@@std@@PEAVIcon@TiledTexture@gfxu@@@std@@V?$allocator@U?$pair@$$CBV?$basic_string@_WU?$char_traits@_W@std@@V?$allocator@_W@2@@std@@PEAVIcon@TiledTexture@gfxu@@@std@@@2@@std@@QEAA@XZ ; std::_Tree_buy<std::pair<std::basic_string<wchar_t,std::char_traits<wchar_t>,std::allocator<wchar_t> > const ,gfxu::TiledTexture::Icon * __ptr64>,std::allocator<std::pair<std::basic_string<wchar_t,std::char_traits<wchar_t>,std::allocator<wchar_t> > const ,gfxu::TiledTexture::Icon * __ptr64> > >::~_Tree_buy<std::pair<std::basic_string<wchar_t,std::char_traits<wchar_t>,std::allocator<wchar_t> > const ,gfxu::TiledTexture::Icon * __ptr64>,std::allocator<std::pair<std::basic_string<wchar_t,std::char_traits<wchar_t>,std::allocator<wchar_t> > const ,gfxu::TiledTexture::Icon * __ptr64> > >
PUBLIC	??1?$_Tree_comp@$0A@V?$_Tmap_traits@V?$basic_string@_WU?$char_traits@_W@std@@V?$allocator@_W@2@@std@@PEAVIcon@TiledTexture@gfxu@@U?$less@V?$basic_string@_WU?$char_traits@_W@std@@V?$allocator@_W@2@@std@@@2@V?$allocator@U?$pair@$$CBV?$basic_string@_WU?$char_traits@_W@std@@V?$allocator@_W@2@@std@@PEAVIcon@TiledTexture@gfxu@@@std@@@2@$0A@@std@@@std@@QEAA@XZ ; std::_Tree_comp<0,std::_Tmap_traits<std::basic_string<wchar_t,std::char_traits<wchar_t>,std::allocator<wchar_t> >,gfxu::TiledTexture::Icon * __ptr64,std::less<std::basic_string<wchar_t,std::char_traits<wchar_t>,std::allocator<wchar_t> > >,std::allocator<std::pair<std::basic_string<wchar_t,std::char_traits<wchar_t>,std::allocator<wchar_t> > const ,gfxu::TiledTexture::Icon * __ptr64> >,0> >::~_Tree_comp<0,std::_Tmap_traits<std::basic_string<wchar_t,std::char_traits<wchar_t>,std::allocator<wchar_t> >,gfxu::TiledTexture::Icon * __ptr64,std::less<std::basic_string<wchar_t,std::char_traits<wchar_t>,std::allocator<wchar_t> > >,std::allocator<std::pair<std::basic_string<wchar_t,std::char_traits<wchar_t>,std::allocator<wchar_t> > const ,gfxu::TiledTexture::Icon * __ptr64> >,0> >
PUBLIC	??1?$pair@V?$basic_string@_WU?$char_traits@_W@std@@V?$allocator@_W@2@@std@@PEAVIcon@TiledTexture@gfxu@@@std@@QEAA@XZ ; std::pair<std::basic_string<wchar_t,std::char_traits<wchar_t>,std::allocator<wchar_t> >,gfxu::TiledTexture::Icon * __ptr64>::~pair<std::basic_string<wchar_t,std::char_traits<wchar_t>,std::allocator<wchar_t> >,gfxu::TiledTexture::Icon * __ptr64>
PUBLIC	??9?$_Vector_const_iterator@V?$_Vector_val@U?$_Simple_types@PEAVIcon@TiledTexture@gfxu@@@std@@@std@@@std@@QEBA_NAEBV01@@Z ; std::_Vector_const_iterator<std::_Vector_val<std::_Simple_types<gfxu::TiledTexture::Icon * __ptr64> > >::operator!=
PUBLIC	??E?$_Vector_iterator@V?$_Vector_val@U?$_Simple_types@PEAVIcon@TiledTexture@gfxu@@@std@@@std@@@std@@QEAAAEAV01@XZ ; std::_Vector_iterator<std::_Vector_val<std::_Simple_types<gfxu::TiledTexture::Icon * __ptr64> > >::operator++
PUBLIC	??D?$_Vector_iterator@V?$_Vector_val@U?$_Simple_types@PEAVIcon@TiledTexture@gfxu@@@std@@@std@@@std@@QEBAAEAPEAVIcon@TiledTexture@gfxu@@XZ ; std::_Vector_iterator<std::_Vector_val<std::_Simple_types<gfxu::TiledTexture::Icon * __ptr64> > >::operator*
PUBLIC	?push_back@?$vector@PEAVIcon@TiledTexture@gfxu@@V?$allocator@PEAVIcon@TiledTexture@gfxu@@@std@@@std@@QEAAXAEBQEAVIcon@TiledTexture@gfxu@@@Z ; std::vector<gfxu::TiledTexture::Icon * __ptr64,std::allocator<gfxu::TiledTexture::Icon * __ptr64> >::push_back
PUBLIC	?end@?$vector@PEAVIcon@TiledTexture@gfxu@@V?$allocator@PEAVIcon@TiledTexture@gfxu@@@std@@@std@@QEAA?AV?$_Vector_iterator@V?$_Vector_val@U?$_Simple_types@PEAVIcon@TiledTexture@gfxu@@@std@@@std@@@2@XZ ; std::vector<gfxu::TiledTexture::Icon * __ptr64,std::allocator<gfxu::TiledTexture::Icon * __ptr64> >::end
PUBLIC	?begin@?$vector@PEAVIcon@TiledTexture@gfxu@@V?$allocator@PEAVIcon@TiledTexture@gfxu@@@std@@@std@@QEAA?AV?$_Vector_iterator@V?$_Vector_val@U?$_Simple_types@PEAVIcon@TiledTexture@gfxu@@@std@@@std@@@2@XZ ; std::vector<gfxu::TiledTexture::Icon * __ptr64,std::allocator<gfxu::TiledTexture::Icon * __ptr64> >::begin
PUBLIC	??1?$vector@PEAVIcon@TiledTexture@gfxu@@V?$allocator@PEAVIcon@TiledTexture@gfxu@@@std@@@std@@QEAA@XZ ; std::vector<gfxu::TiledTexture::Icon * __ptr64,std::allocator<gfxu::TiledTexture::Icon * __ptr64> >::~vector<gfxu::TiledTexture::Icon * __ptr64,std::allocator<gfxu::TiledTexture::Icon * __ptr64> >
PUBLIC	??0?$vector@PEAVIcon@TiledTexture@gfxu@@V?$allocator@PEAVIcon@TiledTexture@gfxu@@@std@@@std@@QEAA@XZ ; std::vector<gfxu::TiledTexture::Icon * __ptr64,std::allocator<gfxu::TiledTexture::Icon * __ptr64> >::vector<gfxu::TiledTexture::Icon * __ptr64,std::allocator<gfxu::TiledTexture::Icon * __ptr64> >
PUBLIC	??9?$_Tree_const_iterator@V?$_Tree_val@U?$_Tree_simple_types@U?$pair@$$CBV?$basic_string@_WU?$char_traits@_W@std@@V?$allocator@_W@2@@std@@PEAVIcon@TiledTexture@gfxu@@@std@@@std@@@std@@@std@@QEBA_NAEBV01@@Z ; std::_Tree_const_iterator<std::_Tree_val<std::_Tree_simple_types<std::pair<std::basic_string<wchar_t,std::char_traits<wchar_t>,std::allocator<wchar_t> > const ,gfxu::TiledTexture::Icon * __ptr64> > > >::operator!=
PUBLIC	??8?$_Tree_const_iterator@V?$_Tree_val@U?$_Tree_simple_types@U?$pair@$$CBV?$basic_string@_WU?$char_traits@_W@std@@V?$allocator@_W@2@@std@@PEAVIcon@TiledTexture@gfxu@@@std@@@std@@@std@@@std@@QEBA_NAEBV01@@Z ; std::_Tree_const_iterator<std::_Tree_val<std::_Tree_simple_types<std::pair<std::basic_string<wchar_t,std::char_traits<wchar_t>,std::allocator<wchar_t> > const ,gfxu::TiledTexture::Icon * __ptr64> > > >::operator==
PUBLIC	??E?$_Tree_iterator@V?$_Tree_val@U?$_Tree_simple_types@U?$pair@$$CBV?$basic_string@_WU?$char_traits@_W@std@@V?$allocator@_W@2@@std@@PEAVIcon@TiledTexture@gfxu@@@std@@@std@@@std@@@std@@QEAAAEAV01@XZ ; std::_Tree_iterator<std::_Tree_val<std::_Tree_simple_types<std::pair<std::basic_string<wchar_t,std::char_traits<wchar_t>,std::allocator<wchar_t> > const ,gfxu::TiledTexture::Icon * __ptr64> > > >::operator++
PUBLIC	??C?$_Tree_iterator@V?$_Tree_val@U?$_Tree_simple_types@U?$pair@$$CBV?$basic_string@_WU?$char_traits@_W@std@@V?$allocator@_W@2@@std@@PEAVIcon@TiledTexture@gfxu@@@std@@@std@@@std@@@std@@QEBAPEAU?$pair@$$CBV?$basic_string@_WU?$char_traits@_W@std@@V?$allocator@_W@2@@std@@PEAVIcon@TiledTexture@gfxu@@@1@XZ ; std::_Tree_iterator<std::_Tree_val<std::_Tree_simple_types<std::pair<std::basic_string<wchar_t,std::char_traits<wchar_t>,std::allocator<wchar_t> > const ,gfxu::TiledTexture::Icon * __ptr64> > > >::operator->
PUBLIC	?get@?$Uniform@M@gfxu@@QEAAMXZ			; gfxu::Uniform<float>::get
PUBLIC	??0?$Uniform@M@gfxu@@QEAA@XZ			; gfxu::Uniform<float>::Uniform<float>
PUBLIC	?get@?$Uniform@VVector@geom@@@gfxu@@QEAA?AVVector@geom@@XZ ; gfxu::Uniform<geom::Vector>::get
PUBLIC	??0?$Uniform@VVector@geom@@@gfxu@@QEAA@XZ	; gfxu::Uniform<geom::Vector>::Uniform<geom::Vector>
PUBLIC	??1?$deque@VMatrix@geom@@V?$allocator@VMatrix@geom@@@std@@@std@@QEAA@XZ ; std::deque<geom::Matrix,std::allocator<geom::Matrix> >::~deque<geom::Matrix,std::allocator<geom::Matrix> >
PUBLIC	?pop@?$stack@VMatrix@geom@@V?$deque@VMatrix@geom@@V?$allocator@VMatrix@geom@@@std@@@std@@@std@@QEAAXXZ ; std::stack<geom::Matrix,std::deque<geom::Matrix,std::allocator<geom::Matrix> > >::pop
PUBLIC	?push@?$stack@VMatrix@geom@@V?$deque@VMatrix@geom@@V?$allocator@VMatrix@geom@@@std@@@std@@@std@@QEAAXAEBVMatrix@geom@@@Z ; std::stack<geom::Matrix,std::deque<geom::Matrix,std::allocator<geom::Matrix> > >::push
PUBLIC	?top@?$stack@VMatrix@geom@@V?$deque@VMatrix@geom@@V?$allocator@VMatrix@geom@@@std@@@std@@@std@@QEAAAEAVMatrix@geom@@XZ ; std::stack<geom::Matrix,std::deque<geom::Matrix,std::allocator<geom::Matrix> > >::top
PUBLIC	?empty@?$stack@VMatrix@geom@@V?$deque@VMatrix@geom@@V?$allocator@VMatrix@geom@@@std@@@std@@@std@@QEBA_NXZ ; std::stack<geom::Matrix,std::deque<geom::Matrix,std::allocator<geom::Matrix> > >::empty
PUBLIC	?push@?$stack@VMatrix@geom@@V?$deque@VMatrix@geom@@V?$allocator@VMatrix@geom@@@std@@@std@@@std@@QEAAX$$QEAVMatrix@geom@@@Z ; std::stack<geom::Matrix,std::deque<geom::Matrix,std::allocator<geom::Matrix> > >::push
PUBLIC	??0?$stack@VMatrix@geom@@V?$deque@VMatrix@geom@@V?$allocator@VMatrix@geom@@@std@@@std@@@std@@QEAA@AEBV01@@Z ; std::stack<geom::Matrix,std::deque<geom::Matrix,std::allocator<geom::Matrix> > >::stack<geom::Matrix,std::deque<geom::Matrix,std::allocator<geom::Matrix> > >
PUBLIC	??0?$stack@VMatrix@geom@@V?$deque@VMatrix@geom@@V?$allocator@VMatrix@geom@@@std@@@std@@@std@@QEAA@XZ ; std::stack<geom::Matrix,std::deque<geom::Matrix,std::allocator<geom::Matrix> > >::stack<geom::Matrix,std::deque<geom::Matrix,std::allocator<geom::Matrix> > >
PUBLIC	?push_back@?$vector@VVertexUVRGBA@gfxu@@V?$allocator@VVertexUVRGBA@gfxu@@@std@@@std@@QEAAXAEBVVertexUVRGBA@gfxu@@@Z ; std::vector<gfxu::VertexUVRGBA,std::allocator<gfxu::VertexUVRGBA> >::push_back
PUBLIC	??A?$vector@VVertexUVRGBA@gfxu@@V?$allocator@VVertexUVRGBA@gfxu@@@std@@@std@@QEAAAEAVVertexUVRGBA@gfxu@@_K@Z ; std::vector<gfxu::VertexUVRGBA,std::allocator<gfxu::VertexUVRGBA> >::operator[]
PUBLIC	?size@?$vector@VVertexUVRGBA@gfxu@@V?$allocator@VVertexUVRGBA@gfxu@@@std@@@std@@QEBA_KXZ ; std::vector<gfxu::VertexUVRGBA,std::allocator<gfxu::VertexUVRGBA> >::size
PUBLIC	?shrink_to_fit@?$vector@VVertexUVRGBA@gfxu@@V?$allocator@VVertexUVRGBA@gfxu@@@std@@@std@@QEAAXXZ ; std::vector<gfxu::VertexUVRGBA,std::allocator<gfxu::VertexUVRGBA> >::shrink_to_fit
PUBLIC	?reserve@?$vector@VVertexUVRGBA@gfxu@@V?$allocator@VVertexUVRGBA@gfxu@@@std@@@std@@QEAAX_K@Z ; std::vector<gfxu::VertexUVRGBA,std::allocator<gfxu::VertexUVRGBA> >::reserve
PUBLIC	??1?$vector@VVertexUVRGBA@gfxu@@V?$allocator@VVertexUVRGBA@gfxu@@@std@@@std@@QEAA@XZ ; std::vector<gfxu::VertexUVRGBA,std::allocator<gfxu::VertexUVRGBA> >::~vector<gfxu::VertexUVRGBA,std::allocator<gfxu::VertexUVRGBA> >
PUBLIC	??0?$vector@VVertexUVRGBA@gfxu@@V?$allocator@VVertexUVRGBA@gfxu@@@std@@@std@@QEAA@XZ ; std::vector<gfxu::VertexUVRGBA,std::allocator<gfxu::VertexUVRGBA> >::vector<gfxu::VertexUVRGBA,std::allocator<gfxu::VertexUVRGBA> >
PUBLIC	?find@?$_Tree@V?$_Tmap_traits@V?$basic_string@_WU?$char_traits@_W@std@@V?$allocator@_W@2@@std@@PEAVIcon@TiledTexture@gfxu@@U?$less@V?$basic_string@_WU?$char_traits@_W@std@@V?$allocator@_W@2@@std@@@2@V?$allocator@U?$pair@$$CBV?$basic_string@_WU?$char_traits@_W@std@@V?$allocator@_W@2@@std@@PEAVIcon@TiledTexture@gfxu@@@std@@@2@$0A@@std@@@std@@QEAA?AV?$_Tree_iterator@V?$_Tree_val@U?$_Tree_simple_types@U?$pair@$$CBV?$basic_string@_WU?$char_traits@_W@std@@V?$allocator@_W@2@@std@@PEAVIcon@TiledTexture@gfxu@@@std@@@std@@@std@@@2@AEBV?$basic_string@_WU?$char_traits@_W@std@@V?$allocator@_W@2@@2@@Z ; std::_Tree<std::_Tmap_traits<std::basic_string<wchar_t,std::char_traits<wchar_t>,std::allocator<wchar_t> >,gfxu::TiledTexture::Icon * __ptr64,std::less<std::basic_string<wchar_t,std::char_traits<wchar_t>,std::allocator<wchar_t> > >,std::allocator<std::pair<std::basic_string<wchar_t,std::char_traits<wchar_t>,std::allocator<wchar_t> > const ,gfxu::TiledTexture::Icon * __ptr64> >,0> >::find
PUBLIC	?end@?$_Tree@V?$_Tmap_traits@V?$basic_string@_WU?$char_traits@_W@std@@V?$allocator@_W@2@@std@@PEAVIcon@TiledTexture@gfxu@@U?$less@V?$basic_string@_WU?$char_traits@_W@std@@V?$allocator@_W@2@@std@@@2@V?$allocator@U?$pair@$$CBV?$basic_string@_WU?$char_traits@_W@std@@V?$allocator@_W@2@@std@@PEAVIcon@TiledTexture@gfxu@@@std@@@2@$0A@@std@@@std@@QEAA?AV?$_Tree_iterator@V?$_Tree_val@U?$_Tree_simple_types@U?$pair@$$CBV?$basic_string@_WU?$char_traits@_W@std@@V?$allocator@_W@2@@std@@PEAVIcon@TiledTexture@gfxu@@@std@@@std@@@std@@@2@XZ ; std::_Tree<std::_Tmap_traits<std::basic_string<wchar_t,std::char_traits<wchar_t>,std::allocator<wchar_t> >,gfxu::TiledTexture::Icon * __ptr64,std::less<std::basic_string<wchar_t,std::char_traits<wchar_t>,std::allocator<wchar_t> > >,std::allocator<std::pair<std::basic_string<wchar_t,std::char_traits<wchar_t>,std::allocator<wchar_t> > const ,gfxu::TiledTexture::Icon * __ptr64> >,0> >::end
PUBLIC	?begin@?$_Tree@V?$_Tmap_traits@V?$basic_string@_WU?$char_traits@_W@std@@V?$allocator@_W@2@@std@@PEAVIcon@TiledTexture@gfxu@@U?$less@V?$basic_string@_WU?$char_traits@_W@std@@V?$allocator@_W@2@@std@@@2@V?$allocator@U?$pair@$$CBV?$basic_string@_WU?$char_traits@_W@std@@V?$allocator@_W@2@@std@@PEAVIcon@TiledTexture@gfxu@@@std@@@2@$0A@@std@@@std@@QEAA?AV?$_Tree_iterator@V?$_Tree_val@U?$_Tree_simple_types@U?$pair@$$CBV?$basic_string@_WU?$char_traits@_W@std@@V?$allocator@_W@2@@std@@PEAVIcon@TiledTexture@gfxu@@@std@@@std@@@std@@@2@XZ ; std::_Tree<std::_Tmap_traits<std::basic_string<wchar_t,std::char_traits<wchar_t>,std::allocator<wchar_t> >,gfxu::TiledTexture::Icon * __ptr64,std::less<std::basic_string<wchar_t,std::char_traits<wchar_t>,std::allocator<wchar_t> > >,std::allocator<std::pair<std::basic_string<wchar_t,std::char_traits<wchar_t>,std::allocator<wchar_t> > const ,gfxu::TiledTexture::Icon * __ptr64> >,0> >::begin
PUBLIC	??1?$_Tree@V?$_Tmap_traits@V?$basic_string@_WU?$char_traits@_W@std@@V?$allocator@_W@2@@std@@PEAVIcon@TiledTexture@gfxu@@U?$less@V?$basic_string@_WU?$char_traits@_W@std@@V?$allocator@_W@2@@std@@@2@V?$allocator@U?$pair@$$CBV?$basic_string@_WU?$char_traits@_W@std@@V?$allocator@_W@2@@std@@PEAVIcon@TiledTexture@gfxu@@@std@@@2@$0A@@std@@@std@@QEAA@XZ ; std::_Tree<std::_Tmap_traits<std::basic_string<wchar_t,std::char_traits<wchar_t>,std::allocator<wchar_t> >,gfxu::TiledTexture::Icon * __ptr64,std::less<std::basic_string<wchar_t,std::char_traits<wchar_t>,std::allocator<wchar_t> > >,std::allocator<std::pair<std::basic_string<wchar_t,std::char_traits<wchar_t>,std::allocator<wchar_t> > const ,gfxu::TiledTexture::Icon * __ptr64> >,0> >::~_Tree<std::_Tmap_traits<std::basic_string<wchar_t,std::char_traits<wchar_t>,std::allocator<wchar_t> >,gfxu::TiledTexture::Icon * __ptr64,std::less<std::basic_string<wchar_t,std::char_traits<wchar_t>,std::allocator<wchar_t> > >,std::allocator<std::pair<std::basic_string<wchar_t,std::char_traits<wchar_t>,std::allocator<wchar_t> > const ,gfxu::TiledTexture::Icon * __ptr64> >,0> >
PUBLIC	??A?$map@V?$basic_string@_WU?$char_traits@_W@std@@V?$allocator@_W@2@@std@@PEAVIcon@TiledTexture@gfxu@@U?$less@V?$basic_string@_WU?$char_traits@_W@std@@V?$allocator@_W@2@@std@@@2@V?$allocator@U?$pair@$$CBV?$basic_string@_WU?$char_traits@_W@std@@V?$allocator@_W@2@@std@@PEAVIcon@TiledTexture@gfxu@@@std@@@2@@std@@QEAAAEAPEAVIcon@TiledTexture@gfxu@@AEBV?$basic_string@_WU?$char_traits@_W@std@@V?$allocator@_W@2@@1@@Z ; std::map<std::basic_string<wchar_t,std::char_traits<wchar_t>,std::allocator<wchar_t> >,gfxu::TiledTexture::Icon * __ptr64,std::less<std::basic_string<wchar_t,std::char_traits<wchar_t>,std::allocator<wchar_t> > >,std::allocator<std::pair<std::basic_string<wchar_t,std::char_traits<wchar_t>,std::allocator<wchar_t> > const ,gfxu::TiledTexture::Icon * __ptr64> > >::operator[]
PUBLIC	??0?$map@V?$basic_string@_WU?$char_traits@_W@std@@V?$allocator@_W@2@@std@@PEAVIcon@TiledTexture@gfxu@@U?$less@V?$basic_string@_WU?$char_traits@_W@std@@V?$allocator@_W@2@@std@@@2@V?$allocator@U?$pair@$$CBV?$basic_string@_WU?$char_traits@_W@std@@V?$allocator@_W@2@@std@@PEAVIcon@TiledTexture@gfxu@@@std@@@2@@std@@QEAA@XZ ; std::map<std::basic_string<wchar_t,std::char_traits<wchar_t>,std::allocator<wchar_t> >,gfxu::TiledTexture::Icon * __ptr64,std::less<std::basic_string<wchar_t,std::char_traits<wchar_t>,std::allocator<wchar_t> > >,std::allocator<std::pair<std::basic_string<wchar_t,std::char_traits<wchar_t>,std::allocator<wchar_t> > const ,gfxu::TiledTexture::Icon * __ptr64> > >::map<std::basic_string<wchar_t,std::char_traits<wchar_t>,std::allocator<wchar_t> >,gfxu::TiledTexture::Icon * __ptr64,std::less<std::basic_string<wchar_t,std::char_traits<wchar_t>,std::allocator<wchar_t> > >,std::allocator<std::pair<std::basic_string<wchar_t,std::char_traits<wchar_t>,std::allocator<wchar_t> > const ,gfxu::TiledTexture::Icon * __ptr64> > >
PUBLIC	?length@?$basic_string@DU?$char_traits@D@std@@V?$allocator@D@2@@std@@QEBA_KXZ ; std::basic_string<char,std::char_traits<char>,std::allocator<char> >::length
PUBLIC	?v@Icon@TiledTexture@gfxu@@QEAAMM@Z		; gfxu::TiledTexture::Icon::v
PUBLIC	?u@Icon@TiledTexture@gfxu@@QEAAMM@Z		; gfxu::TiledTexture::Icon::u
PUBLIC	??0Icon@TiledTexture@gfxu@@QEAA@PEAV12@V?$basic_string@_WU?$char_traits@_W@std@@V?$allocator@_W@2@@std@@@Z ; gfxu::TiledTexture::Icon::Icon
PUBLIC	?coord_decode@@YAII@Z				; coord_decode
PUBLIC	?compareIcon@@YA_NPEBVIcon@TiledTexture@gfxu@@0@Z ; compareIcon
PUBLIC	??1?$map@V?$basic_string@_WU?$char_traits@_W@std@@V?$allocator@_W@2@@std@@PEAVIcon@TiledTexture@gfxu@@U?$less@V?$basic_string@_WU?$char_traits@_W@std@@V?$allocator@_W@2@@std@@@2@V?$allocator@U?$pair@$$CBV?$basic_string@_WU?$char_traits@_W@std@@V?$allocator@_W@2@@std@@PEAVIcon@TiledTexture@gfxu@@@std@@@2@@std@@QEAA@XZ ; std::map<std::basic_string<wchar_t,std::char_traits<wchar_t>,std::allocator<wchar_t> >,gfxu::TiledTexture::Icon * __ptr64,std::less<std::basic_string<wchar_t,std::char_traits<wchar_t>,std::allocator<wchar_t> > >,std::allocator<std::pair<std::basic_string<wchar_t,std::char_traits<wchar_t>,std::allocator<wchar_t> > const ,gfxu::TiledTexture::Icon * __ptr64> > >::~map<std::basic_string<wchar_t,std::char_traits<wchar_t>,std::allocator<wchar_t> >,gfxu::TiledTexture::Icon * __ptr64,std::less<std::basic_string<wchar_t,std::char_traits<wchar_t>,std::allocator<wchar_t> > >,std::allocator<std::pair<std::basic_string<wchar_t,std::char_traits<wchar_t>,std::allocator<wchar_t> > const ,gfxu::TiledTexture::Icon * __ptr64> > >
PUBLIC	?upload@Texture2D@gfxu@@QEAA_NXZ		; gfxu::Texture2D::upload
PUBLIC	??1Texture2D@gfxu@@QEAA@XZ			; gfxu::Texture2D::~Texture2D
PUBLIC	??0Texture2D@gfxu@@IEAA@IIIII_N@Z		; gfxu::Texture2D::Texture2D
PUBLIC	??1MatrixStack@gfxu@@QEAA@XZ			; gfxu::MatrixStack::~MatrixStack
PUBLIC	?setForceUpload@Uniforms@gfxu@@SAXXZ		; gfxu::Uniforms::setForceUpload
PUBLIC	?uploadChanges@Uniforms@gfxu@@SAXXZ		; gfxu::Uniforms::uploadChanges
PUBLIC	?clear@MatrixStack@gfxu@@QEAAXXZ		; gfxu::MatrixStack::clear
PUBLIC	?unstack@MatrixStack@gfxu@@AEAA?AVMatrix@geom@@XZ ; gfxu::MatrixStack::unstack
PUBLIC	??1?$stack@VMatrix@geom@@V?$deque@VMatrix@geom@@V?$allocator@VMatrix@geom@@@std@@@std@@@std@@QEAA@XZ ; std::stack<geom::Matrix,std::deque<geom::Matrix,std::allocator<geom::Matrix> > >::~stack<geom::Matrix,std::deque<geom::Matrix,std::allocator<geom::Matrix> > >
PUBLIC	??0MatrixStack@gfxu@@QEAA@XZ			; gfxu::MatrixStack::MatrixStack
PUBLIC	?create@ShaderProgram@gfxu@@AEAA_NXZ		; gfxu::ShaderProgram::create
PUBLIC	?compile@FragmentShader@gfxu@@UEAA_NXZ		; gfxu::FragmentShader::compile
PUBLIC	?compile@GeometryShader@gfxu@@UEAA_NXZ		; gfxu::GeometryShader::compile
PUBLIC	?compile@VertexShader@gfxu@@UEAA_NXZ		; gfxu::VertexShader::compile
PUBLIC	??0Shader@gfxu@@QEAA@V?$basic_string@_WU?$char_traits@_W@std@@V?$allocator@_W@2@@std@@@Z ; gfxu::Shader::Shader
PUBLIC	?_compile@Shader@gfxu@@IEAA_NI@Z		; gfxu::Shader::_compile
PUBLIC	?isUploaded@VertexStream@gfxu@@QEAA_NXZ		; gfxu::VertexStream::isUploaded
PUBLIC	?upload@VertexStream@gfxu@@QEAA_NXZ		; gfxu::VertexStream::upload
PUBLIC	?unlock@VertexStream@gfxu@@QEAAXXZ		; gfxu::VertexStream::unlock
PUBLIC	?lock@VertexStream@gfxu@@QEAAXXZ		; gfxu::VertexStream::lock
PUBLIC	?setUV@VertexStream@gfxu@@QEAAXMM@Z		; gfxu::VertexStream::setUV
PUBLIC	?put@VertexStream@gfxu@@QEAAXMMM@Z		; gfxu::VertexStream::put
PUBLIC	??1VertexStream@gfxu@@UEAA@XZ			; gfxu::VertexStream::~VertexStream
PUBLIC	??_GVertexStream@gfxu@@UEAAPEAXI@Z		; gfxu::VertexStream::`scalar deleting destructor'
PUBLIC	??0VertexUVRGBA@gfxu@@QEAA@AEBV01@@Z		; gfxu::VertexUVRGBA::VertexUVRGBA
PUBLIC	??4_Iterator_base12@std@@QEAAAEAU01@AEBU01@@Z	; std::_Iterator_base12::operator=
PUBLIC	??0_Iterator_base12@std@@QEAA@AEBU01@@Z		; std::_Iterator_base12::_Iterator_base12
PUBLIC	?compare@?$char_traits@_W@std@@SAHPEB_W0_K@Z	; std::char_traits<wchar_t>::compare
PUBLIC	wmemcmp
PUBLIC	?bind@Texture2D@gfxu@@QEAAXXZ			; gfxu::Texture2D::bind
PUBLIC	??1Shader@gfxu@@QEAA@XZ				; gfxu::Shader::~Shader
PUBLIC	?bind@ShaderProgram@gfxu@@QEAAXXZ		; gfxu::ShaderProgram::bind
PUBLIC	??1ShaderProgram@gfxu@@QEAA@XZ			; gfxu::ShaderProgram::~ShaderProgram
PUBLIC	??0ShaderProgram@gfxu@@QEAA@PEAVVertexShader@1@PEAVGeometryShader@1@PEAVFragmentShader@1@@Z ; gfxu::ShaderProgram::ShaderProgram
PUBLIC	??0FragmentShader@gfxu@@QEAA@V?$basic_string@_WU?$char_traits@_W@std@@V?$allocator@_W@2@@std@@@Z ; gfxu::FragmentShader::FragmentShader
PUBLIC	??0VertexShader@gfxu@@QEAA@V?$basic_string@_WU?$char_traits@_W@std@@V?$allocator@_W@2@@std@@@Z ; gfxu::VertexShader::VertexShader
PUBLIC	?getTopmost@MatrixStack@gfxu@@QEAA?BVMatrix@geom@@XZ ; gfxu::MatrixStack::getTopmost
PUBLIC	?pop@MatrixStack@gfxu@@QEAAXXZ			; gfxu::MatrixStack::pop
PUBLIC	?mult@MatrixStack@gfxu@@QEAAXVMatrix@geom@@@Z	; gfxu::MatrixStack::mult
PUBLIC	?push@MatrixStack@gfxu@@QEAAXVMatrix@geom@@@Z	; gfxu::MatrixStack::push
PUBLIC	??0Vertex@gfxu@@QEAA@MMM@Z			; gfxu::Vertex::Vertex
PUBLIC	?draw@VertexStream@gfxu@@QEAAXI@Z		; gfxu::VertexStream::draw
PUBLIC	?put@VertexStream@gfxu@@QEAAXAEBVVertex@2@@Z	; gfxu::VertexStream::put
PUBLIC	??0VertexStream@gfxu@@QEAA@XZ			; gfxu::VertexStream::VertexStream
PUBLIC	??1TiledTexture@gfxu@@QEAA@XZ			; gfxu::TiledTexture::~TiledTexture
PUBLIC	?getError@gfxu@@YA_NPEBD@Z			; gfxu::getError
PUBLIC	?reset@Uniforms@gfxu@@SAXXZ			; gfxu::Uniforms::reset
PUBLIC	?setFogColor@Uniforms@gfxu@@SAXMMMM@Z		; gfxu::Uniforms::setFogColor
PUBLIC	?setColor@Uniforms@gfxu@@SAXMMMM@Z		; gfxu::Uniforms::setColor
PUBLIC	??0VertexUV@gfxu@@QEAA@MMMMM@Z			; gfxu::VertexUV::VertexUV
PUBLIC	??0VertexUVRGBA@gfxu@@QEAA@MMMMMMMMM@Z		; gfxu::VertexUVRGBA::VertexUVRGBA
PUBLIC	?setIcon@VertexStream@gfxu@@QEAAXPEAVIcon@TiledTexture@2@@Z ; gfxu::VertexStream::setIcon
PUBLIC	?put@VertexStream@gfxu@@QEAAXAEBVVertexUV@2@@Z	; gfxu::VertexStream::put
PUBLIC	?put@VertexStream@gfxu@@QEAAXAEBVVertexUVRGBA@2@@Z ; gfxu::VertexStream::put
PUBLIC	?compress@VertexStream@gfxu@@QEAAXXZ		; gfxu::VertexStream::compress
PUBLIC	?unbindIcon@VertexStream@gfxu@@QEAAXXZ		; gfxu::VertexStream::unbindIcon
PUBLIC	?setTranslation@VertexStream@gfxu@@QEAAXMMM@Z	; gfxu::VertexStream::setTranslation
PUBLIC	?setColor@VertexStream@gfxu@@QEAAXEEEE@Z	; gfxu::VertexStream::setColor
PUBLIC	??0VertexStream@gfxu@@QEAA@H@Z			; gfxu::VertexStream::VertexStream
PUBLIC	?compile@TiledTexture@gfxu@@QEAA_NXZ		; gfxu::TiledTexture::compile
PUBLIC	?getIcon@TiledTexture@gfxu@@QEAAPEAVIcon@12@V?$basic_string@_WU?$char_traits@_W@std@@V?$allocator@_W@2@@std@@@Z ; gfxu::TiledTexture::getIcon
PUBLIC	??0TiledTexture@gfxu@@QEAA@III_N@Z		; gfxu::TiledTexture::TiledTexture
PUBLIC	?color@Uniforms@gfxu@@2V?$Uniform@VVector@geom@@@2@A ; gfxu::Uniforms::color
PUBLIC	?fogColor@Uniforms@gfxu@@2V?$Uniform@VVector@geom@@@2@A ; gfxu::Uniforms::fogColor
PUBLIC	?fogDist@Uniforms@gfxu@@2V?$Uniform@M@2@A	; gfxu::Uniforms::fogDist
PUBLIC	?MMS@Uniforms@gfxu@@2VMatrixStack@2@A		; gfxu::Uniforms::MMS
PUBLIC	?PMS@Uniforms@gfxu@@2VMatrixStack@2@A		; gfxu::Uniforms::PMS
PUBLIC	?camPos@Uniforms@gfxu@@2V?$Uniform@VVector@geom@@@2@A ; gfxu::Uniforms::camPos
EXTRN	??_EVertexStream@gfxu@@UEAAPEAXI@Z:PROC		; gfxu::VertexStream::`vector deleting destructor'
	ALIGN	4

_Tuple_alloc DB	01H DUP (?)
	ALIGN	4

ignore	DB	01H DUP (?)
	ALIGN	4

allocator_arg DB 01H DUP (?)
	ALIGN	4

piecewise_construct DB 01H DUP (?)
	ALIGN	4

?MMS@Uniforms@gfxu@@2VMatrixStack@2@A DB 070H DUP (?)	; gfxu::Uniforms::MMS
?PMS@Uniforms@gfxu@@2VMatrixStack@2@A DB 070H DUP (?)	; gfxu::Uniforms::PMS
_BSS	ENDS
;	COMDAT pdata
pdata	SEGMENT
$pdata$??$?0V?$basic_string@_WU?$char_traits@_W@std@@V?$allocator@_W@2@@std@@PEAVIcon@TiledTexture@gfxu@@@?$pair@$$CBV?$basic_string@_WU?$char_traits@_W@std@@V?$allocator@_W@2@@std@@PEAVIcon@TiledTexture@gfxu@@@std@@QEAA@$$QEAU?$pair@V?$basic_string@_WU?$char_traits@_W@std@@V?$allocator@_W@2@@std@@PEAVIcon@TiledTexture@gfxu@@@1@PEAPEAX@Z DD imagerel $LN110
	DD	imagerel $LN110+131
	DD	imagerel $unwind$??$?0V?$basic_string@_WU?$char_traits@_W@std@@V?$allocator@_W@2@@std@@PEAVIcon@TiledTexture@gfxu@@@?$pair@$$CBV?$basic_string@_WU?$char_traits@_W@std@@V?$allocator@_W@2@@std@@PEAVIcon@TiledTexture@gfxu@@@std@@QEAA@$$QEAU?$pair@V?$basic_string@_WU?$char_traits@_W@std@@V?$allocator@_W@2@@std@@PEAVIcon@TiledTexture@gfxu@@@1@PEAPEAX@Z
pdata	ENDS
;	COMDAT pdata
pdata	SEGMENT
$pdata$??$_Move_backward@PEAPEAVIcon@TiledTexture@gfxu@@PEAPEAV123@@std@@YAPEAPEAVIcon@TiledTexture@gfxu@@PEAPEAV123@00U_Scalar_ptr_iterator_tag@0@@Z DD imagerel $LN4
	DD	imagerel $LN4+47
	DD	imagerel $unwind$??$_Move_backward@PEAPEAVIcon@TiledTexture@gfxu@@PEAPEAV123@@std@@YAPEAPEAVIcon@TiledTexture@gfxu@@PEAPEAV123@00U_Scalar_ptr_iterator_tag@0@@Z
pdata	ENDS
;	COMDAT pdata
pdata	SEGMENT
$pdata$??$_Pop_heap_0@PEAPEAVIcon@TiledTexture@gfxu@@PEAV123@P6A_NPEBV123@0@Z@std@@YAXPEAPEAVIcon@TiledTexture@gfxu@@0P6A_NPEBV123@1@Z0@Z DD imagerel $LN47
	DD	imagerel $LN47+219
	DD	imagerel $unwind$??$_Pop_heap_0@PEAPEAVIcon@TiledTexture@gfxu@@PEAV123@P6A_NPEBV123@0@Z@std@@YAXPEAPEAVIcon@TiledTexture@gfxu@@0P6A_NPEBV123@1@Z0@Z
pdata	ENDS
;	COMDAT pdata
pdata	SEGMENT
$pdata$??$_Push_heap@PEAPEAVIcon@TiledTexture@gfxu@@_JPEAV123@P6A_NPEBV123@0@Z@std@@YAXPEAPEAVIcon@TiledTexture@gfxu@@_J1$$QEAPEAV123@P6A_NPEBV123@3@Z@Z DD imagerel $LN17
	DD	imagerel $LN17+51
	DD	imagerel $unwind$??$_Push_heap@PEAPEAVIcon@TiledTexture@gfxu@@_JPEAV123@P6A_NPEBV123@0@Z@std@@YAXPEAPEAVIcon@TiledTexture@gfxu@@_J1$$QEAPEAV123@P6A_NPEBV123@3@Z@Z
pdata	ENDS
;	COMDAT pdata
pdata	SEGMENT
$pdata$0$??$_Push_heap@PEAPEAVIcon@TiledTexture@gfxu@@_JPEAV123@P6A_NPEBV123@0@Z@std@@YAXPEAPEAVIcon@TiledTexture@gfxu@@_J1$$QEAPEAV123@P6A_NPEBV123@3@Z@Z DD imagerel $LN17+51
	DD	imagerel $LN17+120
	DD	imagerel $chain$0$??$_Push_heap@PEAPEAVIcon@TiledTexture@gfxu@@_JPEAV123@P6A_NPEBV123@0@Z@std@@YAXPEAPEAVIcon@TiledTexture@gfxu@@_J1$$QEAPEAV123@P6A_NPEBV123@3@Z@Z
pdata	ENDS
;	COMDAT pdata
pdata	SEGMENT
$pdata$1$??$_Push_heap@PEAPEAVIcon@TiledTexture@gfxu@@_JPEAV123@P6A_NPEBV123@0@Z@std@@YAXPEAPEAVIcon@TiledTexture@gfxu@@_J1$$QEAPEAV123@P6A_NPEBV123@3@Z@Z DD imagerel $LN17+120
	DD	imagerel $LN17+149
	DD	imagerel $chain$1$??$_Push_heap@PEAPEAVIcon@TiledTexture@gfxu@@_JPEAV123@P6A_NPEBV123@0@Z@std@@YAXPEAPEAVIcon@TiledTexture@gfxu@@_J1$$QEAPEAV123@P6A_NPEBV123@3@Z@Z
pdata	ENDS
;	COMDAT pdata
pdata	SEGMENT
$pdata$??$swap@VMatrix@geom@@@std@@YAXAEAVMatrix@geom@@0@Z DD imagerel $LN27
	DD	imagerel $LN27+289
	DD	imagerel $unwind$??$swap@VMatrix@geom@@@std@@YAXAEAVMatrix@geom@@0@Z
pdata	ENDS
;	COMDAT pdata
pdata	SEGMENT
$pdata$??$_Move_backward@PEAPEAVIcon@TiledTexture@gfxu@@PEAPEAV123@@std@@YAPEAPEAVIcon@TiledTexture@gfxu@@PEAPEAV123@00@Z DD imagerel $LN8
	DD	imagerel $LN8+47
	DD	imagerel $unwind$??$_Move_backward@PEAPEAVIcon@TiledTexture@gfxu@@PEAPEAV123@@std@@YAPEAPEAVIcon@TiledTexture@gfxu@@PEAPEAV123@00@Z
pdata	ENDS
;	COMDAT pdata
pdata	SEGMENT
$pdata$??$_Adjust_heap@PEAPEAVIcon@TiledTexture@gfxu@@_JPEAV123@P6A_NPEBV123@0@Z@std@@YAXPEAPEAVIcon@TiledTexture@gfxu@@_J1$$QEAPEAV123@P6A_NPEBV123@3@Z@Z DD imagerel $LN32
	DD	imagerel $LN32+228
	DD	imagerel $unwind$??$_Adjust_heap@PEAPEAVIcon@TiledTexture@gfxu@@_JPEAV123@P6A_NPEBV123@0@Z@std@@YAXPEAPEAVIcon@TiledTexture@gfxu@@_J1$$QEAPEAV123@P6A_NPEBV123@3@Z@Z
pdata	ENDS
;	COMDAT pdata
pdata	SEGMENT
$pdata$??$_Med3@PEAPEAVIcon@TiledTexture@gfxu@@P6A_NPEBV123@0@Z@std@@YAXPEAPEAVIcon@TiledTexture@gfxu@@00P6A_NPEBV123@1@Z@Z DD imagerel $LN37
	DD	imagerel $LN37+122
	DD	imagerel $unwind$??$_Med3@PEAPEAVIcon@TiledTexture@gfxu@@P6A_NPEBV123@0@Z@std@@YAXPEAPEAVIcon@TiledTexture@gfxu@@00P6A_NPEBV123@1@Z@Z
pdata	ENDS
;	COMDAT pdata
pdata	SEGMENT
$pdata$??$_Rotate@V?$_Deque_unchecked_iterator@V?$_Deque_val@U?$_Deque_simple_types@VMatrix@geom@@@std@@@std@@@std@@_JVMatrix@geom@@@std@@YAXV?$_Deque_unchecked_iterator@V?$_Deque_val@U?$_Deque_simple_types@VMatrix@geom@@@std@@@std@@@0@00PEA_JPEAVMatrix@geom@@@Z DD imagerel $LN108
	DD	imagerel $LN108+102
	DD	imagerel $unwind$??$_Rotate@V?$_Deque_unchecked_iterator@V?$_Deque_val@U?$_Deque_simple_types@VMatrix@geom@@@std@@@std@@@std@@_JVMatrix@geom@@@std@@YAXV?$_Deque_unchecked_iterator@V?$_Deque_val@U?$_Deque_simple_types@VMatrix@geom@@@std@@@std@@@0@00PEA_JPEAVMatrix@geom@@@Z
pdata	ENDS
;	COMDAT pdata
pdata	SEGMENT
$pdata$2$??$_Rotate@V?$_Deque_unchecked_iterator@V?$_Deque_val@U?$_Deque_simple_types@VMatrix@geom@@@std@@@std@@@std@@_JVMatrix@geom@@@std@@YAXV?$_Deque_unchecked_iterator@V?$_Deque_val@U?$_Deque_simple_types@VMatrix@geom@@@std@@@std@@@0@00PEA_JPEAVMatrix@geom@@@Z DD imagerel $LN108+102
	DD	imagerel $LN108+446
	DD	imagerel $chain$2$??$_Rotate@V?$_Deque_unchecked_iterator@V?$_Deque_val@U?$_Deque_simple_types@VMatrix@geom@@@std@@@std@@@std@@_JVMatrix@geom@@@std@@YAXV?$_Deque_unchecked_iterator@V?$_Deque_val@U?$_Deque_simple_types@VMatrix@geom@@@std@@@std@@@0@00PEA_JPEAVMatrix@geom@@@Z
pdata	ENDS
;	COMDAT pdata
pdata	SEGMENT
$pdata$3$??$_Rotate@V?$_Deque_unchecked_iterator@V?$_Deque_val@U?$_Deque_simple_types@VMatrix@geom@@@std@@@std@@@std@@_JVMatrix@geom@@@std@@YAXV?$_Deque_unchecked_iterator@V?$_Deque_val@U?$_Deque_simple_types@VMatrix@geom@@@std@@@std@@@0@00PEA_JPEAVMatrix@geom@@@Z DD imagerel $LN108+446
	DD	imagerel $LN108+471
	DD	imagerel $chain$3$??$_Rotate@V?$_Deque_unchecked_iterator@V?$_Deque_val@U?$_Deque_simple_types@VMatrix@geom@@@std@@@std@@@std@@_JVMatrix@geom@@@std@@YAXV?$_Deque_unchecked_iterator@V?$_Deque_val@U?$_Deque_simple_types@VMatrix@geom@@@std@@@std@@@0@00PEA_JPEAVMatrix@geom@@@Z
pdata	ENDS
;	COMDAT pdata
pdata	SEGMENT
$pdata$??$_Insertion_sort1@PEAPEAVIcon@TiledTexture@gfxu@@P6A_NPEBV123@0@ZPEAV123@@std@@YAXPEAPEAVIcon@TiledTexture@gfxu@@0P6A_NPEBV123@1@Z0@Z DD imagerel $LN33
	DD	imagerel $LN33+18
	DD	imagerel $unwind$??$_Insertion_sort1@PEAPEAVIcon@TiledTexture@gfxu@@P6A_NPEBV123@0@ZPEAV123@@std@@YAXPEAPEAVIcon@TiledTexture@gfxu@@0P6A_NPEBV123@1@Z0@Z
pdata	ENDS
;	COMDAT pdata
pdata	SEGMENT
$pdata$0$??$_Insertion_sort1@PEAPEAVIcon@TiledTexture@gfxu@@P6A_NPEBV123@0@ZPEAV123@@std@@YAXPEAPEAVIcon@TiledTexture@gfxu@@0P6A_NPEBV123@1@Z0@Z DD imagerel $LN33+18
	DD	imagerel $LN33+45
	DD	imagerel $chain$0$??$_Insertion_sort1@PEAPEAVIcon@TiledTexture@gfxu@@P6A_NPEBV123@0@ZPEAV123@@std@@YAXPEAPEAVIcon@TiledTexture@gfxu@@0P6A_NPEBV123@1@Z0@Z
pdata	ENDS
;	COMDAT pdata
pdata	SEGMENT
$pdata$3$??$_Insertion_sort1@PEAPEAVIcon@TiledTexture@gfxu@@P6A_NPEBV123@0@ZPEAV123@@std@@YAXPEAPEAVIcon@TiledTexture@gfxu@@0P6A_NPEBV123@1@Z0@Z DD imagerel $LN33+45
	DD	imagerel $LN33+197
	DD	imagerel $chain$3$??$_Insertion_sort1@PEAPEAVIcon@TiledTexture@gfxu@@P6A_NPEBV123@0@ZPEAV123@@std@@YAXPEAPEAVIcon@TiledTexture@gfxu@@0P6A_NPEBV123@1@Z0@Z
pdata	ENDS
;	COMDAT pdata
pdata	SEGMENT
$pdata$4$??$_Insertion_sort1@PEAPEAVIcon@TiledTexture@gfxu@@P6A_NPEBV123@0@ZPEAV123@@std@@YAXPEAPEAVIcon@TiledTexture@gfxu@@0P6A_NPEBV123@1@Z0@Z DD imagerel $LN33+197
	DD	imagerel $LN33+211
	DD	imagerel $chain$4$??$_Insertion_sort1@PEAPEAVIcon@TiledTexture@gfxu@@P6A_NPEBV123@0@ZPEAV123@@std@@YAXPEAPEAVIcon@TiledTexture@gfxu@@0P6A_NPEBV123@1@Z0@Z
pdata	ENDS
;	COMDAT pdata
pdata	SEGMENT
$pdata$5$??$_Insertion_sort1@PEAPEAVIcon@TiledTexture@gfxu@@P6A_NPEBV123@0@ZPEAV123@@std@@YAXPEAPEAVIcon@TiledTexture@gfxu@@0P6A_NPEBV123@1@Z0@Z DD imagerel $LN33+211
	DD	imagerel $LN33+213
	DD	imagerel $chain$5$??$_Insertion_sort1@PEAPEAVIcon@TiledTexture@gfxu@@P6A_NPEBV123@0@ZPEAV123@@std@@YAXPEAPEAVIcon@TiledTexture@gfxu@@0P6A_NPEBV123@1@Z0@Z
pdata	ENDS
;	COMDAT pdata
pdata	SEGMENT
$pdata$??$_Sort_heap@PEAPEAVIcon@TiledTexture@gfxu@@P6A_NPEBV123@0@Z@std@@YAXPEAPEAVIcon@TiledTexture@gfxu@@0P6A_NPEBV123@1@Z@Z DD imagerel $LN18
	DD	imagerel $LN18+40
	DD	imagerel $unwind$??$_Sort_heap@PEAPEAVIcon@TiledTexture@gfxu@@P6A_NPEBV123@0@Z@std@@YAXPEAPEAVIcon@TiledTexture@gfxu@@0P6A_NPEBV123@1@Z@Z
pdata	ENDS
;	COMDAT pdata
pdata	SEGMENT
$pdata$0$??$_Sort_heap@PEAPEAVIcon@TiledTexture@gfxu@@P6A_NPEBV123@0@Z@std@@YAXPEAPEAVIcon@TiledTexture@gfxu@@0P6A_NPEBV123@1@Z@Z DD imagerel $LN18+40
	DD	imagerel $LN18+101
	DD	imagerel $chain$0$??$_Sort_heap@PEAPEAVIcon@TiledTexture@gfxu@@P6A_NPEBV123@0@Z@std@@YAXPEAPEAVIcon@TiledTexture@gfxu@@0P6A_NPEBV123@1@Z@Z
pdata	ENDS
;	COMDAT pdata
pdata	SEGMENT
$pdata$1$??$_Sort_heap@PEAPEAVIcon@TiledTexture@gfxu@@P6A_NPEBV123@0@Z@std@@YAXPEAPEAVIcon@TiledTexture@gfxu@@0P6A_NPEBV123@1@Z@Z DD imagerel $LN18+101
	DD	imagerel $LN18+117
	DD	imagerel $chain$1$??$_Sort_heap@PEAPEAVIcon@TiledTexture@gfxu@@P6A_NPEBV123@0@Z@std@@YAXPEAPEAVIcon@TiledTexture@gfxu@@0P6A_NPEBV123@1@Z@Z
pdata	ENDS
;	COMDAT pdata
pdata	SEGMENT
$pdata$??$_Make_heap@PEAPEAVIcon@TiledTexture@gfxu@@_JPEAV123@P6A_NPEBV123@0@Z@std@@YAXPEAPEAVIcon@TiledTexture@gfxu@@0P6A_NPEBV123@1@ZPEA_J0@Z DD imagerel $LN42
	DD	imagerel $LN42+50
	DD	imagerel $unwind$??$_Make_heap@PEAPEAVIcon@TiledTexture@gfxu@@_JPEAV123@P6A_NPEBV123@0@Z@std@@YAXPEAPEAVIcon@TiledTexture@gfxu@@0P6A_NPEBV123@1@ZPEA_J0@Z
pdata	ENDS
;	COMDAT pdata
pdata	SEGMENT
$pdata$3$??$_Make_heap@PEAPEAVIcon@TiledTexture@gfxu@@_JPEAV123@P6A_NPEBV123@0@Z@std@@YAXPEAPEAVIcon@TiledTexture@gfxu@@0P6A_NPEBV123@1@ZPEA_J0@Z DD imagerel $LN42+50
	DD	imagerel $LN42+271
	DD	imagerel $chain$3$??$_Make_heap@PEAPEAVIcon@TiledTexture@gfxu@@_JPEAV123@P6A_NPEBV123@0@Z@std@@YAXPEAPEAVIcon@TiledTexture@gfxu@@0P6A_NPEBV123@1@ZPEA_J0@Z
pdata	ENDS
;	COMDAT pdata
pdata	SEGMENT
$pdata$4$??$_Make_heap@PEAPEAVIcon@TiledTexture@gfxu@@_JPEAV123@P6A_NPEBV123@0@Z@std@@YAXPEAPEAVIcon@TiledTexture@gfxu@@0P6A_NPEBV123@1@ZPEA_J0@Z DD imagerel $LN42+271
	DD	imagerel $LN42+282
	DD	imagerel $chain$4$??$_Make_heap@PEAPEAVIcon@TiledTexture@gfxu@@_JPEAV123@P6A_NPEBV123@0@Z@std@@YAXPEAPEAVIcon@TiledTexture@gfxu@@0P6A_NPEBV123@1@ZPEA_J0@Z
pdata	ENDS
;	COMDAT pdata
pdata	SEGMENT
$pdata$??$_Median@PEAPEAVIcon@TiledTexture@gfxu@@P6A_NPEBV123@0@Z@std@@YAXPEAPEAVIcon@TiledTexture@gfxu@@00P6A_NPEBV123@1@Z@Z DD imagerel $LN6
	DD	imagerel $LN6+42
	DD	imagerel $unwind$??$_Median@PEAPEAVIcon@TiledTexture@gfxu@@P6A_NPEBV123@0@Z@std@@YAXPEAPEAVIcon@TiledTexture@gfxu@@00P6A_NPEBV123@1@Z@Z
pdata	ENDS
;	COMDAT pdata
pdata	SEGMENT
$pdata$3$??$_Median@PEAPEAVIcon@TiledTexture@gfxu@@P6A_NPEBV123@0@Z@std@@YAXPEAPEAVIcon@TiledTexture@gfxu@@00P6A_NPEBV123@1@Z@Z DD imagerel $LN6+42
	DD	imagerel $LN6+199
	DD	imagerel $chain$3$??$_Median@PEAPEAVIcon@TiledTexture@gfxu@@P6A_NPEBV123@0@Z@std@@YAXPEAPEAVIcon@TiledTexture@gfxu@@00P6A_NPEBV123@1@Z@Z
pdata	ENDS
;	COMDAT pdata
pdata	SEGMENT
$pdata$4$??$_Median@PEAPEAVIcon@TiledTexture@gfxu@@P6A_NPEBV123@0@Z@std@@YAXPEAPEAVIcon@TiledTexture@gfxu@@00P6A_NPEBV123@1@Z@Z DD imagerel $LN6+199
	DD	imagerel $LN6+214
	DD	imagerel $chain$4$??$_Median@PEAPEAVIcon@TiledTexture@gfxu@@P6A_NPEBV123@0@Z@std@@YAXPEAPEAVIcon@TiledTexture@gfxu@@00P6A_NPEBV123@1@Z@Z
pdata	ENDS
;	COMDAT pdata
pdata	SEGMENT
$pdata$??F?$_Tree_iterator@V?$_Tree_val@U?$_Tree_simple_types@U?$pair@$$CBV?$basic_string@_WU?$char_traits@_W@std@@V?$allocator@_W@2@@std@@PEAVIcon@TiledTexture@gfxu@@@std@@@std@@@std@@@std@@QEAAAEAV01@XZ DD imagerel $LN6
	DD	imagerel $LN6+23
	DD	imagerel $unwind$??F?$_Tree_iterator@V?$_Tree_val@U?$_Tree_simple_types@U?$pair@$$CBV?$basic_string@_WU?$char_traits@_W@std@@V?$allocator@_W@2@@std@@PEAVIcon@TiledTexture@gfxu@@@std@@@std@@@std@@@std@@QEAAAEAV01@XZ
pdata	ENDS
;	COMDAT pdata
pdata	SEGMENT
$pdata$??1?$pair@$$CBV?$basic_string@_WU?$char_traits@_W@std@@V?$allocator@_W@2@@std@@PEAVIcon@TiledTexture@gfxu@@@std@@QEAA@XZ DD imagerel $LN38
	DD	imagerel $LN38+47
	DD	imagerel $unwind$??1?$pair@$$CBV?$basic_string@_WU?$char_traits@_W@std@@V?$allocator@_W@2@@std@@PEAVIcon@TiledTexture@gfxu@@@std@@QEAA@XZ
pdata	ENDS
;	COMDAT pdata
pdata	SEGMENT
$pdata$??_G?$pair@$$CBV?$basic_string@_WU?$char_traits@_W@std@@V?$allocator@_W@2@@std@@PEAVIcon@TiledTexture@gfxu@@@std@@QEAAPEAXI@Z DD imagerel $LN41
	DD	imagerel $LN41+50
	DD	imagerel $unwind$??_G?$pair@$$CBV?$basic_string@_WU?$char_traits@_W@std@@V?$allocator@_W@2@@std@@PEAVIcon@TiledTexture@gfxu@@@std@@QEAAPEAXI@Z
pdata	ENDS
;	COMDAT pdata
pdata	SEGMENT
$pdata$??$destroy@U?$pair@$$CBV?$basic_string@_WU?$char_traits@_W@std@@V?$allocator@_W@2@@std@@PEAVIcon@TiledTexture@gfxu@@@std@@@?$allocator@U?$_Tree_node@U?$pair@$$CBV?$basic_string@_WU?$char_traits@_W@std@@V?$allocator@_W@2@@std@@PEAVIcon@TiledTexture@gfxu@@@std@@PEAX@std@@@std@@QEAAXPEAU?$pair@$$CBV?$basic_string@_WU?$char_traits@_W@std@@V?$allocator@_W@2@@std@@PEAVIcon@TiledTexture@gfxu@@@1@@Z DD imagerel $LN43
	DD	imagerel $LN43+47
	DD	imagerel $unwind$??$destroy@U?$pair@$$CBV?$basic_string@_WU?$char_traits@_W@std@@V?$allocator@_W@2@@std@@PEAVIcon@TiledTexture@gfxu@@@std@@@?$allocator@U?$_Tree_node@U?$pair@$$CBV?$basic_string@_WU?$char_traits@_W@std@@V?$allocator@_W@2@@std@@PEAVIcon@TiledTexture@gfxu@@@std@@PEAX@std@@@std@@QEAAXPEAU?$pair@$$CBV?$basic_string@_WU?$char_traits@_W@std@@V?$allocator@_W@2@@std@@PEAVIcon@TiledTexture@gfxu@@@1@@Z
pdata	ENDS
;	COMDAT pdata
pdata	SEGMENT
$pdata$??$_Uninit_move@PEAVIcon@TiledTexture@gfxu@@PEAV123@PEAV123@@std@@YAPEAPEAVIcon@TiledTexture@gfxu@@PEAPEAV123@00AEAU?$_Wrap_alloc@V?$allocator@PEAVIcon@TiledTexture@gfxu@@@std@@@0@0U_Scalar_ptr_iterator_tag@0@@Z DD imagerel $LN4
	DD	imagerel $LN4+47
	DD	imagerel $unwind$??$_Uninit_move@PEAVIcon@TiledTexture@gfxu@@PEAV123@PEAV123@@std@@YAPEAPEAVIcon@TiledTexture@gfxu@@PEAPEAV123@00AEAU?$_Wrap_alloc@V?$allocator@PEAVIcon@TiledTexture@gfxu@@@std@@@0@0U_Scalar_ptr_iterator_tag@0@@Z
pdata	ENDS
;	COMDAT pdata
pdata	SEGMENT
$pdata$??$distance@V?$_Deque_iterator@V?$_Deque_val@U?$_Deque_simple_types@VMatrix@geom@@@std@@@std@@@std@@@std@@YA_JV?$_Deque_iterator@V?$_Deque_val@U?$_Deque_simple_types@VMatrix@geom@@@std@@@std@@@0@0@Z DD imagerel $LN63
	DD	imagerel $LN63+163
	DD	imagerel $unwind$??$distance@V?$_Deque_iterator@V?$_Deque_val@U?$_Deque_simple_types@VMatrix@geom@@@std@@@std@@@std@@@std@@YA_JV?$_Deque_iterator@V?$_Deque_val@U?$_Deque_simple_types@VMatrix@geom@@@std@@@std@@@0@0@Z
pdata	ENDS
;	COMDAT pdata
pdata	SEGMENT
$pdata$??$_Rotate@V?$_Deque_unchecked_iterator@V?$_Deque_val@U?$_Deque_simple_types@VMatrix@geom@@@std@@@std@@@std@@@std@@YAXV?$_Deque_unchecked_iterator@V?$_Deque_val@U?$_Deque_simple_types@VMatrix@geom@@@std@@@std@@@0@00Urandom_access_iterator_tag@0@@Z DD imagerel $LN8
	DD	imagerel $LN8+54
	DD	imagerel $unwind$??$_Rotate@V?$_Deque_unchecked_iterator@V?$_Deque_val@U?$_Deque_simple_types@VMatrix@geom@@@std@@@std@@@std@@@std@@YAXV?$_Deque_unchecked_iterator@V?$_Deque_val@U?$_Deque_simple_types@VMatrix@geom@@@std@@@std@@@0@00Urandom_access_iterator_tag@0@@Z
pdata	ENDS
;	COMDAT pdata
pdata	SEGMENT
$pdata$??$_Reverse@V?$_Deque_unchecked_iterator@V?$_Deque_val@U?$_Deque_simple_types@VMatrix@geom@@@std@@@std@@@std@@@std@@YAXV?$_Deque_unchecked_iterator@V?$_Deque_val@U?$_Deque_simple_types@VMatrix@geom@@@std@@@std@@@0@0Ubidirectional_iterator_tag@0@@Z DD imagerel $LN41
	DD	imagerel $LN41+168
	DD	imagerel $unwind$??$_Reverse@V?$_Deque_unchecked_iterator@V?$_Deque_val@U?$_Deque_simple_types@VMatrix@geom@@@std@@@std@@@std@@@std@@YAXV?$_Deque_unchecked_iterator@V?$_Deque_val@U?$_Deque_simple_types@VMatrix@geom@@@std@@@std@@@0@0Ubidirectional_iterator_tag@0@@Z
pdata	ENDS
;	COMDAT pdata
pdata	SEGMENT
$pdata$??$_Insert_nohint@AEAU?$pair@$$CBV?$basic_string@_WU?$char_traits@_W@std@@V?$allocator@_W@2@@std@@PEAVIcon@TiledTexture@gfxu@@@std@@PEAU?$_Tree_node@U?$pair@$$CBV?$basic_string@_WU?$char_traits@_W@std@@V?$allocator@_W@2@@std@@PEAVIcon@TiledTexture@gfxu@@@std@@PEAX@2@@?$_Tree@V?$_Tmap_traits@V?$basic_string@_WU?$char_traits@_W@std@@V?$allocator@_W@2@@std@@PEAVIcon@TiledTexture@gfxu@@U?$less@V?$basic_string@_WU?$char_traits@_W@std@@V?$allocator@_W@2@@std@@@2@V?$allocator@U?$pair@$$CBV?$basic_string@_WU?$char_traits@_W@std@@V?$allocator@_W@2@@std@@PEAVIcon@TiledTexture@gfxu@@@std@@@2@$0A@@std@@@std@@IEAA?AU?$pair@V?$_Tree_iterator@V?$_Tree_val@U?$_Tree_simple_types@U?$pair@$$CBV?$basic_string@_WU?$char_traits@_W@std@@V?$allocator@_W@2@@std@@PEAVIcon@TiledTexture@gfxu@@@std@@@std@@@std@@@std@@_N@1@_NAEAU?$pair@$$CBV?$basic_string@_WU?$char_traits@_W@std@@V?$allocator@_W@2@@std@@PEAVIcon@TiledTexture@gfxu@@@1@PEAU?$_Tree_node@U?$pair@$$CBV?$basic_string@_WU?$char_traits@_W@std@@V?$allocator@_W@2@@std@@PEAVIcon@TiledTexture@gfxu@@@std@@PEAX@1@@Z DD imagerel $LN372
	DD	imagerel $LN372+549
	DD	imagerel $unwind$??$_Insert_nohint@AEAU?$pair@$$CBV?$basic_string@_WU?$char_traits@_W@std@@V?$allocator@_W@2@@std@@PEAVIcon@TiledTexture@gfxu@@@std@@PEAU?$_Tree_node@U?$pair@$$CBV?$basic_string@_WU?$char_traits@_W@std@@V?$allocator@_W@2@@std@@PEAVIcon@TiledTexture@gfxu@@@std@@PEAX@2@@?$_Tree@V?$_Tmap_traits@V?$basic_string@_WU?$char_traits@_W@std@@V?$allocator@_W@2@@std@@PEAVIcon@TiledTexture@gfxu@@U?$less@V?$basic_string@_WU?$char_traits@_W@std@@V?$allocator@_W@2@@std@@@2@V?$allocator@U?$pair@$$CBV?$basic_string@_WU?$char_traits@_W@std@@V?$allocator@_W@2@@std@@PEAVIcon@TiledTexture@gfxu@@@std@@@2@$0A@@std@@@std@@IEAA?AU?$pair@V?$_Tree_iterator@V?$_Tree_val@U?$_Tree_simple_types@U?$pair@$$CBV?$basic_string@_WU?$char_traits@_W@std@@V?$allocator@_W@2@@std@@PEAVIcon@TiledTexture@gfxu@@@std@@@std@@@std@@@std@@_N@1@_NAEAU?$pair@$$CBV?$basic_string@_WU?$char_traits@_W@std@@V?$allocator@_W@2@@std@@PEAVIcon@TiledTexture@gfxu@@@1@PEAU?$_Tree_node@U?$pair@$$CBV?$basic_string@_WU?$char_traits@_W@std@@V?$allocator@_W@2@@std@@PEAVIcon@TiledTexture@gfxu@@@std@@PEAX@1@@Z
pdata	ENDS
;	COMDAT pdata
pdata	SEGMENT
$pdata$?catch$0@?0???$_Insert_nohint@AEAU?$pair@$$CBV?$basic_string@_WU?$char_traits@_W@std@@V?$allocator@_W@2@@std@@PEAVIcon@TiledTexture@gfxu@@@std@@PEAU?$_Tree_node@U?$pair@$$CBV?$basic_string@_WU?$char_traits@_W@std@@V?$allocator@_W@2@@std@@PEAVIcon@TiledTexture@gfxu@@@std@@PEAX@2@@?$_Tree@V?$_Tmap_traits@V?$basic_string@_WU?$char_traits@_W@std@@V?$allocator@_W@2@@std@@PEAVIcon@TiledTexture@gfxu@@U?$less@V?$basic_string@_WU?$char_traits@_W@std@@V?$allocator@_W@2@@std@@@2@V?$allocator@U?$pair@$$CBV?$basic_string@_WU?$char_traits@_W@std@@V?$allocator@_W@2@@std@@PEAVIcon@TiledTexture@gfxu@@@std@@@2@$0A@@std@@@std@@IEAA?AU?$pair@V?$_Tree_iterator@V?$_Tree_val@U?$_Tree_simple_types@U?$pair@$$CBV?$basic_string@_WU?$char_traits@_W@std@@V?$allocator@_W@2@@std@@PEAVIcon@TiledTexture@gfxu@@@std@@@std@@@std@@@std@@_N@1@_NAEAU?$pair@$$CBV?$basic_string@_WU?$char_traits@_W@std@@V?$allocator@_W@2@@std@@PEAVIcon@TiledTexture@gfxu@@@1@PEAU?$_Tree_node@U?$pair@$$CBV?$basic_string@_WU?$char_traits@_W@std@@V?$allocator@_W@2@@std@@PEAVIcon@TiledTexture@gfxu@@@std@@PEAX@1@@Z@4HA DD imagerel ?catch$0@?0???$_Insert_nohint@AEAU?$pair@$$CBV?$basic_string@_WU?$char_traits@_W@std@@V?$allocator@_W@2@@std@@PEAVIcon@TiledTexture@gfxu@@@std@@PEAU?$_Tree_node@U?$pair@$$CBV?$basic_string@_WU?$char_traits@_W@std@@V?$allocator@_W@2@@std@@PEAVIcon@TiledTexture@gfxu@@@std@@PEAX@2@@?$_Tree@V?$_Tmap_traits@V?$basic_string@_WU?$char_traits@_W@std@@V?$allocator@_W@2@@std@@PEAVIcon@TiledTexture@gfxu@@U?$less@V?$basic_string@_WU?$char_traits@_W@std@@V?$allocator@_W@2@@std@@@2@V?$allocator@U?$pair@$$CBV?$basic_string@_WU?$char_traits@_W@std@@V?$allocator@_W@2@@std@@PEAVIcon@TiledTexture@gfxu@@@std@@@2@$0A@@std@@@std@@IEAA?AU?$pair@V?$_Tree_iterator@V?$_Tree_val@U?$_Tree_simple_types@U?$pair@$$CBV?$basic_string@_WU?$char_traits@_W@std@@V?$allocator@_W@2@@std@@PEAVIcon@TiledTexture@gfxu@@@std@@@std@@@std@@@std@@_N@1@_NAEAU?$pair@$$CBV?$basic_string@_WU?$char_traits@_W@std@@V?$allocator@_W@2@@std@@PEAVIcon@TiledTexture@gfxu@@@1@PEAU?$_Tree_node@U?$pair@$$CBV?$basic_string@_WU?$char_traits@_W@std@@V?$allocator@_W@2@@std@@PEAVIcon@TiledTexture@gfxu@@@std@@PEAX@1@@Z@4HA
	DD	imagerel ?catch$0@?0???$_Insert_nohint@AEAU?$pair@$$CBV?$basic_string@_WU?$char_traits@_W@std@@V?$allocator@_W@2@@std@@PEAVIcon@TiledTexture@gfxu@@@std@@PEAU?$_Tree_node@U?$pair@$$CBV?$basic_string@_WU?$char_traits@_W@std@@V?$allocator@_W@2@@std@@PEAVIcon@TiledTexture@gfxu@@@std@@PEAX@2@@?$_Tree@V?$_Tmap_traits@V?$basic_string@_WU?$char_traits@_W@std@@V?$allocator@_W@2@@std@@PEAVIcon@TiledTexture@gfxu@@U?$less@V?$basic_string@_WU?$char_traits@_W@std@@V?$allocator@_W@2@@std@@@2@V?$allocator@U?$pair@$$CBV?$basic_string@_WU?$char_traits@_W@std@@V?$allocator@_W@2@@std@@PEAVIcon@TiledTexture@gfxu@@@std@@@2@$0A@@std@@@std@@IEAA?AU?$pair@V?$_Tree_iterator@V?$_Tree_val@U?$_Tree_simple_types@U?$pair@$$CBV?$basic_string@_WU?$char_traits@_W@std@@V?$allocator@_W@2@@std@@PEAVIcon@TiledTexture@gfxu@@@std@@@std@@@std@@@std@@_N@1@_NAEAU?$pair@$$CBV?$basic_string@_WU?$char_traits@_W@std@@V?$allocator@_W@2@@std@@PEAVIcon@TiledTexture@gfxu@@@1@PEAU?$_Tree_node@U?$pair@$$CBV?$basic_string@_WU?$char_traits@_W@std@@V?$allocator@_W@2@@std@@PEAVIcon@TiledTexture@gfxu@@@std@@PEAX@1@@Z@4HA+35
	DD	imagerel $unwind$?catch$0@?0???$_Insert_nohint@AEAU?$pair@$$CBV?$basic_string@_WU?$char_traits@_W@std@@V?$allocator@_W@2@@std@@PEAVIcon@TiledTexture@gfxu@@@std@@PEAU?$_Tree_node@U?$pair@$$CBV?$basic_string@_WU?$char_traits@_W@std@@V?$allocator@_W@2@@std@@PEAVIcon@TiledTexture@gfxu@@@std@@PEAX@2@@?$_Tree@V?$_Tmap_traits@V?$basic_string@_WU?$char_traits@_W@std@@V?$allocator@_W@2@@std@@PEAVIcon@TiledTexture@gfxu@@U?$less@V?$basic_string@_WU?$char_traits@_W@std@@V?$allocator@_W@2@@std@@@2@V?$allocator@U?$pair@$$CBV?$basic_string@_WU?$char_traits@_W@std@@V?$allocator@_W@2@@std@@PEAVIcon@TiledTexture@gfxu@@@std@@@2@$0A@@std@@@std@@IEAA?AU?$pair@V?$_Tree_iterator@V?$_Tree_val@U?$_Tree_simple_types@U?$pair@$$CBV?$basic_string@_WU?$char_traits@_W@std@@V?$allocator@_W@2@@std@@PEAVIcon@TiledTexture@gfxu@@@std@@@std@@@std@@@std@@_N@1@_NAEAU?$pair@$$CBV?$basic_string@_WU?$char_traits@_W@std@@V?$allocator@_W@2@@std@@PEAVIcon@TiledTexture@gfxu@@@1@PEAU?$_Tree_node@U?$pair@$$CBV?$basic_string@_WU?$char_traits@_W@std@@V?$allocator@_W@2@@std@@PEAVIcon@TiledTexture@gfxu@@@std@@PEAX@1@@Z@4HA
pdata	ENDS
;	COMDAT pdata
pdata	SEGMENT
$pdata$??$_Insert_at@AEAU?$pair@$$CBV?$basic_string@_WU?$char_traits@_W@std@@V?$allocator@_W@2@@std@@PEAVIcon@TiledTexture@gfxu@@@std@@PEAU?$_Tree_node@U?$pair@$$CBV?$basic_string@_WU?$char_traits@_W@std@@V?$allocator@_W@2@@std@@PEAVIcon@TiledTexture@gfxu@@@std@@PEAX@2@@?$_Tree@V?$_Tmap_traits@V?$basic_string@_WU?$char_traits@_W@std@@V?$allocator@_W@2@@std@@PEAVIcon@TiledTexture@gfxu@@U?$less@V?$basic_string@_WU?$char_traits@_W@std@@V?$allocator@_W@2@@std@@@2@V?$allocator@U?$pair@$$CBV?$basic_string@_WU?$char_traits@_W@std@@V?$allocator@_W@2@@std@@PEAVIcon@TiledTexture@gfxu@@@std@@@2@$0A@@std@@@std@@IEAA?AV?$_Tree_iterator@V?$_Tree_val@U?$_Tree_simple_types@U?$pair@$$CBV?$basic_string@_WU?$char_traits@_W@std@@V?$allocator@_W@2@@std@@PEAVIcon@TiledTexture@gfxu@@@std@@@std@@@std@@@1@_NPEAU?$_Tree_node@U?$pair@$$CBV?$basic_string@_WU?$char_traits@_W@std@@V?$allocator@_W@2@@std@@PEAVIcon@TiledTexture@gfxu@@@std@@PEAX@1@AEAU?$pair@$$CBV?$basic_string@_WU?$char_traits@_W@std@@V?$allocator@_W@2@@std@@PEAVIcon@TiledTexture@gfxu@@@1@1@Z DD imagerel $LN442
	DD	imagerel $LN442+713
	DD	imagerel $unwind$??$_Insert_at@AEAU?$pair@$$CBV?$basic_string@_WU?$char_traits@_W@std@@V?$allocator@_W@2@@std@@PEAVIcon@TiledTexture@gfxu@@@std@@PEAU?$_Tree_node@U?$pair@$$CBV?$basic_string@_WU?$char_traits@_W@std@@V?$allocator@_W@2@@std@@PEAVIcon@TiledTexture@gfxu@@@std@@PEAX@2@@?$_Tree@V?$_Tmap_traits@V?$basic_string@_WU?$char_traits@_W@std@@V?$allocator@_W@2@@std@@PEAVIcon@TiledTexture@gfxu@@U?$less@V?$basic_string@_WU?$char_traits@_W@std@@V?$allocator@_W@2@@std@@@2@V?$allocator@U?$pair@$$CBV?$basic_string@_WU?$char_traits@_W@std@@V?$allocator@_W@2@@std@@PEAVIcon@TiledTexture@gfxu@@@std@@@2@$0A@@std@@@std@@IEAA?AV?$_Tree_iterator@V?$_Tree_val@U?$_Tree_simple_types@U?$pair@$$CBV?$basic_string@_WU?$char_traits@_W@std@@V?$allocator@_W@2@@std@@PEAVIcon@TiledTexture@gfxu@@@std@@@std@@@std@@@1@_NPEAU?$_Tree_node@U?$pair@$$CBV?$basic_string@_WU?$char_traits@_W@std@@V?$allocator@_W@2@@std@@PEAVIcon@TiledTexture@gfxu@@@std@@PEAX@1@AEAU?$pair@$$CBV?$basic_string@_WU?$char_traits@_W@std@@V?$allocator@_W@2@@std@@PEAVIcon@TiledTexture@gfxu@@@1@1@Z
pdata	ENDS
;	COMDAT pdata
pdata	SEGMENT
$pdata$??$sort_heap@PEAPEAVIcon@TiledTexture@gfxu@@P6A_NPEBV123@0@Z@std@@YAXPEAPEAVIcon@TiledTexture@gfxu@@0P6A_NPEBV123@1@Z@Z DD imagerel $LN24
	DD	imagerel $LN24+40
	DD	imagerel $unwind$??$sort_heap@PEAPEAVIcon@TiledTexture@gfxu@@P6A_NPEBV123@0@Z@std@@YAXPEAPEAVIcon@TiledTexture@gfxu@@0P6A_NPEBV123@1@Z@Z
pdata	ENDS
;	COMDAT pdata
pdata	SEGMENT
$pdata$0$??$sort_heap@PEAPEAVIcon@TiledTexture@gfxu@@P6A_NPEBV123@0@Z@std@@YAXPEAPEAVIcon@TiledTexture@gfxu@@0P6A_NPEBV123@1@Z@Z DD imagerel $LN24+40
	DD	imagerel $LN24+101
	DD	imagerel $chain$0$??$sort_heap@PEAPEAVIcon@TiledTexture@gfxu@@P6A_NPEBV123@0@Z@std@@YAXPEAPEAVIcon@TiledTexture@gfxu@@0P6A_NPEBV123@1@Z@Z
pdata	ENDS
;	COMDAT pdata
pdata	SEGMENT
$pdata$1$??$sort_heap@PEAPEAVIcon@TiledTexture@gfxu@@P6A_NPEBV123@0@Z@std@@YAXPEAPEAVIcon@TiledTexture@gfxu@@0P6A_NPEBV123@1@Z@Z DD imagerel $LN24+101
	DD	imagerel $LN24+117
	DD	imagerel $chain$1$??$sort_heap@PEAPEAVIcon@TiledTexture@gfxu@@P6A_NPEBV123@0@Z@std@@YAXPEAPEAVIcon@TiledTexture@gfxu@@0P6A_NPEBV123@1@Z@Z
pdata	ENDS
;	COMDAT pdata
pdata	SEGMENT
$pdata$??$make_heap@PEAPEAVIcon@TiledTexture@gfxu@@P6A_NPEBV123@0@Z@std@@YAXPEAPEAVIcon@TiledTexture@gfxu@@0P6A_NPEBV123@1@Z@Z DD imagerel $LN13
	DD	imagerel $LN13+30
	DD	imagerel $unwind$??$make_heap@PEAPEAVIcon@TiledTexture@gfxu@@P6A_NPEBV123@0@Z@std@@YAXPEAPEAVIcon@TiledTexture@gfxu@@0P6A_NPEBV123@1@Z@Z
pdata	ENDS
;	COMDAT pdata
pdata	SEGMENT
$pdata$??$_Unguarded_partition@PEAPEAVIcon@TiledTexture@gfxu@@P6A_NPEBV123@0@Z@std@@YA?AU?$pair@PEAPEAVIcon@TiledTexture@gfxu@@PEAPEAV123@@0@PEAPEAVIcon@TiledTexture@gfxu@@0P6A_NPEBV234@1@Z@Z DD imagerel $LN136
	DD	imagerel $LN136+487
	DD	imagerel $unwind$??$_Unguarded_partition@PEAPEAVIcon@TiledTexture@gfxu@@P6A_NPEBV123@0@Z@std@@YA?AU?$pair@PEAPEAVIcon@TiledTexture@gfxu@@PEAPEAV123@@0@PEAPEAVIcon@TiledTexture@gfxu@@0P6A_NPEBV234@1@Z@Z
pdata	ENDS
;	COMDAT pdata
pdata	SEGMENT
$pdata$??F?$_Tree_const_iterator@V?$_Tree_val@U?$_Tree_simple_types@U?$pair@$$CBV?$basic_string@_WU?$char_traits@_W@std@@V?$allocator@_W@2@@std@@PEAVIcon@TiledTexture@gfxu@@@std@@@std@@@std@@@std@@QEAAAEAV01@XZ DD imagerel $LN4
	DD	imagerel $LN4+23
	DD	imagerel $unwind$??F?$_Tree_const_iterator@V?$_Tree_val@U?$_Tree_simple_types@U?$pair@$$CBV?$basic_string@_WU?$char_traits@_W@std@@V?$allocator@_W@2@@std@@PEAVIcon@TiledTexture@gfxu@@@std@@@std@@@std@@@std@@QEAAAEAV01@XZ
pdata	ENDS
;	COMDAT pdata
pdata	SEGMENT
$pdata$?_Buynode0@?$_Tree_buy@U?$pair@$$CBV?$basic_string@_WU?$char_traits@_W@std@@V?$allocator@_W@2@@std@@PEAVIcon@TiledTexture@gfxu@@@std@@V?$allocator@U?$pair@$$CBV?$basic_string@_WU?$char_traits@_W@std@@V?$allocator@_W@2@@std@@PEAVIcon@TiledTexture@gfxu@@@std@@@2@@std@@QEAAPEAU?$_Tree_node@U?$pair@$$CBV?$basic_string@_WU?$char_traits@_W@std@@V?$allocator@_W@2@@std@@PEAVIcon@TiledTexture@gfxu@@@std@@PEAX@2@XZ DD imagerel $LN98
	DD	imagerel $LN98+78
	DD	imagerel $unwind$?_Buynode0@?$_Tree_buy@U?$pair@$$CBV?$basic_string@_WU?$char_traits@_W@std@@V?$allocator@_W@2@@std@@PEAVIcon@TiledTexture@gfxu@@@std@@V?$allocator@U?$pair@$$CBV?$basic_string@_WU?$char_traits@_W@std@@V?$allocator@_W@2@@std@@PEAVIcon@TiledTexture@gfxu@@@std@@@2@@std@@QEAAPEAU?$_Tree_node@U?$pair@$$CBV?$basic_string@_WU?$char_traits@_W@std@@V?$allocator@_W@2@@std@@PEAVIcon@TiledTexture@gfxu@@@std@@PEAX@2@XZ
pdata	ENDS
;	COMDAT pdata
pdata	SEGMENT
$pdata$?_Destroy_if_not_nil@?$_Tree@V?$_Tmap_traits@V?$basic_string@_WU?$char_traits@_W@std@@V?$allocator@_W@2@@std@@PEAVIcon@TiledTexture@gfxu@@U?$less@V?$basic_string@_WU?$char_traits@_W@std@@V?$allocator@_W@2@@std@@@2@V?$allocator@U?$pair@$$CBV?$basic_string@_WU?$char_traits@_W@std@@V?$allocator@_W@2@@std@@PEAVIcon@TiledTexture@gfxu@@@std@@@2@$0A@@std@@@std@@IEAAXPEAU?$_Tree_node@U?$pair@$$CBV?$basic_string@_WU?$char_traits@_W@std@@V?$allocator@_W@2@@std@@PEAVIcon@TiledTexture@gfxu@@@std@@PEAX@2@@Z DD imagerel $LN61
	DD	imagerel $LN61+56
	DD	imagerel $unwind$?_Destroy_if_not_nil@?$_Tree@V?$_Tmap_traits@V?$basic_string@_WU?$char_traits@_W@std@@V?$allocator@_W@2@@std@@PEAVIcon@TiledTexture@gfxu@@U?$less@V?$basic_string@_WU?$char_traits@_W@std@@V?$allocator@_W@2@@std@@@2@V?$allocator@U?$pair@$$CBV?$basic_string@_WU?$char_traits@_W@std@@V?$allocator@_W@2@@std@@PEAVIcon@TiledTexture@gfxu@@@std@@@2@$0A@@std@@@std@@IEAAXPEAU?$_Tree_node@U?$pair@$$CBV?$basic_string@_WU?$char_traits@_W@std@@V?$allocator@_W@2@@std@@PEAVIcon@TiledTexture@gfxu@@@std@@PEAX@2@@Z
pdata	ENDS
;	COMDAT pdata
pdata	SEGMENT
$pdata$??$destroy@U?$pair@$$CBV?$basic_string@_WU?$char_traits@_W@std@@V?$allocator@_W@2@@std@@PEAVIcon@TiledTexture@gfxu@@@std@@@?$allocator_traits@V?$allocator@U?$_Tree_node@U?$pair@$$CBV?$basic_string@_WU?$char_traits@_W@std@@V?$allocator@_W@2@@std@@PEAVIcon@TiledTexture@gfxu@@@std@@PEAX@std@@@std@@@std@@SAXAEAV?$allocator@U?$_Tree_node@U?$pair@$$CBV?$basic_string@_WU?$char_traits@_W@std@@V?$allocator@_W@2@@std@@PEAVIcon@TiledTexture@gfxu@@@std@@PEAX@std@@@1@PEAU?$pair@$$CBV?$basic_string@_WU?$char_traits@_W@std@@V?$allocator@_W@2@@std@@PEAVIcon@TiledTexture@gfxu@@@1@@Z DD imagerel $LN45
	DD	imagerel $LN45+47
	DD	imagerel $unwind$??$destroy@U?$pair@$$CBV?$basic_string@_WU?$char_traits@_W@std@@V?$allocator@_W@2@@std@@PEAVIcon@TiledTexture@gfxu@@@std@@@?$allocator_traits@V?$allocator@U?$_Tree_node@U?$pair@$$CBV?$basic_string@_WU?$char_traits@_W@std@@V?$allocator@_W@2@@std@@PEAVIcon@TiledTexture@gfxu@@@std@@PEAX@std@@@std@@@std@@SAXAEAV?$allocator@U?$_Tree_node@U?$pair@$$CBV?$basic_string@_WU?$char_traits@_W@std@@V?$allocator@_W@2@@std@@PEAVIcon@TiledTexture@gfxu@@@std@@PEAX@std@@@1@PEAU?$pair@$$CBV?$basic_string@_WU?$char_traits@_W@std@@V?$allocator@_W@2@@std@@PEAVIcon@TiledTexture@gfxu@@@1@@Z
pdata	ENDS
;	COMDAT pdata
pdata	SEGMENT
$pdata$??$_Uninitialized_move@PEAPEAVIcon@TiledTexture@gfxu@@PEAPEAV123@U?$_Wrap_alloc@V?$allocator@PEAVIcon@TiledTexture@gfxu@@@std@@@std@@@std@@YAPEAPEAVIcon@TiledTexture@gfxu@@PEAPEAV123@00AEAU?$_Wrap_alloc@V?$allocator@PEAVIcon@TiledTexture@gfxu@@@std@@@0@@Z DD imagerel $LN10
	DD	imagerel $LN10+47
	DD	imagerel $unwind$??$_Uninitialized_move@PEAPEAVIcon@TiledTexture@gfxu@@PEAPEAV123@U?$_Wrap_alloc@V?$allocator@PEAVIcon@TiledTexture@gfxu@@@std@@@std@@@std@@YAPEAPEAVIcon@TiledTexture@gfxu@@PEAPEAV123@00AEAU?$_Wrap_alloc@V?$allocator@PEAVIcon@TiledTexture@gfxu@@@std@@@0@@Z
pdata	ENDS
;	COMDAT pdata
pdata	SEGMENT
$pdata$??$_Uninit_def_fill_n@PEAVMatrix@geom@@_KPEAV12@@std@@YAXPEAPEAVMatrix@geom@@_KAEAU?$_Wrap_alloc@V?$allocator@PEAVMatrix@geom@@@std@@@0@0U_Scalar_ptr_iterator_tag@0@@Z DD imagerel $LN12
	DD	imagerel $LN12+9
	DD	imagerel $unwind$??$_Uninit_def_fill_n@PEAVMatrix@geom@@_KPEAV12@@std@@YAXPEAPEAVMatrix@geom@@_KAEAU?$_Wrap_alloc@V?$allocator@PEAVMatrix@geom@@@std@@@0@0U_Scalar_ptr_iterator_tag@0@@Z
pdata	ENDS
;	COMDAT pdata
pdata	SEGMENT
$pdata$0$??$_Uninit_def_fill_n@PEAVMatrix@geom@@_KPEAV12@@std@@YAXPEAPEAVMatrix@geom@@_KAEAU?$_Wrap_alloc@V?$allocator@PEAVMatrix@geom@@@std@@@0@0U_Scalar_ptr_iterator_tag@0@@Z DD imagerel $LN12+9
	DD	imagerel $LN12+28
	DD	imagerel $chain$0$??$_Uninit_def_fill_n@PEAVMatrix@geom@@_KPEAV12@@std@@YAXPEAPEAVMatrix@geom@@_KAEAU?$_Wrap_alloc@V?$allocator@PEAVMatrix@geom@@@std@@@0@0U_Scalar_ptr_iterator_tag@0@@Z
pdata	ENDS
;	COMDAT pdata
pdata	SEGMENT
$pdata$1$??$_Uninit_def_fill_n@PEAVMatrix@geom@@_KPEAV12@@std@@YAXPEAPEAVMatrix@geom@@_KAEAU?$_Wrap_alloc@V?$allocator@PEAVMatrix@geom@@@std@@@0@0U_Scalar_ptr_iterator_tag@0@@Z DD imagerel $LN12+28
	DD	imagerel $LN12+33
	DD	imagerel $chain$1$??$_Uninit_def_fill_n@PEAVMatrix@geom@@_KPEAV12@@std@@YAXPEAPEAVMatrix@geom@@_KAEAU?$_Wrap_alloc@V?$allocator@PEAVMatrix@geom@@@std@@@0@0U_Scalar_ptr_iterator_tag@0@@Z
pdata	ENDS
;	COMDAT pdata
pdata	SEGMENT
$pdata$??$_Uninit_copy@PEAVMatrix@geom@@PEAV12@@std@@YAPEAPEAVMatrix@geom@@PEAPEAV12@00AEAU?$_Wrap_alloc@V?$allocator@PEAVMatrix@geom@@@std@@@0@U_Scalar_ptr_iterator_tag@0@@Z DD imagerel $LN4
	DD	imagerel $LN4+47
	DD	imagerel $unwind$??$_Uninit_copy@PEAVMatrix@geom@@PEAV12@@std@@YAPEAPEAVMatrix@geom@@PEAPEAV12@00AEAU?$_Wrap_alloc@V?$allocator@PEAVMatrix@geom@@@std@@@0@U_Scalar_ptr_iterator_tag@0@@Z
pdata	ENDS
;	COMDAT pdata
pdata	SEGMENT
$pdata$??$rotate@V?$_Deque_iterator@V?$_Deque_val@U?$_Deque_simple_types@VMatrix@geom@@@std@@@std@@@std@@@std@@YA?AV?$_Deque_iterator@V?$_Deque_val@U?$_Deque_simple_types@VMatrix@geom@@@std@@@std@@@0@V10@00@Z DD imagerel $LN142
	DD	imagerel $LN142+474
	DD	imagerel $unwind$??$rotate@V?$_Deque_iterator@V?$_Deque_val@U?$_Deque_simple_types@VMatrix@geom@@@std@@@std@@@std@@@std@@YA?AV?$_Deque_iterator@V?$_Deque_val@U?$_Deque_simple_types@VMatrix@geom@@@std@@@std@@@0@V10@00@Z
pdata	ENDS
;	COMDAT pdata
pdata	SEGMENT
$pdata$??$reverse@V?$_Deque_iterator@V?$_Deque_val@U?$_Deque_simple_types@VMatrix@geom@@@std@@@std@@@std@@@std@@YAXV?$_Deque_iterator@V?$_Deque_val@U?$_Deque_simple_types@VMatrix@geom@@@std@@@std@@@0@0@Z DD imagerel $LN118
	DD	imagerel $LN118+13
	DD	imagerel $unwind$??$reverse@V?$_Deque_iterator@V?$_Deque_val@U?$_Deque_simple_types@VMatrix@geom@@@std@@@std@@@std@@@std@@YAXV?$_Deque_iterator@V?$_Deque_val@U?$_Deque_simple_types@VMatrix@geom@@@std@@@std@@@0@0@Z
pdata	ENDS
;	COMDAT pdata
pdata	SEGMENT
$pdata$0$??$reverse@V?$_Deque_iterator@V?$_Deque_val@U?$_Deque_simple_types@VMatrix@geom@@@std@@@std@@@std@@@std@@YAXV?$_Deque_iterator@V?$_Deque_val@U?$_Deque_simple_types@VMatrix@geom@@@std@@@std@@@0@0@Z DD imagerel $LN118+13
	DD	imagerel $LN118+164
	DD	imagerel $chain$0$??$reverse@V?$_Deque_iterator@V?$_Deque_val@U?$_Deque_simple_types@VMatrix@geom@@@std@@@std@@@std@@@std@@YAXV?$_Deque_iterator@V?$_Deque_val@U?$_Deque_simple_types@VMatrix@geom@@@std@@@std@@@0@0@Z
pdata	ENDS
;	COMDAT pdata
pdata	SEGMENT
$pdata$1$??$reverse@V?$_Deque_iterator@V?$_Deque_val@U?$_Deque_simple_types@VMatrix@geom@@@std@@@std@@@std@@@std@@YAXV?$_Deque_iterator@V?$_Deque_val@U?$_Deque_simple_types@VMatrix@geom@@@std@@@std@@@0@0@Z DD imagerel $LN118+164
	DD	imagerel $LN118+208
	DD	imagerel $chain$1$??$reverse@V?$_Deque_iterator@V?$_Deque_val@U?$_Deque_simple_types@VMatrix@geom@@@std@@@std@@@std@@@std@@YAXV?$_Deque_iterator@V?$_Deque_val@U?$_Deque_simple_types@VMatrix@geom@@@std@@@std@@@0@0@Z
pdata	ENDS
;	COMDAT pdata
pdata	SEGMENT
$pdata$2$??$reverse@V?$_Deque_iterator@V?$_Deque_val@U?$_Deque_simple_types@VMatrix@geom@@@std@@@std@@@std@@@std@@YAXV?$_Deque_iterator@V?$_Deque_val@U?$_Deque_simple_types@VMatrix@geom@@@std@@@std@@@0@0@Z DD imagerel $LN118+208
	DD	imagerel $LN118+286
	DD	imagerel $chain$2$??$reverse@V?$_Deque_iterator@V?$_Deque_val@U?$_Deque_simple_types@VMatrix@geom@@@std@@@std@@@std@@@std@@YAXV?$_Deque_iterator@V?$_Deque_val@U?$_Deque_simple_types@VMatrix@geom@@@std@@@std@@@0@0@Z
pdata	ENDS
;	COMDAT pdata
pdata	SEGMENT
$pdata$3$??$reverse@V?$_Deque_iterator@V?$_Deque_val@U?$_Deque_simple_types@VMatrix@geom@@@std@@@std@@@std@@@std@@YAXV?$_Deque_iterator@V?$_Deque_val@U?$_Deque_simple_types@VMatrix@geom@@@std@@@std@@@0@0@Z DD imagerel $LN118+286
	DD	imagerel $LN118+294
	DD	imagerel $chain$3$??$reverse@V?$_Deque_iterator@V?$_Deque_val@U?$_Deque_simple_types@VMatrix@geom@@@std@@@std@@@std@@@std@@YAXV?$_Deque_iterator@V?$_Deque_val@U?$_Deque_simple_types@VMatrix@geom@@@std@@@std@@@0@0@Z
pdata	ENDS
;	COMDAT pdata
pdata	SEGMENT
$pdata$??$_Uninitialized_move@PEAVVertexUVRGBA@gfxu@@PEAV12@U?$_Wrap_alloc@V?$allocator@VVertexUVRGBA@gfxu@@@std@@@std@@@std@@YAPEAVVertexUVRGBA@gfxu@@PEAV12@00AEAU?$_Wrap_alloc@V?$allocator@VVertexUVRGBA@gfxu@@@std@@@0@@Z DD imagerel $LN8
	DD	imagerel $LN8+14
	DD	imagerel $unwind$??$_Uninitialized_move@PEAVVertexUVRGBA@gfxu@@PEAV12@U?$_Wrap_alloc@V?$allocator@VVertexUVRGBA@gfxu@@@std@@@std@@@std@@YAPEAVVertexUVRGBA@gfxu@@PEAV12@00AEAU?$_Wrap_alloc@V?$allocator@VVertexUVRGBA@gfxu@@@std@@@0@@Z
pdata	ENDS
;	COMDAT pdata
pdata	SEGMENT
$pdata$??$_Insert_hint@AEAU?$pair@$$CBV?$basic_string@_WU?$char_traits@_W@std@@V?$allocator@_W@2@@std@@PEAVIcon@TiledTexture@gfxu@@@std@@PEAU?$_Tree_node@U?$pair@$$CBV?$basic_string@_WU?$char_traits@_W@std@@V?$allocator@_W@2@@std@@PEAVIcon@TiledTexture@gfxu@@@std@@PEAX@2@@?$_Tree@V?$_Tmap_traits@V?$basic_string@_WU?$char_traits@_W@std@@V?$allocator@_W@2@@std@@PEAVIcon@TiledTexture@gfxu@@U?$less@V?$basic_string@_WU?$char_traits@_W@std@@V?$allocator@_W@2@@std@@@2@V?$allocator@U?$pair@$$CBV?$basic_string@_WU?$char_traits@_W@std@@V?$allocator@_W@2@@std@@PEAVIcon@TiledTexture@gfxu@@@std@@@2@$0A@@std@@@std@@IEAA?AV?$_Tree_iterator@V?$_Tree_val@U?$_Tree_simple_types@U?$pair@$$CBV?$basic_string@_WU?$char_traits@_W@std@@V?$allocator@_W@2@@std@@PEAVIcon@TiledTexture@gfxu@@@std@@@std@@@std@@@1@V?$_Tree_const_iterator@V?$_Tree_val@U?$_Tree_simple_types@U?$pair@$$CBV?$basic_string@_WU?$char_traits@_W@std@@V?$allocator@_W@2@@std@@PEAVIcon@TiledTexture@gfxu@@@std@@@std@@@std@@@1@AEAU?$pair@$$CBV?$basic_string@_WU?$char_traits@_W@std@@V?$allocator@_W@2@@std@@PEAVIcon@TiledTexture@gfxu@@@1@PEAU?$_Tree_node@U?$pair@$$CBV?$basic_string@_WU?$char_traits@_W@std@@V?$allocator@_W@2@@std@@PEAVIcon@TiledTexture@gfxu@@@std@@PEAX@1@@Z DD imagerel $LN612
	DD	imagerel $LN612+687
	DD	imagerel $unwind$??$_Insert_hint@AEAU?$pair@$$CBV?$basic_string@_WU?$char_traits@_W@std@@V?$allocator@_W@2@@std@@PEAVIcon@TiledTexture@gfxu@@@std@@PEAU?$_Tree_node@U?$pair@$$CBV?$basic_string@_WU?$char_traits@_W@std@@V?$allocator@_W@2@@std@@PEAVIcon@TiledTexture@gfxu@@@std@@PEAX@2@@?$_Tree@V?$_Tmap_traits@V?$basic_string@_WU?$char_traits@_W@std@@V?$allocator@_W@2@@std@@PEAVIcon@TiledTexture@gfxu@@U?$less@V?$basic_string@_WU?$char_traits@_W@std@@V?$allocator@_W@2@@std@@@2@V?$allocator@U?$pair@$$CBV?$basic_string@_WU?$char_traits@_W@std@@V?$allocator@_W@2@@std@@PEAVIcon@TiledTexture@gfxu@@@std@@@2@$0A@@std@@@std@@IEAA?AV?$_Tree_iterator@V?$_Tree_val@U?$_Tree_simple_types@U?$pair@$$CBV?$basic_string@_WU?$char_traits@_W@std@@V?$allocator@_W@2@@std@@PEAVIcon@TiledTexture@gfxu@@@std@@@std@@@std@@@1@V?$_Tree_const_iterator@V?$_Tree_val@U?$_Tree_simple_types@U?$pair@$$CBV?$basic_string@_WU?$char_traits@_W@std@@V?$allocator@_W@2@@std@@PEAVIcon@TiledTexture@gfxu@@@std@@@std@@@std@@@1@AEAU?$pair@$$CBV?$basic_string@_WU?$char_traits@_W@std@@V?$allocator@_W@2@@std@@PEAVIcon@TiledTexture@gfxu@@@1@PEAU?$_Tree_node@U?$pair@$$CBV?$basic_string@_WU?$char_traits@_W@std@@V?$allocator@_W@2@@std@@PEAVIcon@TiledTexture@gfxu@@@std@@PEAX@1@@Z
pdata	ENDS
;	COMDAT pdata
pdata	SEGMENT
$pdata$?catch$0@?0???$_Insert_hint@AEAU?$pair@$$CBV?$basic_string@_WU?$char_traits@_W@std@@V?$allocator@_W@2@@std@@PEAVIcon@TiledTexture@gfxu@@@std@@PEAU?$_Tree_node@U?$pair@$$CBV?$basic_string@_WU?$char_traits@_W@std@@V?$allocator@_W@2@@std@@PEAVIcon@TiledTexture@gfxu@@@std@@PEAX@2@@?$_Tree@V?$_Tmap_traits@V?$basic_string@_WU?$char_traits@_W@std@@V?$allocator@_W@2@@std@@PEAVIcon@TiledTexture@gfxu@@U?$less@V?$basic_string@_WU?$char_traits@_W@std@@V?$allocator@_W@2@@std@@@2@V?$allocator@U?$pair@$$CBV?$basic_string@_WU?$char_traits@_W@std@@V?$allocator@_W@2@@std@@PEAVIcon@TiledTexture@gfxu@@@std@@@2@$0A@@std@@@std@@IEAA?AV?$_Tree_iterator@V?$_Tree_val@U?$_Tree_simple_types@U?$pair@$$CBV?$basic_string@_WU?$char_traits@_W@std@@V?$allocator@_W@2@@std@@PEAVIcon@TiledTexture@gfxu@@@std@@@std@@@std@@@1@V?$_Tree_const_iterator@V?$_Tree_val@U?$_Tree_simple_types@U?$pair@$$CBV?$basic_string@_WU?$char_traits@_W@std@@V?$allocator@_W@2@@std@@PEAVIcon@TiledTexture@gfxu@@@std@@@std@@@std@@@1@AEAU?$pair@$$CBV?$basic_string@_WU?$char_traits@_W@std@@V?$allocator@_W@2@@std@@PEAVIcon@TiledTexture@gfxu@@@1@PEAU?$_Tree_node@U?$pair@$$CBV?$basic_string@_WU?$char_traits@_W@std@@V?$allocator@_W@2@@std@@PEAVIcon@TiledTexture@gfxu@@@std@@PEAX@1@@Z@4HA DD imagerel ?catch$0@?0???$_Insert_hint@AEAU?$pair@$$CBV?$basic_string@_WU?$char_traits@_W@std@@V?$allocator@_W@2@@std@@PEAVIcon@TiledTexture@gfxu@@@std@@PEAU?$_Tree_node@U?$pair@$$CBV?$basic_string@_WU?$char_traits@_W@std@@V?$allocator@_W@2@@std@@PEAVIcon@TiledTexture@gfxu@@@std@@PEAX@2@@?$_Tree@V?$_Tmap_traits@V?$basic_string@_WU?$char_traits@_W@std@@V?$allocator@_W@2@@std@@PEAVIcon@TiledTexture@gfxu@@U?$less@V?$basic_string@_WU?$char_traits@_W@std@@V?$allocator@_W@2@@std@@@2@V?$allocator@U?$pair@$$CBV?$basic_string@_WU?$char_traits@_W@std@@V?$allocator@_W@2@@std@@PEAVIcon@TiledTexture@gfxu@@@std@@@2@$0A@@std@@@std@@IEAA?AV?$_Tree_iterator@V?$_Tree_val@U?$_Tree_simple_types@U?$pair@$$CBV?$basic_string@_WU?$char_traits@_W@std@@V?$allocator@_W@2@@std@@PEAVIcon@TiledTexture@gfxu@@@std@@@std@@@std@@@1@V?$_Tree_const_iterator@V?$_Tree_val@U?$_Tree_simple_types@U?$pair@$$CBV?$basic_string@_WU?$char_traits@_W@std@@V?$allocator@_W@2@@std@@PEAVIcon@TiledTexture@gfxu@@@std@@@std@@@std@@@1@AEAU?$pair@$$CBV?$basic_string@_WU?$char_traits@_W@std@@V?$allocator@_W@2@@std@@PEAVIcon@TiledTexture@gfxu@@@1@PEAU?$_Tree_node@U?$pair@$$CBV?$basic_string@_WU?$char_traits@_W@std@@V?$allocator@_W@2@@std@@PEAVIcon@TiledTexture@gfxu@@@std@@PEAX@1@@Z@4HA
	DD	imagerel ?catch$0@?0???$_Insert_hint@AEAU?$pair@$$CBV?$basic_string@_WU?$char_traits@_W@std@@V?$allocator@_W@2@@std@@PEAVIcon@TiledTexture@gfxu@@@std@@PEAU?$_Tree_node@U?$pair@$$CBV?$basic_string@_WU?$char_traits@_W@std@@V?$allocator@_W@2@@std@@PEAVIcon@TiledTexture@gfxu@@@std@@PEAX@2@@?$_Tree@V?$_Tmap_traits@V?$basic_string@_WU?$char_traits@_W@std@@V?$allocator@_W@2@@std@@PEAVIcon@TiledTexture@gfxu@@U?$less@V?$basic_string@_WU?$char_traits@_W@std@@V?$allocator@_W@2@@std@@@2@V?$allocator@U?$pair@$$CBV?$basic_string@_WU?$char_traits@_W@std@@V?$allocator@_W@2@@std@@PEAVIcon@TiledTexture@gfxu@@@std@@@2@$0A@@std@@@std@@IEAA?AV?$_Tree_iterator@V?$_Tree_val@U?$_Tree_simple_types@U?$pair@$$CBV?$basic_string@_WU?$char_traits@_W@std@@V?$allocator@_W@2@@std@@PEAVIcon@TiledTexture@gfxu@@@std@@@std@@@std@@@1@V?$_Tree_const_iterator@V?$_Tree_val@U?$_Tree_simple_types@U?$pair@$$CBV?$basic_string@_WU?$char_traits@_W@std@@V?$allocator@_W@2@@std@@PEAVIcon@TiledTexture@gfxu@@@std@@@std@@@std@@@1@AEAU?$pair@$$CBV?$basic_string@_WU?$char_traits@_W@std@@V?$allocator@_W@2@@std@@PEAVIcon@TiledTexture@gfxu@@@1@PEAU?$_Tree_node@U?$pair@$$CBV?$basic_string@_WU?$char_traits@_W@std@@V?$allocator@_W@2@@std@@PEAVIcon@TiledTexture@gfxu@@@std@@PEAX@1@@Z@4HA+35
	DD	imagerel $unwind$?catch$0@?0???$_Insert_hint@AEAU?$pair@$$CBV?$basic_string@_WU?$char_traits@_W@std@@V?$allocator@_W@2@@std@@PEAVIcon@TiledTexture@gfxu@@@std@@PEAU?$_Tree_node@U?$pair@$$CBV?$basic_string@_WU?$char_traits@_W@std@@V?$allocator@_W@2@@std@@PEAVIcon@TiledTexture@gfxu@@@std@@PEAX@2@@?$_Tree@V?$_Tmap_traits@V?$basic_string@_WU?$char_traits@_W@std@@V?$allocator@_W@2@@std@@PEAVIcon@TiledTexture@gfxu@@U?$less@V?$basic_string@_WU?$char_traits@_W@std@@V?$allocator@_W@2@@std@@@2@V?$allocator@U?$pair@$$CBV?$basic_string@_WU?$char_traits@_W@std@@V?$allocator@_W@2@@std@@PEAVIcon@TiledTexture@gfxu@@@std@@@2@$0A@@std@@@std@@IEAA?AV?$_Tree_iterator@V?$_Tree_val@U?$_Tree_simple_types@U?$pair@$$CBV?$basic_string@_WU?$char_traits@_W@std@@V?$allocator@_W@2@@std@@PEAVIcon@TiledTexture@gfxu@@@std@@@std@@@std@@@1@V?$_Tree_const_iterator@V?$_Tree_val@U?$_Tree_simple_types@U?$pair@$$CBV?$basic_string@_WU?$char_traits@_W@std@@V?$allocator@_W@2@@std@@PEAVIcon@TiledTexture@gfxu@@@std@@@std@@@std@@@1@AEAU?$pair@$$CBV?$basic_string@_WU?$char_traits@_W@std@@V?$allocator@_W@2@@std@@PEAVIcon@TiledTexture@gfxu@@@1@PEAU?$_Tree_node@U?$pair@$$CBV?$basic_string@_WU?$char_traits@_W@std@@V?$allocator@_W@2@@std@@PEAVIcon@TiledTexture@gfxu@@@std@@PEAX@1@@Z@4HA
pdata	ENDS
;	COMDAT pdata
pdata	SEGMENT
$pdata$??$_Buynode@U?$pair@V?$basic_string@_WU?$char_traits@_W@std@@V?$allocator@_W@2@@std@@PEAVIcon@TiledTexture@gfxu@@@std@@@?$_Tree_buy@U?$pair@$$CBV?$basic_string@_WU?$char_traits@_W@std@@V?$allocator@_W@2@@std@@PEAVIcon@TiledTexture@gfxu@@@std@@V?$allocator@U?$pair@$$CBV?$basic_string@_WU?$char_traits@_W@std@@V?$allocator@_W@2@@std@@PEAVIcon@TiledTexture@gfxu@@@std@@@2@@std@@QEAAPEAU?$_Tree_node@U?$pair@$$CBV?$basic_string@_WU?$char_traits@_W@std@@V?$allocator@_W@2@@std@@PEAVIcon@TiledTexture@gfxu@@@std@@PEAX@1@$$QEAU?$pair@V?$basic_string@_WU?$char_traits@_W@std@@V?$allocator@_W@2@@std@@PEAVIcon@TiledTexture@gfxu@@@1@@Z DD imagerel $LN63
	DD	imagerel $LN63+58
	DD	imagerel $unwind$??$_Buynode@U?$pair@V?$basic_string@_WU?$char_traits@_W@std@@V?$allocator@_W@2@@std@@PEAVIcon@TiledTexture@gfxu@@@std@@@?$_Tree_buy@U?$pair@$$CBV?$basic_string@_WU?$char_traits@_W@std@@V?$allocator@_W@2@@std@@PEAVIcon@TiledTexture@gfxu@@@std@@V?$allocator@U?$pair@$$CBV?$basic_string@_WU?$char_traits@_W@std@@V?$allocator@_W@2@@std@@PEAVIcon@TiledTexture@gfxu@@@std@@@2@@std@@QEAAPEAU?$_Tree_node@U?$pair@$$CBV?$basic_string@_WU?$char_traits@_W@std@@V?$allocator@_W@2@@std@@PEAVIcon@TiledTexture@gfxu@@@std@@PEAX@1@$$QEAU?$pair@V?$basic_string@_WU?$char_traits@_W@std@@V?$allocator@_W@2@@std@@PEAVIcon@TiledTexture@gfxu@@@1@@Z
pdata	ENDS
;	COMDAT pdata
pdata	SEGMENT
$pdata$??$_Sort@PEAPEAVIcon@TiledTexture@gfxu@@_JP6A_NPEBV123@0@Z@std@@YAXPEAPEAVIcon@TiledTexture@gfxu@@0_JP6A_NPEBV123@2@Z@Z DD imagerel $LN57
	DD	imagerel $LN57+333
	DD	imagerel $unwind$??$_Sort@PEAPEAVIcon@TiledTexture@gfxu@@_JP6A_NPEBV123@0@Z@std@@YAXPEAPEAVIcon@TiledTexture@gfxu@@0_JP6A_NPEBV123@2@Z@Z
pdata	ENDS
;	COMDAT pdata
pdata	SEGMENT
$pdata$?compare@?$basic_string@_WU?$char_traits@_W@std@@V?$allocator@_W@2@@std@@QEBAH_K0PEB_W0@Z DD imagerel $LN36
	DD	imagerel $LN36+128
	DD	imagerel $unwind$?compare@?$basic_string@_WU?$char_traits@_W@std@@V?$allocator@_W@2@@std@@QEBAH_K0PEB_W0@Z
pdata	ENDS
;	COMDAT pdata
pdata	SEGMENT
$pdata$??H?$_Deque_iterator@V?$_Deque_val@U?$_Deque_simple_types@VMatrix@geom@@@std@@@std@@@std@@QEBA?AV01@_J@Z DD imagerel $LN53
	DD	imagerel $LN53+171
	DD	imagerel $unwind$??H?$_Deque_iterator@V?$_Deque_val@U?$_Deque_simple_types@VMatrix@geom@@@std@@@std@@@std@@QEBA?AV01@_J@Z
pdata	ENDS
;	COMDAT pdata
pdata	SEGMENT
$pdata$?push_front@?$deque@VMatrix@geom@@V?$allocator@VMatrix@geom@@@std@@@std@@QEAAXAEBVMatrix@geom@@@Z DD imagerel $LN45
	DD	imagerel $LN45+260
	DD	imagerel $unwind$?push_front@?$deque@VMatrix@geom@@V?$allocator@VMatrix@geom@@@std@@@std@@QEAAXAEBVMatrix@geom@@@Z
pdata	ENDS
;	COMDAT pdata
pdata	SEGMENT
$pdata$?compare@?$basic_string@_WU?$char_traits@_W@std@@V?$allocator@_W@2@@std@@QEBAHAEBV12@@Z DD imagerel $LN47
	DD	imagerel $LN47+129
	DD	imagerel $unwind$?compare@?$basic_string@_WU?$char_traits@_W@std@@V?$allocator@_W@2@@std@@QEBAHAEBV12@@Z
pdata	ENDS
;	COMDAT pdata
pdata	SEGMENT
$pdata$??$_Allocate@U?$_Tree_node@U?$pair@$$CBV?$basic_string@_WU?$char_traits@_W@std@@V?$allocator@_W@2@@std@@PEAVIcon@TiledTexture@gfxu@@@std@@PEAX@std@@@std@@YAPEAU?$_Tree_node@U?$pair@$$CBV?$basic_string@_WU?$char_traits@_W@std@@V?$allocator@_W@2@@std@@PEAVIcon@TiledTexture@gfxu@@@std@@PEAX@0@_KPEAU10@@Z DD imagerel $LN14
	DD	imagerel $LN14+48
	DD	imagerel $unwind$??$_Allocate@U?$_Tree_node@U?$pair@$$CBV?$basic_string@_WU?$char_traits@_W@std@@V?$allocator@_W@2@@std@@PEAVIcon@TiledTexture@gfxu@@@std@@PEAX@std@@@std@@YAPEAU?$_Tree_node@U?$pair@$$CBV?$basic_string@_WU?$char_traits@_W@std@@V?$allocator@_W@2@@std@@PEAVIcon@TiledTexture@gfxu@@@std@@PEAX@0@_KPEAU10@@Z
pdata	ENDS
;	COMDAT pdata
pdata	SEGMENT
$pdata$??$_Allocate@PEAVIcon@TiledTexture@gfxu@@@std@@YAPEAPEAVIcon@TiledTexture@gfxu@@_KPEAPEAV123@@Z DD imagerel $LN14
	DD	imagerel $LN14+48
	DD	imagerel $unwind$??$_Allocate@PEAVIcon@TiledTexture@gfxu@@@std@@YAPEAPEAVIcon@TiledTexture@gfxu@@_KPEAPEAV123@@Z
pdata	ENDS
;	COMDAT pdata
pdata	SEGMENT
$pdata$??$_Allocate@PEAVMatrix@geom@@@std@@YAPEAPEAVMatrix@geom@@_KPEAPEAV12@@Z DD imagerel $LN14
	DD	imagerel $LN14+48
	DD	imagerel $unwind$??$_Allocate@PEAVMatrix@geom@@@std@@YAPEAPEAVMatrix@geom@@_KPEAPEAV12@@Z
pdata	ENDS
;	COMDAT pdata
pdata	SEGMENT
$pdata$??$_Allocate@VMatrix@geom@@@std@@YAPEAVMatrix@geom@@_KPEAV12@@Z DD imagerel $LN14
	DD	imagerel $LN14+44
	DD	imagerel $unwind$??$_Allocate@VMatrix@geom@@@std@@YAPEAVMatrix@geom@@_KPEAV12@@Z
pdata	ENDS
;	COMDAT pdata
pdata	SEGMENT
$pdata$??$_Allocate@VVertexUVRGBA@gfxu@@@std@@YAPEAVVertexUVRGBA@gfxu@@_KPEAV12@@Z DD imagerel $LN14
	DD	imagerel $LN14+48
	DD	imagerel $unwind$??$_Allocate@VVertexUVRGBA@gfxu@@@std@@YAPEAVVertexUVRGBA@gfxu@@_KPEAV12@@Z
pdata	ENDS
;	COMDAT pdata
pdata	SEGMENT
$pdata$??$destroy@U?$pair@$$CBV?$basic_string@_WU?$char_traits@_W@std@@V?$allocator@_W@2@@std@@PEAVIcon@TiledTexture@gfxu@@@std@@@?$_Wrap_alloc@V?$allocator@U?$_Tree_node@U?$pair@$$CBV?$basic_string@_WU?$char_traits@_W@std@@V?$allocator@_W@2@@std@@PEAVIcon@TiledTexture@gfxu@@@std@@PEAX@std@@@std@@@std@@QEAAXPEAU?$pair@$$CBV?$basic_string@_WU?$char_traits@_W@std@@V?$allocator@_W@2@@std@@PEAVIcon@TiledTexture@gfxu@@@1@@Z DD imagerel $LN47
	DD	imagerel $LN47+47
	DD	imagerel $unwind$??$destroy@U?$pair@$$CBV?$basic_string@_WU?$char_traits@_W@std@@V?$allocator@_W@2@@std@@PEAVIcon@TiledTexture@gfxu@@@std@@@?$_Wrap_alloc@V?$allocator@U?$_Tree_node@U?$pair@$$CBV?$basic_string@_WU?$char_traits@_W@std@@V?$allocator@_W@2@@std@@PEAVIcon@TiledTexture@gfxu@@@std@@PEAX@std@@@std@@@std@@QEAAXPEAU?$pair@$$CBV?$basic_string@_WU?$char_traits@_W@std@@V?$allocator@_W@2@@std@@PEAVIcon@TiledTexture@gfxu@@@1@@Z
pdata	ENDS
;	COMDAT pdata
pdata	SEGMENT
$pdata$??$_Umove@PEAPEAVIcon@TiledTexture@gfxu@@@?$vector@PEAVIcon@TiledTexture@gfxu@@V?$allocator@PEAVIcon@TiledTexture@gfxu@@@std@@@std@@IEAAPEAPEAVIcon@TiledTexture@gfxu@@PEAPEAV234@00@Z DD imagerel $LN12
	DD	imagerel $LN12+41
	DD	imagerel $unwind$??$_Umove@PEAPEAVIcon@TiledTexture@gfxu@@@?$vector@PEAVIcon@TiledTexture@gfxu@@V?$allocator@PEAVIcon@TiledTexture@gfxu@@@std@@@std@@IEAAPEAPEAVIcon@TiledTexture@gfxu@@PEAPEAV234@00@Z
pdata	ENDS
;	COMDAT pdata
pdata	SEGMENT
$pdata$??$_Uninitialized_default_fill_n@PEAPEAVMatrix@geom@@_KU?$_Wrap_alloc@V?$allocator@PEAVMatrix@geom@@@std@@@std@@@std@@YAXPEAPEAVMatrix@geom@@_KAEAU?$_Wrap_alloc@V?$allocator@PEAVMatrix@geom@@@std@@@0@@Z DD imagerel $LN18
	DD	imagerel $LN18+9
	DD	imagerel $unwind$??$_Uninitialized_default_fill_n@PEAPEAVMatrix@geom@@_KU?$_Wrap_alloc@V?$allocator@PEAVMatrix@geom@@@std@@@std@@@std@@YAXPEAPEAVMatrix@geom@@_KAEAU?$_Wrap_alloc@V?$allocator@PEAVMatrix@geom@@@std@@@0@@Z
pdata	ENDS
;	COMDAT pdata
pdata	SEGMENT
$pdata$0$??$_Uninitialized_default_fill_n@PEAPEAVMatrix@geom@@_KU?$_Wrap_alloc@V?$allocator@PEAVMatrix@geom@@@std@@@std@@@std@@YAXPEAPEAVMatrix@geom@@_KAEAU?$_Wrap_alloc@V?$allocator@PEAVMatrix@geom@@@std@@@0@@Z DD imagerel $LN18+9
	DD	imagerel $LN18+28
	DD	imagerel $chain$0$??$_Uninitialized_default_fill_n@PEAPEAVMatrix@geom@@_KU?$_Wrap_alloc@V?$allocator@PEAVMatrix@geom@@@std@@@std@@@std@@YAXPEAPEAVMatrix@geom@@_KAEAU?$_Wrap_alloc@V?$allocator@PEAVMatrix@geom@@@std@@@0@@Z
pdata	ENDS
;	COMDAT pdata
pdata	SEGMENT
$pdata$1$??$_Uninitialized_default_fill_n@PEAPEAVMatrix@geom@@_KU?$_Wrap_alloc@V?$allocator@PEAVMatrix@geom@@@std@@@std@@@std@@YAXPEAPEAVMatrix@geom@@_KAEAU?$_Wrap_alloc@V?$allocator@PEAVMatrix@geom@@@std@@@0@@Z DD imagerel $LN18+28
	DD	imagerel $LN18+33
	DD	imagerel $chain$1$??$_Uninitialized_default_fill_n@PEAPEAVMatrix@geom@@_KU?$_Wrap_alloc@V?$allocator@PEAVMatrix@geom@@@std@@@std@@@std@@YAXPEAPEAVMatrix@geom@@_KAEAU?$_Wrap_alloc@V?$allocator@PEAVMatrix@geom@@@std@@@0@@Z
pdata	ENDS
;	COMDAT pdata
pdata	SEGMENT
$pdata$??$_Uninitialized_copy@PEAPEAVMatrix@geom@@PEAPEAV12@U?$_Wrap_alloc@V?$allocator@PEAVMatrix@geom@@@std@@@std@@@std@@YAPEAPEAVMatrix@geom@@PEAPEAV12@00AEAU?$_Wrap_alloc@V?$allocator@PEAVMatrix@geom@@@std@@@0@@Z DD imagerel $LN8
	DD	imagerel $LN8+47
	DD	imagerel $unwind$??$_Uninitialized_copy@PEAPEAVMatrix@geom@@PEAPEAV12@U?$_Wrap_alloc@V?$allocator@PEAVMatrix@geom@@@std@@@std@@@std@@YAPEAPEAVMatrix@geom@@PEAPEAV12@00AEAU?$_Wrap_alloc@V?$allocator@PEAVMatrix@geom@@@std@@@0@@Z
pdata	ENDS
;	COMDAT pdata
pdata	SEGMENT
$pdata$??$insert@V?$_Deque_const_iterator@V?$_Deque_val@U?$_Deque_simple_types@VMatrix@geom@@@std@@@std@@@std@@@?$deque@VMatrix@geom@@V?$allocator@VMatrix@geom@@@std@@@std@@QEAA?AV?$_Deque_iterator@V?$_Deque_val@U?$_Deque_simple_types@VMatrix@geom@@@std@@@std@@@1@V?$_Deque_const_iterator@V?$_Deque_val@U?$_Deque_simple_types@VMatrix@geom@@@std@@@std@@@1@00@Z DD imagerel $LN92
	DD	imagerel $LN92+594
	DD	imagerel $unwind$??$insert@V?$_Deque_const_iterator@V?$_Deque_val@U?$_Deque_simple_types@VMatrix@geom@@@std@@@std@@@std@@@?$deque@VMatrix@geom@@V?$allocator@VMatrix@geom@@@std@@@std@@QEAA?AV?$_Deque_iterator@V?$_Deque_val@U?$_Deque_simple_types@VMatrix@geom@@@std@@@std@@@1@V?$_Deque_const_iterator@V?$_Deque_val@U?$_Deque_simple_types@VMatrix@geom@@@std@@@std@@@1@00@Z
pdata	ENDS
;	COMDAT pdata
pdata	SEGMENT
$pdata$?catch$0@?0???$insert@V?$_Deque_const_iterator@V?$_Deque_val@U?$_Deque_simple_types@VMatrix@geom@@@std@@@std@@@std@@@?$deque@VMatrix@geom@@V?$allocator@VMatrix@geom@@@std@@@std@@QEAA?AV?$_Deque_iterator@V?$_Deque_val@U?$_Deque_simple_types@VMatrix@geom@@@std@@@std@@@1@V?$_Deque_const_iterator@V?$_Deque_val@U?$_Deque_simple_types@VMatrix@geom@@@std@@@std@@@1@00@Z@4HA DD imagerel ?catch$0@?0???$insert@V?$_Deque_const_iterator@V?$_Deque_val@U?$_Deque_simple_types@VMatrix@geom@@@std@@@std@@@std@@@?$deque@VMatrix@geom@@V?$allocator@VMatrix@geom@@@std@@@std@@QEAA?AV?$_Deque_iterator@V?$_Deque_val@U?$_Deque_simple_types@VMatrix@geom@@@std@@@std@@@1@V?$_Deque_const_iterator@V?$_Deque_val@U?$_Deque_simple_types@VMatrix@geom@@@std@@@std@@@1@00@Z@4HA
	DD	imagerel ?catch$0@?0???$insert@V?$_Deque_const_iterator@V?$_Deque_val@U?$_Deque_simple_types@VMatrix@geom@@@std@@@std@@@std@@@?$deque@VMatrix@geom@@V?$allocator@VMatrix@geom@@@std@@@std@@QEAA?AV?$_Deque_iterator@V?$_Deque_val@U?$_Deque_simple_types@VMatrix@geom@@@std@@@std@@@1@V?$_Deque_const_iterator@V?$_Deque_val@U?$_Deque_simple_types@VMatrix@geom@@@std@@@std@@@1@00@Z@4HA+75
	DD	imagerel $unwind$?catch$0@?0???$insert@V?$_Deque_const_iterator@V?$_Deque_val@U?$_Deque_simple_types@VMatrix@geom@@@std@@@std@@@std@@@?$deque@VMatrix@geom@@V?$allocator@VMatrix@geom@@@std@@@std@@QEAA?AV?$_Deque_iterator@V?$_Deque_val@U?$_Deque_simple_types@VMatrix@geom@@@std@@@std@@@1@V?$_Deque_const_iterator@V?$_Deque_val@U?$_Deque_simple_types@VMatrix@geom@@@std@@@std@@@1@00@Z@4HA
pdata	ENDS
;	COMDAT pdata
pdata	SEGMENT
$pdata$?catch$1@?0???$insert@V?$_Deque_const_iterator@V?$_Deque_val@U?$_Deque_simple_types@VMatrix@geom@@@std@@@std@@@std@@@?$deque@VMatrix@geom@@V?$allocator@VMatrix@geom@@@std@@@std@@QEAA?AV?$_Deque_iterator@V?$_Deque_val@U?$_Deque_simple_types@VMatrix@geom@@@std@@@std@@@1@V?$_Deque_const_iterator@V?$_Deque_val@U?$_Deque_simple_types@VMatrix@geom@@@std@@@std@@@1@00@Z@4HA DD imagerel ?catch$1@?0???$insert@V?$_Deque_const_iterator@V?$_Deque_val@U?$_Deque_simple_types@VMatrix@geom@@@std@@@std@@@std@@@?$deque@VMatrix@geom@@V?$allocator@VMatrix@geom@@@std@@@std@@QEAA?AV?$_Deque_iterator@V?$_Deque_val@U?$_Deque_simple_types@VMatrix@geom@@@std@@@std@@@1@V?$_Deque_const_iterator@V?$_Deque_val@U?$_Deque_simple_types@VMatrix@geom@@@std@@@std@@@1@00@Z@4HA
	DD	imagerel ?catch$1@?0???$insert@V?$_Deque_const_iterator@V?$_Deque_val@U?$_Deque_simple_types@VMatrix@geom@@@std@@@std@@@std@@@?$deque@VMatrix@geom@@V?$allocator@VMatrix@geom@@@std@@@std@@QEAA?AV?$_Deque_iterator@V?$_Deque_val@U?$_Deque_simple_types@VMatrix@geom@@@std@@@std@@@1@V?$_Deque_const_iterator@V?$_Deque_val@U?$_Deque_simple_types@VMatrix@geom@@@std@@@std@@@1@00@Z@4HA+74
	DD	imagerel $unwind$?catch$1@?0???$insert@V?$_Deque_const_iterator@V?$_Deque_val@U?$_Deque_simple_types@VMatrix@geom@@@std@@@std@@@std@@@?$deque@VMatrix@geom@@V?$allocator@VMatrix@geom@@@std@@@std@@QEAA?AV?$_Deque_iterator@V?$_Deque_val@U?$_Deque_simple_types@VMatrix@geom@@@std@@@std@@@1@V?$_Deque_const_iterator@V?$_Deque_val@U?$_Deque_simple_types@VMatrix@geom@@@std@@@std@@@1@00@Z@4HA
pdata	ENDS
;	COMDAT pdata
pdata	SEGMENT
$pdata$??$_Umove@PEAVVertexUVRGBA@gfxu@@@?$vector@VVertexUVRGBA@gfxu@@V?$allocator@VVertexUVRGBA@gfxu@@@std@@@std@@IEAAPEAVVertexUVRGBA@gfxu@@PEAV23@00@Z DD imagerel $LN10
	DD	imagerel $LN10+26
	DD	imagerel $unwind$??$_Umove@PEAVVertexUVRGBA@gfxu@@@?$vector@VVertexUVRGBA@gfxu@@V?$allocator@VVertexUVRGBA@gfxu@@@std@@@std@@IEAAPEAVVertexUVRGBA@gfxu@@PEAV23@00@Z
pdata	ENDS
;	COMDAT pdata
pdata	SEGMENT
$pdata$??$?M_WU?$char_traits@_W@std@@V?$allocator@_W@1@@std@@YA_NAEBV?$basic_string@_WU?$char_traits@_W@std@@V?$allocator@_W@2@@0@0@Z DD imagerel $LN4
	DD	imagerel $LN4+19
	DD	imagerel $unwind$??$?M_WU?$char_traits@_W@std@@V?$allocator@_W@1@@std@@YA_NAEBV?$basic_string@_WU?$char_traits@_W@std@@V?$allocator@_W@2@@0@0@Z
pdata	ENDS
;	COMDAT pdata
pdata	SEGMENT
$pdata$??$insert@U?$pair@V?$basic_string@_WU?$char_traits@_W@std@@V?$allocator@_W@2@@std@@PEAVIcon@TiledTexture@gfxu@@@std@@@?$_Tree@V?$_Tmap_traits@V?$basic_string@_WU?$char_traits@_W@std@@V?$allocator@_W@2@@std@@PEAVIcon@TiledTexture@gfxu@@U?$less@V?$basic_string@_WU?$char_traits@_W@std@@V?$allocator@_W@2@@std@@@2@V?$allocator@U?$pair@$$CBV?$basic_string@_WU?$char_traits@_W@std@@V?$allocator@_W@2@@std@@PEAVIcon@TiledTexture@gfxu@@@std@@@2@$0A@@std@@@std@@QEAA?AV?$_Tree_iterator@V?$_Tree_val@U?$_Tree_simple_types@U?$pair@$$CBV?$basic_string@_WU?$char_traits@_W@std@@V?$allocator@_W@2@@std@@PEAVIcon@TiledTexture@gfxu@@@std@@@std@@@std@@@1@V?$_Tree_const_iterator@V?$_Tree_val@U?$_Tree_simple_types@U?$pair@$$CBV?$basic_string@_WU?$char_traits@_W@std@@V?$allocator@_W@2@@std@@PEAVIcon@TiledTexture@gfxu@@@std@@@std@@@std@@@1@$$QEAU?$pair@V?$basic_string@_WU?$char_traits@_W@std@@V?$allocator@_W@2@@std@@PEAVIcon@TiledTexture@gfxu@@@1@@Z DD imagerel $LN8
	DD	imagerel $LN8+68
	DD	imagerel $unwind$??$insert@U?$pair@V?$basic_string@_WU?$char_traits@_W@std@@V?$allocator@_W@2@@std@@PEAVIcon@TiledTexture@gfxu@@@std@@@?$_Tree@V?$_Tmap_traits@V?$basic_string@_WU?$char_traits@_W@std@@V?$allocator@_W@2@@std@@PEAVIcon@TiledTexture@gfxu@@U?$less@V?$basic_string@_WU?$char_traits@_W@std@@V?$allocator@_W@2@@std@@@2@V?$allocator@U?$pair@$$CBV?$basic_string@_WU?$char_traits@_W@std@@V?$allocator@_W@2@@std@@PEAVIcon@TiledTexture@gfxu@@@std@@@2@$0A@@std@@@std@@QEAA?AV?$_Tree_iterator@V?$_Tree_val@U?$_Tree_simple_types@U?$pair@$$CBV?$basic_string@_WU?$char_traits@_W@std@@V?$allocator@_W@2@@std@@PEAVIcon@TiledTexture@gfxu@@@std@@@std@@@std@@@1@V?$_Tree_const_iterator@V?$_Tree_val@U?$_Tree_simple_types@U?$pair@$$CBV?$basic_string@_WU?$char_traits@_W@std@@V?$allocator@_W@2@@std@@PEAVIcon@TiledTexture@gfxu@@@std@@@std@@@std@@@1@$$QEAU?$pair@V?$basic_string@_WU?$char_traits@_W@std@@V?$allocator@_W@2@@std@@PEAVIcon@TiledTexture@gfxu@@@1@@Z
pdata	ENDS
;	COMDAT pdata
pdata	SEGMENT
$pdata$??$?0AEBV?$basic_string@_WU?$char_traits@_W@std@@V?$allocator@_W@2@@std@@PEAVIcon@TiledTexture@gfxu@@@?$pair@V?$basic_string@_WU?$char_traits@_W@std@@V?$allocator@_W@2@@std@@PEAVIcon@TiledTexture@gfxu@@@std@@QEAA@AEBV?$basic_string@_WU?$char_traits@_W@std@@V?$allocator@_W@2@@1@$$QEAPEAVIcon@TiledTexture@gfxu@@PEAPEAX@Z DD imagerel $LN53
	DD	imagerel $LN53+66
	DD	imagerel $unwind$??$?0AEBV?$basic_string@_WU?$char_traits@_W@std@@V?$allocator@_W@2@@std@@PEAVIcon@TiledTexture@gfxu@@@?$pair@V?$basic_string@_WU?$char_traits@_W@std@@V?$allocator@_W@2@@std@@PEAVIcon@TiledTexture@gfxu@@@std@@QEAA@AEBV?$basic_string@_WU?$char_traits@_W@std@@V?$allocator@_W@2@@1@$$QEAPEAVIcon@TiledTexture@gfxu@@PEAPEAX@Z
pdata	ENDS
;	COMDAT pdata
pdata	SEGMENT
$pdata$??$sort@V?$_Vector_iterator@V?$_Vector_val@U?$_Simple_types@PEAVIcon@TiledTexture@gfxu@@@std@@@std@@@std@@P6A_NPEBVIcon@TiledTexture@gfxu@@0@Z@std@@YAXV?$_Vector_iterator@V?$_Vector_val@U?$_Simple_types@PEAVIcon@TiledTexture@gfxu@@@std@@@std@@@0@0P6A_NPEBVIcon@TiledTexture@gfxu@@1@Z@Z DD imagerel $LN18
	DD	imagerel $LN18+31
	DD	imagerel $unwind$??$sort@V?$_Vector_iterator@V?$_Vector_val@U?$_Simple_types@PEAVIcon@TiledTexture@gfxu@@@std@@@std@@@std@@P6A_NPEBVIcon@TiledTexture@gfxu@@0@Z@std@@YAXV?$_Vector_iterator@V?$_Vector_val@U?$_Simple_types@PEAVIcon@TiledTexture@gfxu@@@std@@@std@@@0@0P6A_NPEBVIcon@TiledTexture@gfxu@@1@Z@Z
pdata	ENDS
;	COMDAT pdata
pdata	SEGMENT
$pdata$?allocate@?$allocator@U?$_Tree_node@U?$pair@$$CBV?$basic_string@_WU?$char_traits@_W@std@@V?$allocator@_W@2@@std@@PEAVIcon@TiledTexture@gfxu@@@std@@PEAX@std@@@std@@QEAAPEAU?$_Tree_node@U?$pair@$$CBV?$basic_string@_WU?$char_traits@_W@std@@V?$allocator@_W@2@@std@@PEAVIcon@TiledTexture@gfxu@@@std@@PEAX@2@_K@Z DD imagerel $LN14
	DD	imagerel $LN14+30
	DD	imagerel $unwind$?allocate@?$allocator@U?$_Tree_node@U?$pair@$$CBV?$basic_string@_WU?$char_traits@_W@std@@V?$allocator@_W@2@@std@@PEAVIcon@TiledTexture@gfxu@@@std@@PEAX@std@@@std@@QEAAPEAU?$_Tree_node@U?$pair@$$CBV?$basic_string@_WU?$char_traits@_W@std@@V?$allocator@_W@2@@std@@PEAVIcon@TiledTexture@gfxu@@@std@@PEAX@2@_K@Z
pdata	ENDS
;	COMDAT pdata
pdata	SEGMENT
$pdata$?allocate@?$_Wrap_alloc@V?$allocator@U?$_Tree_node@U?$pair@$$CBV?$basic_string@_WU?$char_traits@_W@std@@V?$allocator@_W@2@@std@@PEAVIcon@TiledTexture@gfxu@@@std@@PEAX@std@@@std@@@std@@QEAAPEAU?$_Tree_node@U?$pair@$$CBV?$basic_string@_WU?$char_traits@_W@std@@V?$allocator@_W@2@@std@@PEAVIcon@TiledTexture@gfxu@@@std@@PEAX@2@_K@Z DD imagerel $LN17
	DD	imagerel $LN17+30
	DD	imagerel $unwind$?allocate@?$_Wrap_alloc@V?$allocator@U?$_Tree_node@U?$pair@$$CBV?$basic_string@_WU?$char_traits@_W@std@@V?$allocator@_W@2@@std@@PEAVIcon@TiledTexture@gfxu@@@std@@PEAX@std@@@std@@@std@@QEAAPEAU?$_Tree_node@U?$pair@$$CBV?$basic_string@_WU?$char_traits@_W@std@@V?$allocator@_W@2@@std@@PEAVIcon@TiledTexture@gfxu@@@std@@PEAX@2@_K@Z
pdata	ENDS
;	COMDAT pdata
pdata	SEGMENT
$pdata$?_Buyheadnode@?$_Tree_alloc@$0A@U?$_Tree_base_types@U?$pair@$$CBV?$basic_string@_WU?$char_traits@_W@std@@V?$allocator@_W@2@@std@@PEAVIcon@TiledTexture@gfxu@@@std@@V?$allocator@U?$pair@$$CBV?$basic_string@_WU?$char_traits@_W@std@@V?$allocator@_W@2@@std@@PEAVIcon@TiledTexture@gfxu@@@std@@@2@@std@@@std@@QEAAPEAU?$_Tree_node@U?$pair@$$CBV?$basic_string@_WU?$char_traits@_W@std@@V?$allocator@_W@2@@std@@PEAVIcon@TiledTexture@gfxu@@@std@@PEAX@2@XZ DD imagerel $LN102
	DD	imagerel $LN102+63
	DD	imagerel $unwind$?_Buyheadnode@?$_Tree_alloc@$0A@U?$_Tree_base_types@U?$pair@$$CBV?$basic_string@_WU?$char_traits@_W@std@@V?$allocator@_W@2@@std@@PEAVIcon@TiledTexture@gfxu@@@std@@V?$allocator@U?$pair@$$CBV?$basic_string@_WU?$char_traits@_W@std@@V?$allocator@_W@2@@std@@PEAVIcon@TiledTexture@gfxu@@@std@@@2@@std@@@std@@QEAAPEAU?$_Tree_node@U?$pair@$$CBV?$basic_string@_WU?$char_traits@_W@std@@V?$allocator@_W@2@@std@@PEAVIcon@TiledTexture@gfxu@@@std@@PEAX@2@XZ
pdata	ENDS
;	COMDAT pdata
pdata	SEGMENT
$pdata$?_Setcont@?$_Deque_const_iterator@V?$_Deque_val@U?$_Deque_simple_types@VMatrix@geom@@@std@@@std@@@std@@QEAAXPEBV?$_Deque_val@U?$_Deque_simple_types@VMatrix@geom@@@std@@@2@@Z DD imagerel $LN11
	DD	imagerel $LN11+50
	DD	imagerel $unwind$?_Setcont@?$_Deque_const_iterator@V?$_Deque_val@U?$_Deque_simple_types@VMatrix@geom@@@std@@@std@@@std@@QEAAXPEBV?$_Deque_val@U?$_Deque_simple_types@VMatrix@geom@@@std@@@2@@Z
pdata	ENDS
;	COMDAT pdata
pdata	SEGMENT
$pdata$?allocate@?$allocator@PEAVIcon@TiledTexture@gfxu@@@std@@QEAAPEAPEAVIcon@TiledTexture@gfxu@@_K@Z DD imagerel $LN13
	DD	imagerel $LN13+55
	DD	imagerel $unwind$?allocate@?$allocator@PEAVIcon@TiledTexture@gfxu@@@std@@QEAAPEAPEAVIcon@TiledTexture@gfxu@@_K@Z
pdata	ENDS
;	COMDAT pdata
pdata	SEGMENT
$pdata$?allocate@?$allocator@PEAVMatrix@geom@@@std@@QEAAPEAPEAVMatrix@geom@@_K@Z DD imagerel $LN13
	DD	imagerel $LN13+55
	DD	imagerel $unwind$?allocate@?$allocator@PEAVMatrix@geom@@@std@@QEAAPEAPEAVMatrix@geom@@_K@Z
pdata	ENDS
;	COMDAT pdata
pdata	SEGMENT
$pdata$??0?$_Tree_alloc@$0A@U?$_Tree_base_types@U?$pair@$$CBV?$basic_string@_WU?$char_traits@_W@std@@V?$allocator@_W@2@@std@@PEAVIcon@TiledTexture@gfxu@@@std@@V?$allocator@U?$pair@$$CBV?$basic_string@_WU?$char_traits@_W@std@@V?$allocator@_W@2@@std@@PEAVIcon@TiledTexture@gfxu@@@std@@@2@@std@@@std@@QEAA@AEBV?$allocator@U?$pair@$$CBV?$basic_string@_WU?$char_traits@_W@std@@V?$allocator@_W@2@@std@@PEAVIcon@TiledTexture@gfxu@@@std@@@1@@Z DD imagerel $LN6
	DD	imagerel $LN6+35
	DD	imagerel $unwind$??0?$_Tree_alloc@$0A@U?$_Tree_base_types@U?$pair@$$CBV?$basic_string@_WU?$char_traits@_W@std@@V?$allocator@_W@2@@std@@PEAVIcon@TiledTexture@gfxu@@@std@@V?$allocator@U?$pair@$$CBV?$basic_string@_WU?$char_traits@_W@std@@V?$allocator@_W@2@@std@@PEAVIcon@TiledTexture@gfxu@@@std@@@2@@std@@@std@@QEAA@AEBV?$allocator@U?$pair@$$CBV?$basic_string@_WU?$char_traits@_W@std@@V?$allocator@_W@2@@std@@PEAVIcon@TiledTexture@gfxu@@@std@@@1@@Z
pdata	ENDS
;	COMDAT pdata
pdata	SEGMENT
$pdata$?_Erase@?$_Tree@V?$_Tmap_traits@V?$basic_string@_WU?$char_traits@_W@std@@V?$allocator@_W@2@@std@@PEAVIcon@TiledTexture@gfxu@@U?$less@V?$basic_string@_WU?$char_traits@_W@std@@V?$allocator@_W@2@@std@@@2@V?$allocator@U?$pair@$$CBV?$basic_string@_WU?$char_traits@_W@std@@V?$allocator@_W@2@@std@@PEAVIcon@TiledTexture@gfxu@@@std@@@2@$0A@@std@@@std@@IEAAXPEAU?$_Tree_node@U?$pair@$$CBV?$basic_string@_WU?$char_traits@_W@std@@V?$allocator@_W@2@@std@@PEAVIcon@TiledTexture@gfxu@@@std@@PEAX@2@@Z DD imagerel $LN73
	DD	imagerel $LN73+30
	DD	imagerel $unwind$?_Erase@?$_Tree@V?$_Tmap_traits@V?$basic_string@_WU?$char_traits@_W@std@@V?$allocator@_W@2@@std@@PEAVIcon@TiledTexture@gfxu@@U?$less@V?$basic_string@_WU?$char_traits@_W@std@@V?$allocator@_W@2@@std@@@2@V?$allocator@U?$pair@$$CBV?$basic_string@_WU?$char_traits@_W@std@@V?$allocator@_W@2@@std@@PEAVIcon@TiledTexture@gfxu@@@std@@@2@$0A@@std@@@std@@IEAAXPEAU?$_Tree_node@U?$pair@$$CBV?$basic_string@_WU?$char_traits@_W@std@@V?$allocator@_W@2@@std@@PEAVIcon@TiledTexture@gfxu@@@std@@PEAX@2@@Z
pdata	ENDS
;	COMDAT pdata
pdata	SEGMENT
$pdata$0$?_Erase@?$_Tree@V?$_Tmap_traits@V?$basic_string@_WU?$char_traits@_W@std@@V?$allocator@_W@2@@std@@PEAVIcon@TiledTexture@gfxu@@U?$less@V?$basic_string@_WU?$char_traits@_W@std@@V?$allocator@_W@2@@std@@@2@V?$allocator@U?$pair@$$CBV?$basic_string@_WU?$char_traits@_W@std@@V?$allocator@_W@2@@std@@PEAVIcon@TiledTexture@gfxu@@@std@@@2@$0A@@std@@@std@@IEAAXPEAU?$_Tree_node@U?$pair@$$CBV?$basic_string@_WU?$char_traits@_W@std@@V?$allocator@_W@2@@std@@PEAVIcon@TiledTexture@gfxu@@@std@@PEAX@2@@Z DD imagerel $LN73+30
	DD	imagerel $LN73+117
	DD	imagerel $chain$0$?_Erase@?$_Tree@V?$_Tmap_traits@V?$basic_string@_WU?$char_traits@_W@std@@V?$allocator@_W@2@@std@@PEAVIcon@TiledTexture@gfxu@@U?$less@V?$basic_string@_WU?$char_traits@_W@std@@V?$allocator@_W@2@@std@@@2@V?$allocator@U?$pair@$$CBV?$basic_string@_WU?$char_traits@_W@std@@V?$allocator@_W@2@@std@@PEAVIcon@TiledTexture@gfxu@@@std@@@2@$0A@@std@@@std@@IEAAXPEAU?$_Tree_node@U?$pair@$$CBV?$basic_string@_WU?$char_traits@_W@std@@V?$allocator@_W@2@@std@@PEAVIcon@TiledTexture@gfxu@@@std@@PEAX@2@@Z
pdata	ENDS
;	COMDAT pdata
pdata	SEGMENT
$pdata$1$?_Erase@?$_Tree@V?$_Tmap_traits@V?$basic_string@_WU?$char_traits@_W@std@@V?$allocator@_W@2@@std@@PEAVIcon@TiledTexture@gfxu@@U?$less@V?$basic_string@_WU?$char_traits@_W@std@@V?$allocator@_W@2@@std@@@2@V?$allocator@U?$pair@$$CBV?$basic_string@_WU?$char_traits@_W@std@@V?$allocator@_W@2@@std@@PEAVIcon@TiledTexture@gfxu@@@std@@@2@$0A@@std@@@std@@IEAAXPEAU?$_Tree_node@U?$pair@$$CBV?$basic_string@_WU?$char_traits@_W@std@@V?$allocator@_W@2@@std@@PEAVIcon@TiledTexture@gfxu@@@std@@PEAX@2@@Z DD imagerel $LN73+117
	DD	imagerel $LN73+133
	DD	imagerel $chain$1$?_Erase@?$_Tree@V?$_Tmap_traits@V?$basic_string@_WU?$char_traits@_W@std@@V?$allocator@_W@2@@std@@PEAVIcon@TiledTexture@gfxu@@U?$less@V?$basic_string@_WU?$char_traits@_W@std@@V?$allocator@_W@2@@std@@@2@V?$allocator@U?$pair@$$CBV?$basic_string@_WU?$char_traits@_W@std@@V?$allocator@_W@2@@std@@PEAVIcon@TiledTexture@gfxu@@@std@@@2@$0A@@std@@@std@@IEAAXPEAU?$_Tree_node@U?$pair@$$CBV?$basic_string@_WU?$char_traits@_W@std@@V?$allocator@_W@2@@std@@PEAVIcon@TiledTexture@gfxu@@@std@@PEAX@2@@Z
pdata	ENDS
;	COMDAT pdata
pdata	SEGMENT
$pdata$??0?$_Deque_const_iterator@V?$_Deque_val@U?$_Deque_simple_types@VMatrix@geom@@@std@@@std@@@std@@QEAA@_KPEBU_Container_base12@1@@Z DD imagerel $LN16
	DD	imagerel $LN16+95
	DD	imagerel $unwind$??0?$_Deque_const_iterator@V?$_Deque_val@U?$_Deque_simple_types@VMatrix@geom@@@std@@@std@@@std@@QEAA@_KPEBU_Container_base12@1@@Z
pdata	ENDS
;	COMDAT pdata
pdata	SEGMENT
$pdata$??0?$_Deque_iterator@V?$_Deque_val@U?$_Deque_simple_types@VMatrix@geom@@@std@@@std@@@std@@QEAA@_KPEBU_Container_base12@1@@Z DD imagerel $LN18
	DD	imagerel $LN18+95
	DD	imagerel $unwind$??0?$_Deque_iterator@V?$_Deque_val@U?$_Deque_simple_types@VMatrix@geom@@@std@@@std@@@std@@QEAA@_KPEBU_Container_base12@1@@Z
pdata	ENDS
;	COMDAT pdata
pdata	SEGMENT
$pdata$?allocate@?$_Wrap_alloc@V?$allocator@PEAVIcon@TiledTexture@gfxu@@@std@@@std@@QEAAPEAPEAVIcon@TiledTexture@gfxu@@_K@Z DD imagerel $LN16
	DD	imagerel $LN16+55
	DD	imagerel $unwind$?allocate@?$_Wrap_alloc@V?$allocator@PEAVIcon@TiledTexture@gfxu@@@std@@@std@@QEAAPEAPEAVIcon@TiledTexture@gfxu@@_K@Z
pdata	ENDS
;	COMDAT pdata
pdata	SEGMENT
$pdata$?allocate@?$_Wrap_alloc@V?$allocator@PEAVMatrix@geom@@@std@@@std@@QEAAPEAPEAVMatrix@geom@@_K@Z DD imagerel $LN16
	DD	imagerel $LN16+55
	DD	imagerel $unwind$?allocate@?$_Wrap_alloc@V?$allocator@PEAVMatrix@geom@@@std@@@std@@QEAAPEAPEAVMatrix@geom@@_K@Z
pdata	ENDS
;	COMDAT pdata
pdata	SEGMENT
$pdata$?_Alloc_proxy@?$_Deque_alloc@$0A@U?$_Deque_base_types@VMatrix@geom@@V?$allocator@VMatrix@geom@@@std@@@std@@@std@@QEAAXXZ DD imagerel $LN37
	DD	imagerel $LN37+54
	DD	imagerel $unwind$?_Alloc_proxy@?$_Deque_alloc@$0A@U?$_Deque_base_types@VMatrix@geom@@V?$allocator@VMatrix@geom@@@std@@@std@@@std@@QEAAXXZ
pdata	ENDS
;	COMDAT pdata
pdata	SEGMENT
$pdata$?allocate@?$allocator@VMatrix@geom@@@std@@QEAAPEAVMatrix@geom@@_K@Z DD imagerel $LN14
	DD	imagerel $LN14+30
	DD	imagerel $unwind$?allocate@?$allocator@VMatrix@geom@@@std@@QEAAPEAVMatrix@geom@@_K@Z
pdata	ENDS
;	COMDAT pdata
pdata	SEGMENT
$pdata$?_Xlen@?$deque@VMatrix@geom@@V?$allocator@VMatrix@geom@@@std@@@std@@IEBAXXZ DD imagerel $LN4
	DD	imagerel $LN4+17
	DD	imagerel $unwind$?_Xlen@?$deque@VMatrix@geom@@V?$allocator@VMatrix@geom@@@std@@@std@@IEBAXXZ
pdata	ENDS
;	COMDAT pdata
pdata	SEGMENT
$pdata$?allocate@?$allocator@VVertexUVRGBA@gfxu@@@std@@QEAAPEAVVertexUVRGBA@gfxu@@_K@Z DD imagerel $LN13
	DD	imagerel $LN13+55
	DD	imagerel $unwind$?allocate@?$allocator@VVertexUVRGBA@gfxu@@@std@@QEAAPEAVVertexUVRGBA@gfxu@@_K@Z
pdata	ENDS
;	COMDAT pdata
pdata	SEGMENT
$pdata$??0?$_Tree_buy@U?$pair@$$CBV?$basic_string@_WU?$char_traits@_W@std@@V?$allocator@_W@2@@std@@PEAVIcon@TiledTexture@gfxu@@@std@@V?$allocator@U?$pair@$$CBV?$basic_string@_WU?$char_traits@_W@std@@V?$allocator@_W@2@@std@@PEAVIcon@TiledTexture@gfxu@@@std@@@2@@std@@QEAA@AEBV?$allocator@U?$pair@$$CBV?$basic_string@_WU?$char_traits@_W@std@@V?$allocator@_W@2@@std@@PEAVIcon@TiledTexture@gfxu@@@std@@@1@@Z DD imagerel $LN9
	DD	imagerel $LN9+35
	DD	imagerel $unwind$??0?$_Tree_buy@U?$pair@$$CBV?$basic_string@_WU?$char_traits@_W@std@@V?$allocator@_W@2@@std@@PEAVIcon@TiledTexture@gfxu@@@std@@V?$allocator@U?$pair@$$CBV?$basic_string@_WU?$char_traits@_W@std@@V?$allocator@_W@2@@std@@PEAVIcon@TiledTexture@gfxu@@@std@@@2@@std@@QEAA@AEBV?$allocator@U?$pair@$$CBV?$basic_string@_WU?$char_traits@_W@std@@V?$allocator@_W@2@@std@@PEAVIcon@TiledTexture@gfxu@@@std@@@1@@Z
pdata	ENDS
;	COMDAT pdata
pdata	SEGMENT
$pdata$?clear@?$_Tree@V?$_Tmap_traits@V?$basic_string@_WU?$char_traits@_W@std@@V?$allocator@_W@2@@std@@PEAVIcon@TiledTexture@gfxu@@U?$less@V?$basic_string@_WU?$char_traits@_W@std@@V?$allocator@_W@2@@std@@@2@V?$allocator@U?$pair@$$CBV?$basic_string@_WU?$char_traits@_W@std@@V?$allocator@_W@2@@std@@PEAVIcon@TiledTexture@gfxu@@@std@@@2@$0A@@std@@@std@@QEAAXXZ DD imagerel $LN20
	DD	imagerel $LN20+55
	DD	imagerel $unwind$?clear@?$_Tree@V?$_Tmap_traits@V?$basic_string@_WU?$char_traits@_W@std@@V?$allocator@_W@2@@std@@PEAVIcon@TiledTexture@gfxu@@U?$less@V?$basic_string@_WU?$char_traits@_W@std@@V?$allocator@_W@2@@std@@@2@V?$allocator@U?$pair@$$CBV?$basic_string@_WU?$char_traits@_W@std@@V?$allocator@_W@2@@std@@PEAVIcon@TiledTexture@gfxu@@@std@@@2@$0A@@std@@@std@@QEAAXXZ
pdata	ENDS
;	COMDAT pdata
pdata	SEGMENT
$pdata$?erase@?$_Tree@V?$_Tmap_traits@V?$basic_string@_WU?$char_traits@_W@std@@V?$allocator@_W@2@@std@@PEAVIcon@TiledTexture@gfxu@@U?$less@V?$basic_string@_WU?$char_traits@_W@std@@V?$allocator@_W@2@@std@@@2@V?$allocator@U?$pair@$$CBV?$basic_string@_WU?$char_traits@_W@std@@V?$allocator@_W@2@@std@@PEAVIcon@TiledTexture@gfxu@@@std@@@2@$0A@@std@@@std@@QEAA?AV?$_Tree_iterator@V?$_Tree_val@U?$_Tree_simple_types@U?$pair@$$CBV?$basic_string@_WU?$char_traits@_W@std@@V?$allocator@_W@2@@std@@PEAVIcon@TiledTexture@gfxu@@@std@@@std@@@std@@@2@V?$_Tree_const_iterator@V?$_Tree_val@U?$_Tree_simple_types@U?$pair@$$CBV?$basic_string@_WU?$char_traits@_W@std@@V?$allocator@_W@2@@std@@PEAVIcon@TiledTexture@gfxu@@@std@@@std@@@std@@@2@@Z DD imagerel $LN415
	DD	imagerel $LN415+37
	DD	imagerel $unwind$?erase@?$_Tree@V?$_Tmap_traits@V?$basic_string@_WU?$char_traits@_W@std@@V?$allocator@_W@2@@std@@PEAVIcon@TiledTexture@gfxu@@U?$less@V?$basic_string@_WU?$char_traits@_W@std@@V?$allocator@_W@2@@std@@@2@V?$allocator@U?$pair@$$CBV?$basic_string@_WU?$char_traits@_W@std@@V?$allocator@_W@2@@std@@PEAVIcon@TiledTexture@gfxu@@@std@@@2@$0A@@std@@@std@@QEAA?AV?$_Tree_iterator@V?$_Tree_val@U?$_Tree_simple_types@U?$pair@$$CBV?$basic_string@_WU?$char_traits@_W@std@@V?$allocator@_W@2@@std@@PEAVIcon@TiledTexture@gfxu@@@std@@@std@@@std@@@2@V?$_Tree_const_iterator@V?$_Tree_val@U?$_Tree_simple_types@U?$pair@$$CBV?$basic_string@_WU?$char_traits@_W@std@@V?$allocator@_W@2@@std@@PEAVIcon@TiledTexture@gfxu@@@std@@@std@@@std@@@2@@Z
pdata	ENDS
;	COMDAT pdata
pdata	SEGMENT
$pdata$0$?erase@?$_Tree@V?$_Tmap_traits@V?$basic_string@_WU?$char_traits@_W@std@@V?$allocator@_W@2@@std@@PEAVIcon@TiledTexture@gfxu@@U?$less@V?$basic_string@_WU?$char_traits@_W@std@@V?$allocator@_W@2@@std@@@2@V?$allocator@U?$pair@$$CBV?$basic_string@_WU?$char_traits@_W@std@@V?$allocator@_W@2@@std@@PEAVIcon@TiledTexture@gfxu@@@std@@@2@$0A@@std@@@std@@QEAA?AV?$_Tree_iterator@V?$_Tree_val@U?$_Tree_simple_types@U?$pair@$$CBV?$basic_string@_WU?$char_traits@_W@std@@V?$allocator@_W@2@@std@@PEAVIcon@TiledTexture@gfxu@@@std@@@std@@@std@@@2@V?$_Tree_const_iterator@V?$_Tree_val@U?$_Tree_simple_types@U?$pair@$$CBV?$basic_string@_WU?$char_traits@_W@std@@V?$allocator@_W@2@@std@@PEAVIcon@TiledTexture@gfxu@@@std@@@std@@@std@@@2@@Z DD imagerel $LN415+37
	DD	imagerel $LN415+120
	DD	imagerel $chain$0$?erase@?$_Tree@V?$_Tmap_traits@V?$basic_string@_WU?$char_traits@_W@std@@V?$allocator@_W@2@@std@@PEAVIcon@TiledTexture@gfxu@@U?$less@V?$basic_string@_WU?$char_traits@_W@std@@V?$allocator@_W@2@@std@@@2@V?$allocator@U?$pair@$$CBV?$basic_string@_WU?$char_traits@_W@std@@V?$allocator@_W@2@@std@@PEAVIcon@TiledTexture@gfxu@@@std@@@2@$0A@@std@@@std@@QEAA?AV?$_Tree_iterator@V?$_Tree_val@U?$_Tree_simple_types@U?$pair@$$CBV?$basic_string@_WU?$char_traits@_W@std@@V?$allocator@_W@2@@std@@PEAVIcon@TiledTexture@gfxu@@@std@@@std@@@std@@@2@V?$_Tree_const_iterator@V?$_Tree_val@U?$_Tree_simple_types@U?$pair@$$CBV?$basic_string@_WU?$char_traits@_W@std@@V?$allocator@_W@2@@std@@PEAVIcon@TiledTexture@gfxu@@@std@@@std@@@std@@@2@@Z
pdata	ENDS
;	COMDAT pdata
pdata	SEGMENT
$pdata$2$?erase@?$_Tree@V?$_Tmap_traits@V?$basic_string@_WU?$char_traits@_W@std@@V?$allocator@_W@2@@std@@PEAVIcon@TiledTexture@gfxu@@U?$less@V?$basic_string@_WU?$char_traits@_W@std@@V?$allocator@_W@2@@std@@@2@V?$allocator@U?$pair@$$CBV?$basic_string@_WU?$char_traits@_W@std@@V?$allocator@_W@2@@std@@PEAVIcon@TiledTexture@gfxu@@@std@@@2@$0A@@std@@@std@@QEAA?AV?$_Tree_iterator@V?$_Tree_val@U?$_Tree_simple_types@U?$pair@$$CBV?$basic_string@_WU?$char_traits@_W@std@@V?$allocator@_W@2@@std@@PEAVIcon@TiledTexture@gfxu@@@std@@@std@@@std@@@2@V?$_Tree_const_iterator@V?$_Tree_val@U?$_Tree_simple_types@U?$pair@$$CBV?$basic_string@_WU?$char_traits@_W@std@@V?$allocator@_W@2@@std@@PEAVIcon@TiledTexture@gfxu@@@std@@@std@@@std@@@2@@Z DD imagerel $LN415+120
	DD	imagerel $LN415+783
	DD	imagerel $chain$2$?erase@?$_Tree@V?$_Tmap_traits@V?$basic_string@_WU?$char_traits@_W@std@@V?$allocator@_W@2@@std@@PEAVIcon@TiledTexture@gfxu@@U?$less@V?$basic_string@_WU?$char_traits@_W@std@@V?$allocator@_W@2@@std@@@2@V?$allocator@U?$pair@$$CBV?$basic_string@_WU?$char_traits@_W@std@@V?$allocator@_W@2@@std@@PEAVIcon@TiledTexture@gfxu@@@std@@@2@$0A@@std@@@std@@QEAA?AV?$_Tree_iterator@V?$_Tree_val@U?$_Tree_simple_types@U?$pair@$$CBV?$basic_string@_WU?$char_traits@_W@std@@V?$allocator@_W@2@@std@@PEAVIcon@TiledTexture@gfxu@@@std@@@std@@@std@@@2@V?$_Tree_const_iterator@V?$_Tree_val@U?$_Tree_simple_types@U?$pair@$$CBV?$basic_string@_WU?$char_traits@_W@std@@V?$allocator@_W@2@@std@@PEAVIcon@TiledTexture@gfxu@@@std@@@std@@@std@@@2@@Z
pdata	ENDS
;	COMDAT pdata
pdata	SEGMENT
$pdata$3$?erase@?$_Tree@V?$_Tmap_traits@V?$basic_string@_WU?$char_traits@_W@std@@V?$allocator@_W@2@@std@@PEAVIcon@TiledTexture@gfxu@@U?$less@V?$basic_string@_WU?$char_traits@_W@std@@V?$allocator@_W@2@@std@@@2@V?$allocator@U?$pair@$$CBV?$basic_string@_WU?$char_traits@_W@std@@V?$allocator@_W@2@@std@@PEAVIcon@TiledTexture@gfxu@@@std@@@2@$0A@@std@@@std@@QEAA?AV?$_Tree_iterator@V?$_Tree_val@U?$_Tree_simple_types@U?$pair@$$CBV?$basic_string@_WU?$char_traits@_W@std@@V?$allocator@_W@2@@std@@PEAVIcon@TiledTexture@gfxu@@@std@@@std@@@std@@@2@V?$_Tree_const_iterator@V?$_Tree_val@U?$_Tree_simple_types@U?$pair@$$CBV?$basic_string@_WU?$char_traits@_W@std@@V?$allocator@_W@2@@std@@PEAVIcon@TiledTexture@gfxu@@@std@@@std@@@std@@@2@@Z DD imagerel $LN415+783
	DD	imagerel $LN415+833
	DD	imagerel $chain$3$?erase@?$_Tree@V?$_Tmap_traits@V?$basic_string@_WU?$char_traits@_W@std@@V?$allocator@_W@2@@std@@PEAVIcon@TiledTexture@gfxu@@U?$less@V?$basic_string@_WU?$char_traits@_W@std@@V?$allocator@_W@2@@std@@@2@V?$allocator@U?$pair@$$CBV?$basic_string@_WU?$char_traits@_W@std@@V?$allocator@_W@2@@std@@PEAVIcon@TiledTexture@gfxu@@@std@@@2@$0A@@std@@@std@@QEAA?AV?$_Tree_iterator@V?$_Tree_val@U?$_Tree_simple_types@U?$pair@$$CBV?$basic_string@_WU?$char_traits@_W@std@@V?$allocator@_W@2@@std@@PEAVIcon@TiledTexture@gfxu@@@std@@@std@@@std@@@2@V?$_Tree_const_iterator@V?$_Tree_val@U?$_Tree_simple_types@U?$pair@$$CBV?$basic_string@_WU?$char_traits@_W@std@@V?$allocator@_W@2@@std@@PEAVIcon@TiledTexture@gfxu@@@std@@@std@@@std@@@2@@Z
pdata	ENDS
;	COMDAT pdata
pdata	SEGMENT
