; Listing generated by Microsoft (R) Optimizing Compiler Version 17.00.61030.0 

include listing.inc

INCLUDELIB OLDNAMES

EXTRN	wcstombs:PROC
EXTRN	__report_rangecheckfailure:PROC
EXTRN	__imp_GetModuleFileNameW:PROC
	ORG $+3
$SG4294922314 DB '\', 00H, '/', 00H, 00H, 00H
	ORG $+2
$SG4294922313 DB 'PNG load error', 00H
	ORG $+1
$SG4294922312 DB 'PNG file not found.', 00H
PUBLIC	??$_Destroy_range@U?$_Wrap_alloc@V?$allocator@E@std@@@std@@@std@@YAXPEAE0AEAU?$_Wrap_alloc@V?$allocator@E@std@@@0@U_Scalar_ptr_iterator_tag@0@@Z ; std::_Destroy_range<std::_Wrap_alloc<std::allocator<unsigned char> > >
PUBLIC	??$_Ptr_cat@EE@std@@YA?AU_Scalar_ptr_iterator_tag@0@PEAE0@Z ; std::_Ptr_cat<unsigned char,unsigned char>
PUBLIC	??$_Destroy_range@U?$_Wrap_alloc@V?$allocator@E@std@@@std@@@std@@YAXPEAE0AEAU?$_Wrap_alloc@V?$allocator@E@std@@@0@@Z ; std::_Destroy_range<std::_Wrap_alloc<std::allocator<unsigned char> > >
PUBLIC	??0?$_Wrap_alloc@V?$allocator@E@std@@@std@@QEAA@XZ ; std::_Wrap_alloc<std::allocator<unsigned char> >::_Wrap_alloc<std::allocator<unsigned char> >
PUBLIC	?deallocate@?$allocator@E@std@@QEAAXPEAE_K@Z	; std::allocator<unsigned char>::deallocate
PUBLIC	??0?$_Vector_val@U?$_Simple_types@E@std@@@std@@QEAA@XZ ; std::_Vector_val<std::_Simple_types<unsigned char> >::_Vector_val<std::_Simple_types<unsigned char> >
PUBLIC	?deallocate@?$_Wrap_alloc@V?$allocator@E@std@@@std@@QEAAXPEAE_K@Z ; std::_Wrap_alloc<std::allocator<unsigned char> >::deallocate
PUBLIC	?_Getal@?$_Vector_alloc@$0A@U?$_Vec_base_types@EV?$allocator@E@std@@@std@@@std@@QEBA?AU?$_Wrap_alloc@V?$allocator@E@std@@@2@XZ ; std::_Vector_alloc<0,std::_Vec_base_types<unsigned char,std::allocator<unsigned char> > >::_Getal
PUBLIC	?_Destroy@?$vector@EV?$allocator@E@std@@@std@@IEAAXPEAE0@Z ; std::vector<unsigned char,std::allocator<unsigned char> >::_Destroy
PUBLIC	?assign@?$basic_string@_WU?$char_traits@_W@std@@V?$allocator@_W@2@@std@@QEAAAEAV12@PEB_W_K@Z ; std::basic_string<wchar_t,std::char_traits<wchar_t>,std::allocator<wchar_t> >::assign
PUBLIC	??0?$_Vector_alloc@$0A@U?$_Vec_base_types@EV?$allocator@E@std@@@std@@@std@@QEAA@AEBV?$allocator@E@1@@Z ; std::_Vector_alloc<0,std::_Vec_base_types<unsigned char,std::allocator<unsigned char> > >::_Vector_alloc<0,std::_Vec_base_types<unsigned char,std::allocator<unsigned char> > >
PUBLIC	??0?$allocator@E@std@@QEAA@XZ			; std::allocator<unsigned char>::allocator<unsigned char>
PUBLIC	?_Tidy@?$vector@EV?$allocator@E@std@@@std@@IEAAXXZ ; std::vector<unsigned char,std::allocator<unsigned char> >::_Tidy
PUBLIC	?find_last_of@?$basic_string@_WU?$char_traits@_W@std@@V?$allocator@_W@2@@std@@QEBA_KPEB_W_K1@Z ; std::basic_string<wchar_t,std::char_traits<wchar_t>,std::allocator<wchar_t> >::find_last_of
PUBLIC	?assign@?$basic_string@_WU?$char_traits@_W@std@@V?$allocator@_W@2@@std@@QEAAAEAV12@PEB_W@Z ; std::basic_string<wchar_t,std::char_traits<wchar_t>,std::allocator<wchar_t> >::assign
PUBLIC	??A?$vector@EV?$allocator@E@std@@@std@@QEAAAEAE_K@Z ; std::vector<unsigned char,std::allocator<unsigned char> >::operator[]
PUBLIC	??1?$vector@EV?$allocator@E@std@@@std@@QEAA@XZ	; std::vector<unsigned char,std::allocator<unsigned char> >::~vector<unsigned char,std::allocator<unsigned char> >
PUBLIC	??0?$vector@EV?$allocator@E@std@@@std@@QEAA@XZ	; std::vector<unsigned char,std::allocator<unsigned char> >::vector<unsigned char,std::allocator<unsigned char> >
PUBLIC	?find_last_of@?$basic_string@_WU?$char_traits@_W@std@@V?$allocator@_W@2@@std@@QEBA_KPEB_W_K@Z ; std::basic_string<wchar_t,std::char_traits<wchar_t>,std::allocator<wchar_t> >::find_last_of
PUBLIC	?length@?$basic_string@_WU?$char_traits@_W@std@@V?$allocator@_W@2@@std@@QEBA_KXZ ; std::basic_string<wchar_t,std::char_traits<wchar_t>,std::allocator<wchar_t> >::length
PUBLIC	??4?$basic_string@_WU?$char_traits@_W@std@@V?$allocator@_W@2@@std@@QEAAAEAV01@PEB_W@Z ; std::basic_string<wchar_t,std::char_traits<wchar_t>,std::allocator<wchar_t> >::operator=
PUBLIC	??0?$basic_string@_WU?$char_traits@_W@std@@V?$allocator@_W@2@@std@@QEAA@PEB_W@Z ; std::basic_string<wchar_t,std::char_traits<wchar_t>,std::allocator<wchar_t> >::basic_string<wchar_t,std::char_traits<wchar_t>,std::allocator<wchar_t> >
PUBLIC	??0?$basic_string@_WU?$char_traits@_W@std@@V?$allocator@_W@2@@std@@QEAA@XZ ; std::basic_string<wchar_t,std::char_traits<wchar_t>,std::allocator<wchar_t> >::basic_string<wchar_t,std::char_traits<wchar_t>,std::allocator<wchar_t> >
PUBLIC	?init@IOUtil@@YAXXZ				; IOUtil::init
PUBLIC	?find@?$char_traits@_W@std@@SAPEB_WPEB_W_KAEB_W@Z ; std::char_traits<wchar_t>::find
PUBLIC	wmemchr
PUBLIC	?readPNG@IOUtil@@YAPEAEV?$basic_string@_WU?$char_traits@_W@std@@V?$allocator@_W@2@@std@@AEAI1@Z ; IOUtil::readPNG
PUBLIC	?EXE_DIR@IOUtil@@3V?$basic_string@_WU?$char_traits@_W@std@@V?$allocator@_W@2@@std@@A ; IOUtil::EXE_DIR
allocator_arg DB 01H DUP (?)
	ALIGN	4

piecewise_construct DB 01H DUP (?)
_BSS	ENDS
;	COMDAT pdata
pdata	SEGMENT
$pdata$?assign@?$basic_string@_WU?$char_traits@_W@std@@V?$allocator@_W@2@@std@@QEAAAEAV12@PEB_W_K@Z DD imagerel $LN122
	DD	imagerel $LN122+330
	DD	imagerel $unwind$?assign@?$basic_string@_WU?$char_traits@_W@std@@V?$allocator@_W@2@@std@@QEAAAEAV12@PEB_W_K@Z
pdata	ENDS
;	COMDAT pdata
pdata	SEGMENT
$pdata$?_Tidy@?$vector@EV?$allocator@E@std@@@std@@IEAAXXZ DD imagerel $LN13
	DD	imagerel $LN13+41
	DD	imagerel $unwind$?_Tidy@?$vector@EV?$allocator@E@std@@@std@@IEAAXXZ
pdata	ENDS
;	COMDAT pdata
pdata	SEGMENT
$pdata$?find_last_of@?$basic_string@_WU?$char_traits@_W@std@@V?$allocator@_W@2@@std@@QEBA_KPEB_W_K1@Z DD imagerel $LN44
	DD	imagerel $LN44+170
	DD	imagerel $unwind$?find_last_of@?$basic_string@_WU?$char_traits@_W@std@@V?$allocator@_W@2@@std@@QEBA_KPEB_W_K1@Z
pdata	ENDS
;	COMDAT pdata
pdata	SEGMENT
$pdata$??1?$vector@EV?$allocator@E@std@@@std@@QEAA@XZ DD imagerel $LN15
	DD	imagerel $LN15+41
	DD	imagerel $unwind$??1?$vector@EV?$allocator@E@std@@@std@@QEAA@XZ
pdata	ENDS
;	COMDAT pdata
pdata	SEGMENT
$pdata$??0?$basic_string@_WU?$char_traits@_W@std@@V?$allocator@_W@2@@std@@QEAA@PEB_W@Z DD imagerel $LN49
	DD	imagerel $LN49+73
	DD	imagerel $unwind$??0?$basic_string@_WU?$char_traits@_W@std@@V?$allocator@_W@2@@std@@QEAA@PEB_W@Z
pdata	ENDS
;	COMDAT pdata
pdata	SEGMENT
$pdata$?init@IOUtil@@YAXXZ DD imagerel $LN104
	DD	imagerel $LN104+262
	DD	imagerel $unwind$?init@IOUtil@@YAXXZ
pdata	ENDS
;	COMDAT pdata
pdata	SEGMENT
$pdata$??__FEXE_DIR@IOUtil@@YAXXZ DD imagerel ??__FEXE_DIR@IOUtil@@YAXXZ
	DD	imagerel ??__FEXE_DIR@IOUtil@@YAXXZ+19
	DD	imagerel $unwind$??__FEXE_DIR@IOUtil@@YAXXZ
pdata	ENDS
;	COMDAT pdata
pdata	SEGMENT
$pdata$0$??__FEXE_DIR@IOUtil@@YAXXZ DD imagerel ??__FEXE_DIR@IOUtil@@YAXXZ+19
	DD	imagerel ??__FEXE_DIR@IOUtil@@YAXXZ+76
	DD	imagerel $chain$0$??__FEXE_DIR@IOUtil@@YAXXZ
pdata	ENDS
;	COMDAT pdata
pdata	SEGMENT
$pdata$1$??__FEXE_DIR@IOUtil@@YAXXZ DD imagerel ??__FEXE_DIR@IOUtil@@YAXXZ+76
	DD	imagerel ??__FEXE_DIR@IOUtil@@YAXXZ+108
	DD	imagerel $chain$1$??__FEXE_DIR@IOUtil@@YAXXZ
pdata	ENDS
;	COMDAT pdata
pdata	SEGMENT
$pdata$?readPNG@IOUtil@@YAPEAEV?$basic_string@_WU?$char_traits@_W@std@@V?$allocator@_W@2@@std@@AEAI1@Z DD imagerel $LN241
	DD	imagerel $LN241+567
	DD	imagerel $unwind$?readPNG@IOUtil@@YAPEAEV?$basic_string@_WU?$char_traits@_W@std@@V?$allocator@_W@2@@std@@AEAI1@Z
;	COMDAT xdata
xdata	SEGMENT
$ip2state$?readPNG@IOUtil@@YAPEAEV?$basic_string@_WU?$char_traits@_W@std@@V?$allocator@_W@2@@std@@AEAI1@Z DD imagerel ?readPNG@IOUtil@@YAPEAEV?$basic_string@_WU?$char_traits@_W@std@@V?$allocator@_W@2@@std@@AEAI1@Z
	DD	0ffffffffH
	DD	imagerel ?readPNG@IOUtil@@YAPEAEV?$basic_string@_WU?$char_traits@_W@std@@V?$allocator@_W@2@@std@@AEAI1@Z+59
	DD	00H
	DD	imagerel ?readPNG@IOUtil@@YAPEAEV?$basic_string@_WU?$char_traits@_W@std@@V?$allocator@_W@2@@std@@AEAI1@Z+122
	DD	01H
	DD	imagerel ?readPNG@IOUtil@@YAPEAEV?$basic_string@_WU?$char_traits@_W@std@@V?$allocator@_W@2@@std@@AEAI1@Z+191
	DD	02H
	DD	imagerel ?readPNG@IOUtil@@YAPEAEV?$basic_string@_WU?$char_traits@_W@std@@V?$allocator@_W@2@@std@@AEAI1@Z+206
	DD	03H
	DD	imagerel ?readPNG@IOUtil@@YAPEAEV?$basic_string@_WU?$char_traits@_W@std@@V?$allocator@_W@2@@std@@AEAI1@Z+272
	DD	02H
	DD	imagerel ?readPNG@IOUtil@@YAPEAEV?$basic_string@_WU?$char_traits@_W@std@@V?$allocator@_W@2@@std@@AEAI1@Z+291
	DD	01H
	DD	imagerel ?readPNG@IOUtil@@YAPEAEV?$basic_string@_WU?$char_traits@_W@std@@V?$allocator@_W@2@@std@@AEAI1@Z+430
	DD	00H
	DD	imagerel ?readPNG@IOUtil@@YAPEAEV?$basic_string@_WU?$char_traits@_W@std@@V?$allocator@_W@2@@std@@AEAI1@Z+444
	DD	0ffffffffH
	DD	imagerel ?readPNG@IOUtil@@YAPEAEV?$basic_string@_WU?$char_traits@_W@std@@V?$allocator@_W@2@@std@@AEAI1@Z+464
	DD	01H
	DD	imagerel ?readPNG@IOUtil@@YAPEAEV?$basic_string@_WU?$char_traits@_W@std@@V?$allocator@_W@2@@std@@AEAI1@Z+484
	DD	00H
	DD	imagerel ?readPNG@IOUtil@@YAPEAEV?$basic_string@_WU?$char_traits@_W@std@@V?$allocator@_W@2@@std@@AEAI1@Z+500
	DD	0ffffffffH
xdata	ENDS
;	COMDAT xdata
xdata	SEGMENT
$stateUnwindMap$?readPNG@IOUtil@@YAPEAEV?$basic_string@_WU?$char_traits@_W@std@@V?$allocator@_W@2@@std@@AEAI1@Z DD 0ffffffffH
	DD	imagerel ?dtor$0@?0??readPNG@IOUtil@@YAPEAEV?$basic_string@_WU?$char_traits@_W@std@@V?$allocator@_W@2@@std@@AEAI1@Z@4HA
	DD	00H
	DD	imagerel ?dtor$1@?0??readPNG@IOUtil@@YAPEAEV?$basic_string@_WU?$char_traits@_W@std@@V?$allocator@_W@2@@std@@AEAI1@Z@4HA
	DD	01H
	DD	imagerel ?dtor$2@?0??readPNG@IOUtil@@YAPEAEV?$basic_string@_WU?$char_traits@_W@std@@V?$allocator@_W@2@@std@@AEAI1@Z@4HA
	DD	02H
	DD	imagerel ?dtor$3@?0??readPNG@IOUtil@@YAPEAEV?$basic_string@_WU?$char_traits@_W@std@@V?$allocator@_W@2@@std@@AEAI1@Z@4HA
xdata	ENDS
;	COMDAT CONST
CONST	SEGMENT
$cppxdata$?readPNG@IOUtil@@YAPEAEV?$basic_string@_WU?$char_traits@_W@std@@V?$allocator@_W@2@@std@@AEAI1@Z DD 019930522H
	DD	04H
	DD	imagerel $stateUnwindMap$?readPNG@IOUtil@@YAPEAEV?$basic_string@_WU?$char_traits@_W@std@@V?$allocator@_W@2@@std@@AEAI1@Z
	DD	00H
	DD	00H
	DD	0cH
	DD	imagerel $ip2state$?readPNG@IOUtil@@YAPEAEV?$basic_string@_WU?$char_traits@_W@std@@V?$allocator@_W@2@@std@@AEAI1@Z
	DD	070H
	DD	00H
	DD	01H
CONST	ENDS
;	COMDAT xdata
xdata	SEGMENT
$unwind$?readPNG@IOUtil@@YAPEAEV?$basic_string@_WU?$char_traits@_W@std@@V?$allocator@_W@2@@std@@AEAI1@Z DD 092d19H
	DD	0160112H
	DD	0e009f00bH
	DD	07005c007H
	DD	050036004H
	DD	03002H
	DD	imagerel __GSHandlerCheck_EH
	DD	imagerel $cppxdata$?readPNG@IOUtil@@YAPEAEV?$basic_string@_WU?$char_traits@_W@std@@V?$allocator@_W@2@@std@@AEAI1@Z
	DD	0a2H
xdata	ENDS
;	COMDAT xdata
xdata	SEGMENT
$chain$1$??__FEXE_DIR@IOUtil@@YAXXZ DD 021H
	DD	imagerel ??__FEXE_DIR@IOUtil@@YAXXZ
	DD	imagerel ??__FEXE_DIR@IOUtil@@YAXXZ+19
	DD	imagerel $unwind$??__FEXE_DIR@IOUtil@@YAXXZ
xdata	ENDS
;	COMDAT xdata
xdata	SEGMENT
$chain$0$??__FEXE_DIR@IOUtil@@YAXXZ DD 020521H
	DD	043405H
	DD	imagerel ??__FEXE_DIR@IOUtil@@YAXXZ
	DD	imagerel ??__FEXE_DIR@IOUtil@@YAXXZ+19
	DD	imagerel $unwind$??__FEXE_DIR@IOUtil@@YAXXZ
xdata	ENDS
;	COMDAT xdata
xdata	SEGMENT
$unwind$??__FEXE_DIR@IOUtil@@YAXXZ DD 010401H
	DD	04204H
xdata	ENDS
;	COMDAT xdata
xdata	SEGMENT
$unwind$?init@IOUtil@@YAXXZ DD 051f19H
	DD	04e340dH
	DD	04c010dH
	DD	07006H
	DD	imagerel __GSHandlerCheck
	DD	0250H
xdata	ENDS
;	COMDAT xdata
xdata	SEGMENT
$unwind$??0?$basic_string@_WU?$char_traits@_W@std@@V?$allocator@_W@2@@std@@QEAA@PEB_W@Z DD 020601H
	DD	030023206H
xdata	ENDS
;	COMDAT xdata
xdata	SEGMENT
$unwind$??1?$vector@EV?$allocator@E@std@@@std@@QEAA@XZ DD 020601H
	DD	030023206H
xdata	ENDS
;	COMDAT xdata
xdata	SEGMENT
$unwind$?find_last_of@?$basic_string@_WU?$char_traits@_W@std@@V?$allocator@_W@2@@std@@QEBA_KPEB_W_K1@Z DD 060f01H
	DD	07640fH
	DD	06340fH
	DD	0700b320fH
xdata	ENDS
;	COMDAT xdata
xdata	SEGMENT
$unwind$?_Tidy@?$vector@EV?$allocator@E@std@@@std@@IEAAXXZ DD 020601H
	DD	030023206H
xdata	ENDS
;	COMDAT xdata
xdata	SEGMENT
$unwind$?assign@?$basic_string@_WU?$char_traits@_W@std@@V?$allocator@_W@2@@std@@QEAAAEAV12@PEB_W_K@Z DD 060f01H
	DD	07640fH
	DD	06340fH
	DD	0700b320fH
	ORG $+7
?EXE_DIR@IOUtil@@3V?$basic_string@_WU?$char_traits@_W@std@@V?$allocator@_W@2@@std@@A DW 00H ; IOUtil::EXE_DIR
	DB	14 DUP(00H)
	DQ	0000000000000000H
	DQ	0000000000000007H
EXE_DIR$initializer$ DQ FLAT:??__EEXE_DIR@IOUtil@@YAXXZ
; Function compile flags: /Ogtp
; File c:\users\glenn\documents\github\wind\project\wind\wind\ioutil.cpp
; File c:\program files (x86)\microsoft visual studio 11.0\vc\include\xstring
; File c:\users\glenn\documents\github\wind\project\wind\wind\ioutil.cpp
; File c:\program files (x86)\microsoft visual studio 11.0\vc\include\xstring
; File c:\program files (x86)\microsoft visual studio 11.0\vc\include\xstddef
; File c:\program files (x86)\microsoft visual studio 11.0\vc\include\xstring
; File c:\users\glenn\documents\github\wind\project\wind\wind\ioutil.cpp
; File c:\program files (x86)\microsoft visual studio 11.0\vc\include\vector
; File c:\program files (x86)\microsoft visual studio 11.0\vc\include\xstring
; File c:\program files (x86)\microsoft visual studio 11.0\vc\include\iosfwd
; File c:\program files (x86)\microsoft visual studio 11.0\vc\include\xstring
; File c:\program files (x86)\microsoft visual studio 11.0\vc\include\vector
; File c:\users\glenn\documents\github\wind\project\wind\wind\lodepng.cpp
; File c:\program files (x86)\microsoft visual studio 11.0\vc\include\vector
; File c:\users\glenn\documents\github\wind\project\wind\wind\lodepng.cpp
; File c:\program files (x86)\microsoft visual studio 11.0\vc\include\vector
; File c:\users\glenn\documents\github\wind\project\wind\wind\lodepng.cpp
; File c:\program files (x86)\microsoft visual studio 11.0\vc\include\vector
; File c:\program files (x86)\microsoft visual studio 11.0\vc\include\xmemory0
; File c:\users\glenn\documents\github\wind\project\wind\wind\ioutil.cpp
; File c:\program files (x86)\microsoft visual studio 11.0\vc\include\xstring
; File c:\program files (x86)\microsoft visual studio 11.0\vc\include\xmemory0
; File c:\program files (x86)\microsoft visual studio 11.0\vc\include\xstring
; File c:\program files (x86)\microsoft visual studio 11.0\vc\include\iosfwd
; File c:\users\glenn\documents\github\wind\project\wind\wind\ioutil.cpp
; File c:\program files (x86)\microsoft visual studio 11.0\vc\include\vector
; File c:\users\glenn\documents\github\wind\project\wind\wind\ioutil.cpp
; File c:\program files (x86)\microsoft visual studio 11.0\vc\include\vector
; File c:\program files (x86)\microsoft visual studio 11.0\vc\include\xmemory0
; File c:\program files (x86)\microsoft visual studio 11.0\vc\include\xstring
; File c:\program files (x86)\microsoft visual studio 11.0\vc\include\xmemory0
; File c:\users\glenn\documents\github\wind\project\wind\wind\ioutil.cpp
; File c:\program files (x86)\microsoft visual studio 11.0\vc\include\vector
; File c:\program files (x86)\microsoft visual studio 11.0\vc\include\xmemory0
; File c:\program files (x86)\microsoft visual studio 11.0\vc\include\xstring
; File c:\program files (x86)\microsoft visual studio 11.0\vc\include\xmemory0
; File c:\users\glenn\documents\github\wind\project\wind\wind\ioutil.cpp
; File c:\program files (x86)\microsoft visual studio 11.0\vc\include\xstring
; File c:\program files (x86)\microsoft visual studio 11.0\vc\include\iosfwd
; File c:\users\glenn\documents\github\wind\project\wind\wind\ioutil.cpp
;	COMDAT ?readPNG@IOUtil@@YAPEAEV?$basic_string@_WU?$char_traits@_W@std@@V?$allocator@_W@2@@std@@AEAI1@Z
_TEXT	SEGMENT
buffer$1 = 64
image$ = 88
$T2 = 112
file$GSCopy$ = 120
$T3 = 128
__$ArrayPad$ = 160
file$ = 240
width$ = 248
height$ = 256
?readPNG@IOUtil@@YAPEAEV?$basic_string@_WU?$char_traits@_W@std@@V?$allocator@_W@2@@std@@AEAI1@Z PROC ; IOUtil::readPNG, COMDAT

; 24   : {

$LN241:
  00000	40 53		 push	 rbx
  00002	55		 push	 rbp
  00003	56		 push	 rsi
  00004	57		 push	 rdi
  00005	41 54		 push	 r12
  00007	41 56		 push	 r14
  00009	41 57		 push	 r15
  0000b	48 81 ec b0 00
	00 00		 sub	 rsp, 176		; 000000b0H
  00012	48 c7 44 24 70
	fe ff ff ff	 mov	 QWORD PTR $T2[rsp], -2
  0001b	48 8b 05 00 00
	00 00		 mov	 rax, QWORD PTR __security_cookie
  00022	48 33 c4	 xor	 rax, rsp
  00025	48 89 84 24 a0
	00 00 00	 mov	 QWORD PTR __$ArrayPad$[rsp], rax
  0002d	4d 8b f0	 mov	 r14, r8
  00030	4c 8b fa	 mov	 r15, rdx
  00033	48 8b d9	 mov	 rbx, rcx
  00036	48 89 4c 24 78	 mov	 QWORD PTR file$GSCopy$[rsp], rcx
; File c:\program files (x86)\microsoft visual studio 11.0\vc\include\xstring

; 1728 : 		return (this->_Mysize);

  0003b	48 8b 49 10	 mov	 rcx, QWORD PTR [rcx+16]
; File c:\users\glenn\documents\github\wind\project\wind\wind\ioutil.cpp

; 25   : 	char* nFileName = new char[file.length() + 1];

  0003f	48 ff c1	 inc	 rcx
  00042	e8 00 00 00 00	 call	 ??_U@YAPEAX_K@Z		; operator new[]
  00047	48 8b f8	 mov	 rdi, rax
; File c:\program files (x86)\microsoft visual studio 11.0\vc\include\xstring

; 1728 : 		return (this->_Mysize);

  0004a	4c 8b 43 10	 mov	 r8, QWORD PTR [rbx+16]

; 524  : 			: this->_Bx._Buf);

  0004e	48 83 7b 18 08	 cmp	 QWORD PTR [rbx+24], 8
  00053	72 05		 jb	 SHORT $LN18@readPNG
; File c:\program files (x86)\microsoft visual studio 11.0\vc\include\xstddef

; 88   : 		reinterpret_cast<const volatile char&>(_Val)))));

  00055	48 8b 13	 mov	 rdx, QWORD PTR [rbx]
; File c:\program files (x86)\microsoft visual studio 11.0\vc\include\xstring

; 524  : 			: this->_Bx._Buf);

  00058	eb 03		 jmp	 SHORT $LN19@readPNG
$LN18@readPNG:
  0005a	48 8b d3	 mov	 rdx, rbx
$LN19@readPNG:
; File c:\users\glenn\documents\github\wind\project\wind\wind\ioutil.cpp

; 26   : 	std::wcstombs(nFileName, file.c_str(), sizeof(char) * (file.length() + 1));

  0005d	49 ff c0	 inc	 r8
  00060	48 8b c8	 mov	 rcx, rax
  00063	e8 00 00 00 00	 call	 wcstombs
; File c:\program files (x86)\microsoft visual studio 11.0\vc\include\vector

; 486  : 		_Myfirst = pointer();

  00068	45 33 e4	 xor	 r12d, r12d
  0006b	4c 89 64 24 58	 mov	 QWORD PTR image$[rsp], r12

; 487  : 		_Mylast = pointer();

  00070	4c 89 64 24 60	 mov	 QWORD PTR image$[rsp+8], r12

; 488  : 		_Myend = pointer();

  00075	4c 89 64 24 68	 mov	 QWORD PTR image$[rsp+16], r12
; File c:\program files (x86)\microsoft visual studio 11.0\vc\include\xstring

; 2265 : 		this->_Myres = this->_BUF_SIZE - 1;

  0007a	48 c7 84 24 98
	00 00 00 0f 00
	00 00		 mov	 QWORD PTR $T3[rsp+24], 15

; 1729 : 		}
; 1730 : 
; 1731 : 	size_type size() const _NOEXCEPT
; 1732 : 		{	// return length of sequence
; 1733 : 		return (this->_Mysize);
; 1734 : 		}
; 1735 : 
; 1736 : 	size_type max_size() const _NOEXCEPT
; 1737 : 		{	// return maximum possible length of sequence
; 1738 : 		size_type _Num = this->_Getal().max_size();
; 1739 : 		return (_Num <= 1 ? 1 : _Num - 1);
; 1740 : 		}
; 1741 : 
; 1742 : 	void resize(size_type _Newsize)
; 1743 : 		{	// determine new length, padding with null elements as needed
; 1744 : 		resize(_Newsize, _Elem());
; 1745 : 		}
; 1746 : 
; 1747 : 	void resize(size_type _Newsize, _Elem _Ch)
; 1748 : 		{	// determine new length, padding with _Ch elements as needed
; 1749 : 		if (_Newsize <= this->_Mysize)
; 1750 : 			_Eos(_Newsize);
; 1751 : 		else
; 1752 : 			append(_Newsize - this->_Mysize, _Ch);
; 1753 : 		}
; 1754 : 
; 1755 : 	size_type capacity() const _NOEXCEPT
; 1756 : 		{	// return current length of allocated storage
; 1757 : 		return (this->_Myres);
; 1758 : 		}
; 1759 : 
; 1760 : 	void reserve(size_type _Newcap = 0)
; 1761 : 		{	// determine new minimum length of allocated storage
; 1762 : 		if (this->_Mysize <= _Newcap && this->_Myres != _Newcap)
; 1763 : 			{	// change reservation
; 1764 : 			size_type _Size = this->_Mysize;
; 1765 : 			if (_Grow(_Newcap, true))
; 1766 : 				_Eos(_Size);
; 1767 : 			}
; 1768 : 		}
; 1769 : 
; 1770 : 	bool empty() const _NOEXCEPT
; 1771 : 		{	// test if sequence is empty
; 1772 : 		return (this->_Mysize == 0);
; 1773 : 		}
; 1774 : 
; 1775 : 	_SCL_INSECURE_DEPRECATE
; 1776 : 
; 1777 : 	size_type copy(_Elem *_Ptr,
; 1778 : 		size_type _Count, size_type _Off = 0) const
; 1779 : 		{	// copy [_Off, _Off + _Count) to [_Ptr, _Ptr + _Count)
; 1780 :  #if _ITERATOR_DEBUG_LEVEL == 2
; 1781 : 		if (_Count != 0)
; 1782 : 			_DEBUG_POINTER(_Ptr);
; 1783 :  #endif /* _ITERATOR_DEBUG_LEVEL == 2 */
; 1784 : 
; 1785 : 		if (this->_Mysize < _Off)
; 1786 : 			_Xran();	// _Off off end
; 1787 : 		if (this->_Mysize - _Off < _Count)
; 1788 : 			_Count = this->_Mysize - _Off;
; 1789 : 		_Traits::copy(_Ptr, this->_Myptr() + _Off, _Count);
; 1790 : 		return (_Count);
; 1791 : 		}
; 1792 : 
; 1793 : 	size_type _Copy_s(_Elem *_Dest, size_type _Dest_size,
; 1794 : 		size_type _Count, size_type _Off = 0) const
; 1795 : 		{	// copy [_Off, _Off + _Count) to [_Dest, _Dest + _Count)
; 1796 :  #if _ITERATOR_DEBUG_LEVEL == 2
; 1797 : 		if (_Count != 0)
; 1798 : 			_DEBUG_POINTER(_Dest);
; 1799 :  #endif /* _ITERATOR_DEBUG_LEVEL == 2 */
; 1800 : 
; 1801 : 		if (this->_Mysize < _Off)
; 1802 : 			_Xran();	// _Off off end
; 1803 : 		if (this->_Mysize - _Off < _Count)
; 1804 : 			_Count = this->_Mysize - _Off;
; 1805 : 		_Traits::_Copy_s(_Dest, _Dest_size, this->_Myptr() + _Off, _Count);
; 1806 : 		return (_Count);
; 1807 : 		}
; 1808 : 
; 1809 : 	void _Swap_bx(_Myt& _Right)
; 1810 : 		{	// exchange _Bx with _Right._Bx
; 1811 : 		if (this->_BUF_SIZE <= this->_Myres)
; 1812 : 			if (this->_BUF_SIZE <= _Right._Myres)
; 1813 : 				_Swap_adl(this->_Bx._Ptr, _Right._Bx._Ptr);
; 1814 : 			else
; 1815 : 				{	// swap large with small
; 1816 : 				pointer _Ptr = this->_Bx._Ptr;
; 1817 : 				this->_Getal().destroy(&this->_Bx._Ptr);
; 1818 : 				_Traits::copy(this->_Bx._Buf,
; 1819 : 					_Right._Bx._Buf, _Right._Mysize + 1);
; 1820 : 				this->_Getal().construct(&_Right._Bx._Ptr, _Ptr);
; 1821 : 				}
; 1822 : 		else
; 1823 : 			if (_Right._Myres < this->_BUF_SIZE)
; 1824 : 				_STD swap(this->_Bx._Buf, _Right._Bx._Buf);
; 1825 : 			else
; 1826 : 				{	// swap small with large
; 1827 : 				pointer _Ptr = _Right._Bx._Ptr;
; 1828 : 				this->_Getal().destroy(&_Right._Bx._Ptr);
; 1829 : 				_Traits::copy(_Right._Bx._Buf,
; 1830 : 					this->_Bx._Buf, this->_Mysize + 1);
; 1831 : 				this->_Getal().construct(&this->_Bx._Ptr, _Ptr);
; 1832 : 				}
; 1833 : 		}
; 1834 : 
; 1835 : 	void swap(_Myt& _Right)
; 1836 : 		{	// exchange contents with _Right
; 1837 : 		if (this == &_Right)
; 1838 : 			;	// same object, do nothing
; 1839 : 		else if (this->_Getal() == _Right._Getal())
; 1840 : 			{	// same allocator, swap control information
; 1841 : 			this->_Swap_all(_Right);
; 1842 : 			_Swap_bx(_Right);
; 1843 : 			_STD swap(this->_Mysize, _Right._Mysize);
; 1844 : 			_STD swap(this->_Myres, _Right._Myres);
; 1845 : 			}
; 1846 : 
; 1847 :  #if _HAS_CPP0X
; 1848 : 		else if (_Alty::propagate_on_container_swap::value)
; 1849 : 			{	// swap allocators and control information
; 1850 : 			this->_Swap_alloc(_Right);
; 1851 : 			_Swap_bx(_Right);
; 1852 : 			_STD swap(this->_Bx, _Right._Bx);	// pointer bitwise copyable?
; 1853 : 			_STD swap(this->_Mysize, _Right._Mysize);
; 1854 : 			_STD swap(this->_Myres, _Right._Myres);
; 1855 : 			}
; 1856 :  #endif /* _HAS_CPP0X */
; 1857 : 
; 1858 : 		else
; 1859 : 			{	// different allocator, do multiple assigns
; 1860 : 			_Myt _Tmp = *this;
; 1861 : 
; 1862 : 			*this = _Right;
; 1863 : 			_Right = _Tmp;
; 1864 : 			}
; 1865 : 		}
; 1866 : 
; 1867 : 	size_type find(const _Myt& _Right, size_type _Off = 0) const _NOEXCEPT
; 1868 : 		{	// look for _Right beginning at or after _Off
; 1869 : 		return (find(_Right._Myptr(), _Off, _Right.size()));
; 1870 : 		}
; 1871 : 
; 1872 : 	size_type find(const _Elem *_Ptr,
; 1873 : 		size_type _Off, size_type _Count) const
; 1874 : 		{	// look for [_Ptr, _Ptr + _Count) beginning at or after _Off
; 1875 :  #if _ITERATOR_DEBUG_LEVEL == 2
; 1876 : 		if (_Count != 0)
; 1877 : 			_DEBUG_POINTER(_Ptr);
; 1878 :  #endif /* _ITERATOR_DEBUG_LEVEL == 2 */
; 1879 : 
; 1880 : 		if (_Count == 0 && _Off <= this->_Mysize)
; 1881 : 			return (_Off);	// null string always matches (if inside string)
; 1882 : 
; 1883 : 		size_type _Nm;
; 1884 : 		if (_Off < this->_Mysize && _Count <= (_Nm = this->_Mysize - _Off))
; 1885 : 			{	// room for match, look for it
; 1886 : 			const _Elem *_Uptr, *_Vptr;
; 1887 : 			for (_Nm -= _Count - 1, _Vptr = this->_Myptr() + _Off;
; 1888 : 				(_Uptr = _Traits::find(_Vptr, _Nm, *_Ptr)) != 0;
; 1889 : 				_Nm -= _Uptr - _Vptr + 1, _Vptr = _Uptr + 1)
; 1890 : 				if (_Traits::compare(_Uptr, _Ptr, _Count) == 0)
; 1891 : 					return (_Uptr - this->_Myptr());	// found a match
; 1892 : 			}
; 1893 : 
; 1894 : 		return (npos);	// no match
; 1895 : 		}
; 1896 : 
; 1897 : 	size_type find(const _Elem *_Ptr, size_type _Off = 0) const
; 1898 : 		{	// look for [_Ptr, <null>) beginning at or after _Off
; 1899 : 		_DEBUG_POINTER(_Ptr);
; 1900 : 		return (find(_Ptr, _Off, _Traits::length(_Ptr)));
; 1901 : 		}
; 1902 : 
; 1903 : 	size_type find(_Elem _Ch, size_type _Off = 0) const
; 1904 : 		{	// look for _Ch at or after _Off
; 1905 : 		return (find((const _Elem *)&_Ch, _Off, 1));
; 1906 : 		}
; 1907 : 
; 1908 : 	size_type rfind(const _Myt& _Right, size_type _Off = npos) const _NOEXCEPT
; 1909 : 		{	// look for _Right beginning before _Off
; 1910 : 		return (rfind(_Right._Myptr(), _Off, _Right.size()));
; 1911 : 		}
; 1912 : 
; 1913 : 	size_type rfind(const _Elem *_Ptr,
; 1914 : 		size_type _Off, size_type _Count) const
; 1915 : 		{	// look for [_Ptr, _Ptr + _Count) beginning before _Off
; 1916 :  #if _ITERATOR_DEBUG_LEVEL == 2
; 1917 : 		if (_Count != 0)
; 1918 : 			_DEBUG_POINTER(_Ptr);
; 1919 :  #endif /* _ITERATOR_DEBUG_LEVEL == 2 */
; 1920 : 
; 1921 : 		if (_Count == 0)
; 1922 : 			return (_Off < this->_Mysize ? _Off
; 1923 : 				: this->_Mysize);	// null always matches
; 1924 : 		if (_Count <= this->_Mysize)
; 1925 : 			{	// room for match, look for it
; 1926 : 			const _Elem *_Uptr = this->_Myptr() +
; 1927 : 				(_Off < this->_Mysize - _Count ? _Off
; 1928 : 					: this->_Mysize - _Count);
; 1929 : 			for (; ; --_Uptr)
; 1930 : 				if (_Traits::eq(*_Uptr, *_Ptr)
; 1931 : 					&& _Traits::compare(_Uptr, _Ptr, _Count) == 0)
; 1932 : 					return (_Uptr - this->_Myptr());	// found a match
; 1933 : 				else if (_Uptr == this->_Myptr())
; 1934 : 					break;	// at beginning, no more chance for match
; 1935 : 			}
; 1936 : 
; 1937 : 		return (npos);	// no match
; 1938 : 		}
; 1939 : 
; 1940 : 	size_type rfind(const _Elem *_Ptr, size_type _Off = npos) const
; 1941 : 		{	// look for [_Ptr, <null>) beginning before _Off
; 1942 : 		_DEBUG_POINTER(_Ptr);
; 1943 : 		return (rfind(_Ptr, _Off, _Traits::length(_Ptr)));
; 1944 : 		}
; 1945 : 
; 1946 : 	size_type rfind(_Elem _Ch, size_type _Off = npos) const
; 1947 : 		{	// look for _Ch before _Off
; 1948 : 		return (rfind((const _Elem *)&_Ch, _Off, 1));
; 1949 : 		}
; 1950 : 
; 1951 : 	size_type find_first_of(const _Myt& _Right,
; 1952 : 		size_type _Off = 0) const _NOEXCEPT
; 1953 : 		{	// look for one of _Right at or after _Off
; 1954 : 		return (find_first_of(_Right._Myptr(), _Off, _Right.size()));
; 1955 : 		}
; 1956 : 
; 1957 : 	size_type find_first_of(const _Elem *_Ptr,
; 1958 : 		size_type _Off, size_type _Count) const
; 1959 : 		{	// look for one of [_Ptr, _Ptr + _Count) at or after _Off
; 1960 :  #if _ITERATOR_DEBUG_LEVEL == 2
; 1961 : 		if (_Count != 0)
; 1962 : 			_DEBUG_POINTER(_Ptr);
; 1963 :  #endif /* _ITERATOR_DEBUG_LEVEL == 2 */
; 1964 : 
; 1965 : 		if (0 < _Count && _Off < this->_Mysize)
; 1966 : 			{	// room for match, look for it
; 1967 : 			const _Elem *const _Vptr = this->_Myptr() + this->_Mysize;
; 1968 : 			for (const _Elem *_Uptr = this->_Myptr() + _Off;
; 1969 : 				_Uptr < _Vptr; ++_Uptr)
; 1970 : 				if (_Traits::find(_Ptr, _Count, *_Uptr) != 0)
; 1971 : 					return (_Uptr - this->_Myptr());	// found a match
; 1972 : 			}
; 1973 : 
; 1974 : 		return (npos);	// no match
; 1975 : 		}
; 1976 : 
; 1977 : 	size_type find_first_of(const _Elem *_Ptr,
; 1978 : 		size_type _Off = 0) const
; 1979 : 		{	// look for one of [_Ptr, <null>) at or after _Off
; 1980 : 		_DEBUG_POINTER(_Ptr);
; 1981 : 		return (find_first_of(_Ptr, _Off, _Traits::length(_Ptr)));
; 1982 : 		}
; 1983 : 
; 1984 : 	size_type find_first_of(_Elem _Ch,
; 1985 : 		size_type _Off = 0) const
; 1986 : 		{	// look for _Ch at or after _Off
; 1987 : 		return (find((const _Elem *)&_Ch, _Off, 1));
; 1988 : 		}
; 1989 : 
; 1990 : 	size_type find_last_of(const _Myt& _Right,
; 1991 : 		size_type _Off = npos) const _NOEXCEPT
; 1992 : 		{	// look for one of _Right before _Off
; 1993 : 		return (find_last_of(_Right._Myptr(), _Off, _Right.size()));
; 1994 : 		}
; 1995 : 
; 1996 : 	size_type find_last_of(const _Elem *_Ptr,
; 1997 : 		size_type _Off, size_type _Count) const
; 1998 : 		{	// look for one of [_Ptr, _Ptr + _Count) before _Off
; 1999 :  #if _ITERATOR_DEBUG_LEVEL == 2
; 2000 : 		if (_Count != 0)
; 2001 : 			_DEBUG_POINTER(_Ptr);
; 2002 :  #endif /* _ITERATOR_DEBUG_LEVEL == 2 */
; 2003 : 
; 2004 : 		if (0 < _Count && 0 < this->_Mysize)
; 2005 : 			{	// worth searching, do it
; 2006 : 			const _Elem *_Uptr = this->_Myptr()
; 2007 : 				+ (_Off < this->_Mysize ? _Off : this->_Mysize - 1);
; 2008 : 			for (; ; --_Uptr)
; 2009 : 				if (_Traits::find(_Ptr, _Count, *_Uptr) != 0)
; 2010 : 					return (_Uptr - this->_Myptr());	// found a match
; 2011 : 				else if (_Uptr == this->_Myptr())
; 2012 : 					break;	// at beginning, no more chance for match
; 2013 : 			}
; 2014 : 
; 2015 : 		return (npos);	// no match
; 2016 : 		}
; 2017 : 
; 2018 : 	size_type find_last_of(const _Elem *_Ptr,
; 2019 : 		size_type _Off = npos) const
; 2020 : 		{	// look for one of [_Ptr, <null>) before _Off
; 2021 : 		_DEBUG_POINTER(_Ptr);
; 2022 : 		return (find_last_of(_Ptr, _Off, _Traits::length(_Ptr)));
; 2023 : 		}
; 2024 : 
; 2025 : 	size_type find_last_of(_Elem _Ch,
; 2026 : 		size_type _Off = npos) const
; 2027 : 		{	// look for _Ch before _Off
; 2028 : 		return (rfind((const _Elem *)&_Ch, _Off, 1));
; 2029 : 		}
; 2030 : 
; 2031 : 	size_type find_first_not_of(const _Myt& _Right,
; 2032 : 		size_type _Off = 0) const _NOEXCEPT
; 2033 : 		{	// look for none of _Right at or after _Off
; 2034 : 		return (find_first_not_of(_Right._Myptr(), _Off,
; 2035 : 			_Right.size()));
; 2036 : 		}
; 2037 : 
; 2038 : 	size_type find_first_not_of(const _Elem *_Ptr,
; 2039 : 		size_type _Off, size_type _Count) const
; 2040 : 		{	// look for none of [_Ptr, _Ptr + _Count) at or after _Off
; 2041 :  #if _ITERATOR_DEBUG_LEVEL == 2
; 2042 : 		if (_Count != 0)
; 2043 : 			_DEBUG_POINTER(_Ptr);
; 2044 :  #endif /* _ITERATOR_DEBUG_LEVEL == 2 */
; 2045 : 
; 2046 : 		if (_Off < this->_Mysize)
; 2047 : 			{	// room for match, look for it
; 2048 : 			const _Elem *const _Vptr = this->_Myptr() + this->_Mysize;
; 2049 : 			for (const _Elem *_Uptr = this->_Myptr() + _Off;
; 2050 : 				_Uptr < _Vptr; ++_Uptr)
; 2051 : 				if (_Traits::find(_Ptr, _Count, *_Uptr) == 0)
; 2052 : 					return (_Uptr - this->_Myptr());
; 2053 : 			}
; 2054 : 		return (npos);
; 2055 : 		}
; 2056 : 
; 2057 : 	size_type find_first_not_of(const _Elem *_Ptr,
; 2058 : 		size_type _Off = 0) const
; 2059 : 		{	// look for one of [_Ptr, <null>) at or after _Off
; 2060 : 		_DEBUG_POINTER(_Ptr);
; 2061 : 		return (find_first_not_of(_Ptr, _Off, _Traits::length(_Ptr)));
; 2062 : 		}
; 2063 : 
; 2064 : 	size_type find_first_not_of(_Elem _Ch,
; 2065 : 		size_type _Off = 0) const
; 2066 : 		{	// look for non _Ch at or after _Off
; 2067 : 		return (find_first_not_of((const _Elem *)&_Ch, _Off, 1));
; 2068 : 		}
; 2069 : 
; 2070 : 	size_type find_last_not_of(const _Myt& _Right,
; 2071 : 		size_type _Off = npos) const _NOEXCEPT
; 2072 : 		{	// look for none of _Right before _Off
; 2073 : 		return (find_last_not_of(_Right._Myptr(), _Off, _Right.size()));
; 2074 : 		}
; 2075 : 
; 2076 : 	size_type find_last_not_of(const _Elem *_Ptr,
; 2077 : 		size_type _Off, size_type _Count) const
; 2078 : 		{	// look for none of [_Ptr, _Ptr + _Count) before _Off
; 2079 :  #if _ITERATOR_DEBUG_LEVEL == 2
; 2080 : 		if (_Count != 0)
; 2081 : 			_DEBUG_POINTER(_Ptr);
; 2082 :  #endif /* _ITERATOR_DEBUG_LEVEL == 2 */
; 2083 : 
; 2084 : 		if (0 < this->_Mysize)
; 2085 : 			{	// worth searching, do it
; 2086 : 			const _Elem *_Uptr = this->_Myptr()
; 2087 : 				+ (_Off < this->_Mysize ? _Off : this->_Mysize - 1);
; 2088 : 			for (; ; --_Uptr)
; 2089 : 				if (_Traits::find(_Ptr, _Count, *_Uptr) == 0)
; 2090 : 					return (_Uptr - this->_Myptr());
; 2091 : 				else if (_Uptr == this->_Myptr())
; 2092 : 					break;
; 2093 : 			}
; 2094 : 		return (npos);
; 2095 : 		}
; 2096 : 
; 2097 : 	size_type find_last_not_of(const _Elem *_Ptr,
; 2098 : 		size_type _Off = npos) const
; 2099 : 		{	// look for none of [_Ptr, <null>) before _Off
; 2100 : 		_DEBUG_POINTER(_Ptr);
; 2101 : 		return (find_last_not_of(_Ptr, _Off, _Traits::length(_Ptr)));
; 2102 : 		}
; 2103 : 
; 2104 : 	size_type find_last_not_of(_Elem _Ch,
; 2105 : 		size_type _Off = npos) const
; 2106 : 		{	// look for non _Ch before _Off
; 2107 : 		return (find_last_not_of((const _Elem *)&_Ch, _Off, 1));
; 2108 : 		}
; 2109 : 
; 2110 : 	_Myt substr(size_type _Off = 0, size_type _Count = npos) const
; 2111 : 		{	// return [_Off, _Off + _Count) as new string
; 2112 : 		return (_Myt(*this, _Off, _Count, get_allocator()));
; 2113 : 		}
; 2114 : 
; 2115 : 	int compare(const _Myt& _Right) const _NOEXCEPT
; 2116 : 		{	// compare [0, _Mysize) with _Right
; 2117 : 		return (compare(0, this->_Mysize, _Right._Myptr(), _Right.size()));
; 2118 : 		}
; 2119 : 
; 2120 : 	int compare(size_type _Off, size_type _N0,
; 2121 : 		const _Myt& _Right) const
; 2122 : 		{	// compare [_Off, _Off + _N0) with _Right
; 2123 : 		return (compare(_Off, _N0, _Right, 0, npos));
; 2124 : 		}
; 2125 : 
; 2126 : 	int compare(size_type _Off,
; 2127 : 		size_type _N0, const _Myt& _Right,
; 2128 : 		size_type _Roff, size_type _Count) const
; 2129 : 		{	// compare [_Off, _Off + _N0) with _Right [_Roff, _Roff + _Count)
; 2130 : 		if (_Right.size() < _Roff)
; 2131 : 			_Xran();	// _Off off end
; 2132 : 		if (_Right._Mysize - _Roff < _Count)
; 2133 : 			_Count = _Right._Mysize - _Roff;	// trim _Count to size
; 2134 : 		return (compare(_Off, _N0, _Right._Myptr() + _Roff, _Count));
; 2135 : 		}
; 2136 : 
; 2137 : 	int compare(const _Elem *_Ptr) const
; 2138 : 		{	// compare [0, _Mysize) with [_Ptr, <null>)
; 2139 : 		_DEBUG_POINTER(_Ptr);
; 2140 : 		return (compare(0, this->_Mysize, _Ptr, _Traits::length(_Ptr)));
; 2141 : 		}
; 2142 : 
; 2143 : 	int compare(size_type _Off, size_type _N0, const _Elem *_Ptr) const
; 2144 : 		{	// compare [_Off, _Off + _N0) with [_Ptr, <null>)
; 2145 : 		_DEBUG_POINTER(_Ptr);
; 2146 : 		return (compare(_Off, _N0, _Ptr, _Traits::length(_Ptr)));
; 2147 : 		}
; 2148 : 
; 2149 : 	int compare(size_type _Off,
; 2150 : 		size_type _N0, const _Elem *_Ptr, size_type _Count) const
; 2151 : 		{	// compare [_Off, _Off + _N0) with [_Ptr, _Ptr + _Count)
; 2152 :  #if _ITERATOR_DEBUG_LEVEL == 2
; 2153 : 		if (_Count != 0)
; 2154 : 			_DEBUG_POINTER(_Ptr);
; 2155 :  #endif /* _ITERATOR_DEBUG_LEVEL == 2 */
; 2156 : 
; 2157 : 		if (this->_Mysize < _Off)
; 2158 : 			_Xran();	// _Off off end
; 2159 : 		if (this->_Mysize - _Off < _N0)
; 2160 : 			_N0 = this->_Mysize - _Off;	// trim _N0 to size
; 2161 : 
; 2162 : 		size_type _Ans = _Traits::compare(this->_Myptr() + _Off, _Ptr,
; 2163 : 			_N0 < _Count ? _N0 : _Count);
; 2164 : 		return (_Ans != 0 ? (int)_Ans : _N0 < _Count ? -1
; 2165 : 			: _N0 == _Count ? 0 : +1);
; 2166 : 		}
; 2167 : 
; 2168 : 	allocator_type get_allocator() const _NOEXCEPT
; 2169 : 		{	// return allocator object for values
; 2170 : 		return (this->_Getal());
; 2171 : 		}
; 2172 : 
; 2173 : 	void _Chassign(size_type _Off, size_type _Count, _Elem _Ch)
; 2174 : 		{	// assign _Count copies of _Ch beginning at _Off
; 2175 : 		if (_Count == 1)
; 2176 : 			_Traits::assign(*(this->_Myptr() + _Off), _Ch);
; 2177 : 		else
; 2178 : 			_Traits::assign(this->_Myptr() + _Off, _Count, _Ch);
; 2179 : 		}
; 2180 : 
; 2181 : 	void _Copy(size_type _Newsize, size_type _Oldlen)
; 2182 : 		{	// copy _Oldlen elements to newly allocated buffer
; 2183 : 		size_type _Newres = _Newsize | this->_ALLOC_MASK;
; 2184 : 		if (max_size() < _Newres)
; 2185 : 			_Newres = _Newsize;	// undo roundup if too big
; 2186 : 		else if (this->_Myres / 2 <= _Newres / 3)
; 2187 : 			;
; 2188 : 		else if (this->_Myres <= max_size() - this->_Myres / 2)
; 2189 : 			_Newres = this->_Myres
; 2190 : 				+ this->_Myres / 2;	// grow exponentially if possible
; 2191 : 		else
; 2192 : 			_Newres = max_size();	// settle for max_size()
; 2193 : 
; 2194 : 		_Elem *_Ptr;
; 2195 : 		_TRY_BEGIN
; 2196 : 			_Ptr = this->_Getal().allocate(_Newres + 1);
; 2197 : 		_CATCH_ALL
; 2198 : 			_Newres = _Newsize;	// allocation failed, undo roundup and retry
; 2199 : 			_TRY_BEGIN
; 2200 : 				_Ptr = this->_Getal().allocate(_Newres + 1);
; 2201 : 			_CATCH_ALL
; 2202 : 			_Tidy(true);	// failed again, discard storage and reraise
; 2203 : 			_RERAISE;
; 2204 : 			_CATCH_END
; 2205 : 		_CATCH_END
; 2206 : 
; 2207 : 		if (0 < _Oldlen)
; 2208 : 			_Traits::copy(_Ptr, this->_Myptr(),
; 2209 : 				_Oldlen);	// copy existing elements
; 2210 : 		_Tidy(true);
; 2211 : 		this->_Getal().construct(&this->_Bx._Ptr, _Ptr);
; 2212 : 		this->_Myres = _Newres;
; 2213 : 		_Eos(_Oldlen);
; 2214 : 		}
; 2215 : 
; 2216 : 	void _Eos(size_type _Newsize)
; 2217 : 		{	// set new length and null terminator
; 2218 : 		_Traits::assign(this->_Myptr()[this->_Mysize = _Newsize], _Elem());

  00086	4c 89 a4 24 90
	00 00 00	 mov	 QWORD PTR $T3[rsp+16], r12
; File c:\program files (x86)\microsoft visual studio 11.0\vc\include\iosfwd

; 564  : 		_Left = _Right;

  0008e	44 88 a4 24 80
	00 00 00	 mov	 BYTE PTR $T3[rsp], r12b

; 348  : 		}
; 349  : 
; 350  : 	static bool __CLRCALL_OR_CDECL eq(const _Elem& _Left,
; 351  : 		const _Elem& _Right) _NOEXCEPT
; 352  : 		{	// test for element equality
; 353  : 		return (_Left == _Right);
; 354  : 		}
; 355  : 
; 356  : 	static bool __CLRCALL_OR_CDECL lt(const _Elem& _Left,
; 357  : 		const _Elem& _Right) _NOEXCEPT
; 358  : 		{	// test if _Left precedes _Right
; 359  : 		return (_Left < _Right);
; 360  : 		}
; 361  : 
; 362  : 	static _Elem __CLRCALL_OR_CDECL to_char_type(
; 363  : 		const int_type& _Meta) _NOEXCEPT
; 364  : 		{	// convert metacharacter to character
; 365  : 		return (_Meta);
; 366  : 		}
; 367  : 
; 368  : 	static int_type __CLRCALL_OR_CDECL to_int_type(
; 369  : 		const _Elem& _Ch) _NOEXCEPT
; 370  : 		{	// convert character to metacharacter
; 371  : 		return (_Ch);
; 372  : 		}
; 373  : 
; 374  : 	static bool __CLRCALL_OR_CDECL eq_int_type(const int_type& _Left,
; 375  : 		const int_type& _Right) _NOEXCEPT
; 376  : 		{	// test for metacharacter equality
; 377  : 		return (_Left == _Right);
; 378  : 		}
; 379  : 
; 380  : 	static int_type __CLRCALL_OR_CDECL not_eof(
; 381  : 		const int_type& _Meta) _NOEXCEPT
; 382  : 		{	// return anything but EOF
; 383  : 		return (_Meta != eof() ? _Meta : !eof());
; 384  : 		}
; 385  : 
; 386  : 	static int_type __CLRCALL_OR_CDECL eof() _NOEXCEPT
; 387  : 		{	// return end-of-file metacharacter
; 388  : 		return (WEOF);
; 389  : 		}
; 390  : 	};
; 391  : 
; 392  :  #ifdef _NATIVE_WCHAR_T_DEFINED
; 393  : 		// STRUCT char_traits<unsigned short>
; 394  : template<>
; 395  : 	struct char_traits<unsigned short>
; 396  : 	{	// properties of a string or stream unsigned short element
; 397  : 	typedef unsigned short _Elem;
; 398  : 	typedef _Elem char_type;	// for overloads
; 399  : 	typedef wint_t int_type;
; 400  : 	typedef streampos pos_type;
; 401  : 	typedef streamoff off_type;
; 402  : 	typedef _Mbstatet state_type;
; 403  : 
; 404  : 	static int __CLRCALL_OR_CDECL compare(const _Elem *_First1, const _Elem *_First2,
; 405  : 		size_t _Count)
; 406  : 		{	// compare [_First1, _First1 + _Count) with [_First2, ...)
; 407  : 		return (_Count == 0 ? 0
; 408  : 			: _CSTD wmemcmp((const wchar_t *)_First1,
; 409  : 				(const wchar_t *)_First2, _Count));
; 410  : 		}
; 411  : 
; 412  : 	static size_t __CLRCALL_OR_CDECL length(const _Elem *_First)
; 413  : 		{	// find length of null-terminated sequence
; 414  : 		return (*_First == 0 ? 0
; 415  : 			: _CSTD wcslen((const wchar_t *)_First));
; 416  : 		}
; 417  : 
; 418  : 	static _Elem *__CLRCALL_OR_CDECL copy(_Elem *_First1, const _Elem *_First2,
; 419  : 		size_t _Count)
; 420  : 		{	// copy [_First2, _First2 + _Count) to [_First1, ...)
; 421  : 		return (_Count == 0 ? _First1
; 422  : 			: (_Elem *)_CSTD wmemcpy((wchar_t *)_First1,
; 423  : 				(const wchar_t *)_First2, _Count));
; 424  : 		}
; 425  : 
; 426  : 	static _Elem *__CLRCALL_OR_CDECL _Copy_s(
; 427  : 		_Out_writes_(_Size_in_words) _Elem *_First1, size_t _Size_in_words,
; 428  : 		_In_reads_(_Count) const _Elem *_First2, size_t _Count)
; 429  : 		{	// copy [_First2, _First2 + _Count) to [_First1, ...)
; 430  : 		if (0 < _Count)
; 431  : 			_CRT_SECURE_WMEMCPY((wchar_t *)_First1, _Size_in_words,
; 432  : 				(const wchar_t *)_First2, _Count);
; 433  : 		return (_First1);
; 434  : 		}
; 435  : 
; 436  : 	static const _Elem *__CLRCALL_OR_CDECL find(const _Elem *_First, size_t _Count,
; 437  : 		const _Elem& _Ch)
; 438  : 		{	// look for _Ch in [_First, _First + _Count)
; 439  : 		return (_Count == 0 ? (const _Elem *)0
; 440  : 			: (const _Elem *)_CSTD wmemchr((const wchar_t *)_First,
; 441  : 				_Ch, _Count));
; 442  : 		}
; 443  : 
; 444  : 	static _Elem *__CLRCALL_OR_CDECL move(_Elem *_First1, const _Elem *_First2,
; 445  : 		size_t _Count)
; 446  : 		{	// copy [_First2, _First2 + _Count) to [_First1, ...)
; 447  : 		return (_Count == 0 ? _First1
; 448  : 			: (_Elem *)_CSTD wmemmove((wchar_t *)_First1,
; 449  : 				(const wchar_t *)_First2, _Count));
; 450  : 		}
; 451  : 
; 452  : 	static _Elem *__CLRCALL_OR_CDECL assign(_Elem *_First, size_t _Count,
; 453  : 		_Elem _Ch)
; 454  : 		{	// assign _Count * _Ch to [_First, ...)
; 455  : 		return ((_Elem *)_CSTD wmemset((wchar_t *)_First, _Ch, _Count));
; 456  : 		}
; 457  : 
; 458  : 	static void __CLRCALL_OR_CDECL assign(_Elem& _Left, const _Elem& _Right) _NOEXCEPT
; 459  : 		{	// assign an element
; 460  : 		_Left = _Right;
; 461  : 		}
; 462  : 
; 463  : 	static bool __CLRCALL_OR_CDECL eq(const _Elem& _Left,
; 464  : 		const _Elem& _Right) _NOEXCEPT
; 465  : 		{	// test for element equality
; 466  : 		return (_Left == _Right);
; 467  : 		}
; 468  : 
; 469  : 	static bool __CLRCALL_OR_CDECL lt(const _Elem& _Left,
; 470  : 		const _Elem& _Right) _NOEXCEPT
; 471  : 		{	// test if _Left precedes _Right
; 472  : 		return (_Left < _Right);
; 473  : 		}
; 474  : 
; 475  : 	static _Elem __CLRCALL_OR_CDECL to_char_type(const int_type& _Meta) _NOEXCEPT
; 476  : 		{	// convert metacharacter to character
; 477  : 		return (_Meta);
; 478  : 		}
; 479  : 
; 480  : 	static int_type __CLRCALL_OR_CDECL to_int_type(const _Elem& _Ch) _NOEXCEPT
; 481  : 		{	// convert character to metacharacter
; 482  : 		return (_Ch);
; 483  : 		}
; 484  : 
; 485  : 	static bool __CLRCALL_OR_CDECL eq_int_type(const int_type& _Left,
; 486  : 		const int_type& _Right) _NOEXCEPT
; 487  : 		{	// test for metacharacter equality
; 488  : 		return (_Left == _Right);
; 489  : 		}
; 490  : 
; 491  : 	static int_type __CLRCALL_OR_CDECL not_eof(const int_type& _Meta) _NOEXCEPT
; 492  : 		{	// return anything but EOF
; 493  : 		return (_Meta != eof() ? _Meta : !eof());
; 494  : 		}
; 495  : 
; 496  : 	static int_type __CLRCALL_OR_CDECL eof() _NOEXCEPT
; 497  : 		{	// return end-of-file metacharacter
; 498  : 		return (WEOF);
; 499  : 		}
; 500  : 	};
; 501  :  #endif /* _NATIVE_WCHAR_T_DEFINED */
; 502  : 
; 503  : 		// STRUCT char_traits<char> (FROM <string>)
; 504  : template<> struct char_traits<char>
; 505  : 	{	// properties of a string or stream char element
; 506  : 	typedef char _Elem;
; 507  : 	typedef _Elem char_type;
; 508  : 	typedef int int_type;
; 509  : 	typedef streampos pos_type;
; 510  : 	typedef streamoff off_type;
; 511  : 	typedef _Mbstatet state_type;
; 512  : 
; 513  : 	static int __CLRCALL_OR_CDECL compare(const _Elem *_First1, const _Elem *_First2,
; 514  : 		size_t _Count)
; 515  : 		{	// compare [_First1, _First1 + _Count) with [_First2, ...)
; 516  : 		return (_Count == 0 ? 0
; 517  : 			: _CSTD memcmp(_First1, _First2, _Count));
; 518  : 		}
; 519  : 
; 520  : 	static size_t __CLRCALL_OR_CDECL length(const _Elem *_First)
; 521  : 		{	// find length of null-terminated string
; 522  : 		return (*_First == 0 ? 0
; 523  : 			: _CSTD strlen(_First));

  00096	44 38 27	 cmp	 BYTE PTR [rdi], r12b
  00099	75 05		 jne	 SHORT $LN72@readPNG
  0009b	45 8b c4	 mov	 r8d, r12d
  0009e	eb 0e		 jmp	 SHORT $LN73@readPNG
$LN72@readPNG:
  000a0	49 83 c8 ff	 or	 r8, -1
$LL239@readPNG:
  000a4	49 ff c0	 inc	 r8
  000a7	42 80 3c 07 00	 cmp	 BYTE PTR [rdi+r8], 0
  000ac	75 f6		 jne	 SHORT $LL239@readPNG
$LN73@readPNG:
; File c:\program files (x86)\microsoft visual studio 11.0\vc\include\xstring

; 1144 : 		return (assign(_Ptr, _Traits::length(_Ptr)));

  000ae	48 8b d7	 mov	 rdx, rdi
  000b1	48 8d 8c 24 80
	00 00 00	 lea	 rcx, QWORD PTR $T3[rsp]
  000b9	e8 00 00 00 00	 call	 ?assign@?$basic_string@DU?$char_traits@D@std@@V?$allocator@D@2@@std@@QEAAAEAV12@PEBD_K@Z ; std::basic_string<char,std::char_traits<char>,std::allocator<char> >::assign
  000be	90		 npad	 1
; File c:\program files (x86)\microsoft visual studio 11.0\vc\include\vector

; 486  : 		_Myfirst = pointer();

  000bf	4c 89 64 24 40	 mov	 QWORD PTR buffer$1[rsp], r12

; 487  : 		_Mylast = pointer();

  000c4	4c 89 64 24 48	 mov	 QWORD PTR buffer$1[rsp+8], r12

; 488  : 		_Myend = pointer();

  000c9	4c 89 64 24 50	 mov	 QWORD PTR buffer$1[rsp+16], r12
; File c:\users\glenn\documents\github\wind\project\wind\wind\lodepng.cpp

; 6194 :   load_file(buffer, filename);

  000ce	48 8d 94 24 80
	00 00 00	 lea	 rdx, QWORD PTR $T3[rsp]
  000d6	48 8d 4c 24 40	 lea	 rcx, QWORD PTR buffer$1[rsp]
  000db	e8 00 00 00 00	 call	 ?load_file@lodepng@@YAXAEAV?$vector@EV?$allocator@E@std@@@std@@AEBV?$basic_string@DU?$char_traits@D@std@@V?$allocator@D@2@@3@@Z ; lodepng::load_file

; 6164 :   return decode(out, w, h, in.empty() ? 0 : &in[0], (unsigned)in.size(), colortype, bitdepth);

  000e0	48 8b 7c 24 40	 mov	 rdi, QWORD PTR buffer$1[rsp]
  000e5	4c 8b cf	 mov	 r9, rdi
; File c:\program files (x86)\microsoft visual studio 11.0\vc\include\vector

; 1097 : 		return (this->_Myfirst == this->_Mylast);

  000e8	48 8b 44 24 48	 mov	 rax, QWORD PTR buffer$1[rsp+8]
  000ed	48 3b f8	 cmp	 rdi, rax
; File c:\users\glenn\documents\github\wind\project\wind\wind\lodepng.cpp

; 6164 :   return decode(out, w, h, in.empty() ? 0 : &in[0], (unsigned)in.size(), colortype, bitdepth);

  000f0	4d 0f 44 cc	 cmove	 r9, r12
; File c:\program files (x86)\microsoft visual studio 11.0\vc\include\vector

; 1087 : 		return (this->_Mylast - this->_Myfirst);

  000f4	48 2b c7	 sub	 rax, rdi
; File c:\users\glenn\documents\github\wind\project\wind\wind\lodepng.cpp

; 6164 :   return decode(out, w, h, in.empty() ? 0 : &in[0], (unsigned)in.size(), colortype, bitdepth);

  000f7	8b c0		 mov	 eax, eax
  000f9	48 89 44 24 20	 mov	 QWORD PTR [rsp+32], rax
  000fe	4d 8b c6	 mov	 r8, r14
  00101	49 8b d7	 mov	 rdx, r15
  00104	48 8d 4c 24 58	 lea	 rcx, QWORD PTR image$[rsp]
  00109	e8 00 00 00 00	 call	 ?decode@lodepng@@YAIAEAV?$vector@EV?$allocator@E@std@@@std@@AEAI1PEBE_KW4LodePNGColorType@@I@Z ; lodepng::decode
  0010e	8b f0		 mov	 esi, eax
; File c:\program files (x86)\microsoft visual studio 11.0\vc\include\vector

; 1536 : 		if (this->_Myfirst != pointer())

  00110	48 85 ff	 test	 rdi, rdi
  00113	74 08		 je	 SHORT $LN97@readPNG
; File c:\program files (x86)\microsoft visual studio 11.0\vc\include\xmemory0

; 586  : 		::operator delete(_Ptr);

  00115	48 8b cf	 mov	 rcx, rdi
  00118	e8 00 00 00 00	 call	 ??3@YAXPEAX@Z		; operator delete
$LN97@readPNG:
; File c:\users\glenn\documents\github\wind\project\wind\wind\ioutil.cpp

; 28   : 	if(!lodepng::decode(image, width, height, nFileName))

  0011d	85 f6		 test	 esi, esi
  0011f	40 0f 94 c7	 sete	 dil
; File c:\program files (x86)\microsoft visual studio 11.0\vc\include\xstring

; 2256 : 		else if (this->_BUF_SIZE <= this->_Myres)

  00123	48 83 bc 24 98
	00 00 00 10	 cmp	 QWORD PTR $T3[rsp+24], 16
  0012c	72 0d		 jb	 SHORT $LN128@readPNG
; File c:\program files (x86)\microsoft visual studio 11.0\vc\include\xmemory0

; 586  : 		::operator delete(_Ptr);

  0012e	48 8b 8c 24 80
	00 00 00	 mov	 rcx, QWORD PTR $T3[rsp]
  00136	e8 00 00 00 00	 call	 ??3@YAXPEAX@Z		; operator delete
$LN128@readPNG:
; File c:\program files (x86)\microsoft visual studio 11.0\vc\include\xstring

; 2265 : 		this->_Myres = this->_BUF_SIZE - 1;

  0013b	48 c7 84 24 98
	00 00 00 0f 00
	00 00		 mov	 QWORD PTR $T3[rsp+24], 15

; 1729 : 		}
; 1730 : 
; 1731 : 	size_type size() const _NOEXCEPT
; 1732 : 		{	// return length of sequence
; 1733 : 		return (this->_Mysize);
; 1734 : 		}
; 1735 : 
; 1736 : 	size_type max_size() const _NOEXCEPT
; 1737 : 		{	// return maximum possible length of sequence
; 1738 : 		size_type _Num = this->_Getal().max_size();
; 1739 : 		return (_Num <= 1 ? 1 : _Num - 1);
; 1740 : 		}
; 1741 : 
; 1742 : 	void resize(size_type _Newsize)
; 1743 : 		{	// determine new length, padding with null elements as needed
; 1744 : 		resize(_Newsize, _Elem());
; 1745 : 		}
; 1746 : 
; 1747 : 	void resize(size_type _Newsize, _Elem _Ch)
; 1748 : 		{	// determine new length, padding with _Ch elements as needed
; 1749 : 		if (_Newsize <= this->_Mysize)
; 1750 : 			_Eos(_Newsize);
; 1751 : 		else
; 1752 : 			append(_Newsize - this->_Mysize, _Ch);
; 1753 : 		}
; 1754 : 
; 1755 : 	size_type capacity() const _NOEXCEPT
; 1756 : 		{	// return current length of allocated storage
; 1757 : 		return (this->_Myres);
; 1758 : 		}
; 1759 : 
; 1760 : 	void reserve(size_type _Newcap = 0)
; 1761 : 		{	// determine new minimum length of allocated storage
; 1762 : 		if (this->_Mysize <= _Newcap && this->_Myres != _Newcap)
; 1763 : 			{	// change reservation
; 1764 : 			size_type _Size = this->_Mysize;
; 1765 : 			if (_Grow(_Newcap, true))
; 1766 : 				_Eos(_Size);
; 1767 : 			}
; 1768 : 		}
; 1769 : 
; 1770 : 	bool empty() const _NOEXCEPT
; 1771 : 		{	// test if sequence is empty
; 1772 : 		return (this->_Mysize == 0);
; 1773 : 		}
; 1774 : 
; 1775 : 	_SCL_INSECURE_DEPRECATE
; 1776 : 
; 1777 : 	size_type copy(_Elem *_Ptr,
; 1778 : 		size_type _Count, size_type _Off = 0) const
; 1779 : 		{	// copy [_Off, _Off + _Count) to [_Ptr, _Ptr + _Count)
; 1780 :  #if _ITERATOR_DEBUG_LEVEL == 2
; 1781 : 		if (_Count != 0)
; 1782 : 			_DEBUG_POINTER(_Ptr);
; 1783 :  #endif /* _ITERATOR_DEBUG_LEVEL == 2 */
; 1784 : 
; 1785 : 		if (this->_Mysize < _Off)
; 1786 : 			_Xran();	// _Off off end
; 1787 : 		if (this->_Mysize - _Off < _Count)
; 1788 : 			_Count = this->_Mysize - _Off;
; 1789 : 		_Traits::copy(_Ptr, this->_Myptr() + _Off, _Count);
; 1790 : 		return (_Count);
; 1791 : 		}
; 1792 : 
; 1793 : 	size_type _Copy_s(_Elem *_Dest, size_type _Dest_size,
; 1794 : 		size_type _Count, size_type _Off = 0) const
; 1795 : 		{	// copy [_Off, _Off + _Count) to [_Dest, _Dest + _Count)
; 1796 :  #if _ITERATOR_DEBUG_LEVEL == 2
; 1797 : 		if (_Count != 0)
; 1798 : 			_DEBUG_POINTER(_Dest);
; 1799 :  #endif /* _ITERATOR_DEBUG_LEVEL == 2 */
; 1800 : 
; 1801 : 		if (this->_Mysize < _Off)
; 1802 : 			_Xran();	// _Off off end
; 1803 : 		if (this->_Mysize - _Off < _Count)
; 1804 : 			_Count = this->_Mysize - _Off;
; 1805 : 		_Traits::_Copy_s(_Dest, _Dest_size, this->_Myptr() + _Off, _Count);
; 1806 : 		return (_Count);
; 1807 : 		}
; 1808 : 
; 1809 : 	void _Swap_bx(_Myt& _Right)
; 1810 : 		{	// exchange _Bx with _Right._Bx
; 1811 : 		if (this->_BUF_SIZE <= this->_Myres)
; 1812 : 			if (this->_BUF_SIZE <= _Right._Myres)
; 1813 : 				_Swap_adl(this->_Bx._Ptr, _Right._Bx._Ptr);
; 1814 : 			else
; 1815 : 				{	// swap large with small
; 1816 : 				pointer _Ptr = this->_Bx._Ptr;
; 1817 : 				this->_Getal().destroy(&this->_Bx._Ptr);
; 1818 : 				_Traits::copy(this->_Bx._Buf,
; 1819 : 					_Right._Bx._Buf, _Right._Mysize + 1);
; 1820 : 				this->_Getal().construct(&_Right._Bx._Ptr, _Ptr);
; 1821 : 				}
; 1822 : 		else
; 1823 : 			if (_Right._Myres < this->_BUF_SIZE)
; 1824 : 				_STD swap(this->_Bx._Buf, _Right._Bx._Buf);
; 1825 : 			else
; 1826 : 				{	// swap small with large
; 1827 : 				pointer _Ptr = _Right._Bx._Ptr;
; 1828 : 				this->_Getal().destroy(&_Right._Bx._Ptr);
; 1829 : 				_Traits::copy(_Right._Bx._Buf,
; 1830 : 					this->_Bx._Buf, this->_Mysize + 1);
; 1831 : 				this->_Getal().construct(&this->_Bx._Ptr, _Ptr);
; 1832 : 				}
; 1833 : 		}
; 1834 : 
; 1835 : 	void swap(_Myt& _Right)
; 1836 : 		{	// exchange contents with _Right
; 1837 : 		if (this == &_Right)
; 1838 : 			;	// same object, do nothing
; 1839 : 		else if (this->_Getal() == _Right._Getal())
; 1840 : 			{	// same allocator, swap control information
; 1841 : 			this->_Swap_all(_Right);
; 1842 : 			_Swap_bx(_Right);
; 1843 : 			_STD swap(this->_Mysize, _Right._Mysize);
; 1844 : 			_STD swap(this->_Myres, _Right._Myres);
; 1845 : 			}
; 1846 : 
; 1847 :  #if _HAS_CPP0X
; 1848 : 		else if (_Alty::propagate_on_container_swap::value)
; 1849 : 			{	// swap allocators and control information
; 1850 : 			this->_Swap_alloc(_Right);
; 1851 : 			_Swap_bx(_Right);
; 1852 : 			_STD swap(this->_Bx, _Right._Bx);	// pointer bitwise copyable?
; 1853 : 			_STD swap(this->_Mysize, _Right._Mysize);
; 1854 : 			_STD swap(this->_Myres, _Right._Myres);
; 1855 : 			}
; 1856 :  #endif /* _HAS_CPP0X */
; 1857 : 
; 1858 : 		else
; 1859 : 			{	// different allocator, do multiple assigns
; 1860 : 			_Myt _Tmp = *this;
; 1861 : 
; 1862 : 			*this = _Right;
; 1863 : 			_Right = _Tmp;
; 1864 : 			}
; 1865 : 		}
; 1866 : 
; 1867 : 	size_type find(const _Myt& _Right, size_type _Off = 0) const _NOEXCEPT
; 1868 : 		{	// look for _Right beginning at or after _Off
; 1869 : 		return (find(_Right._Myptr(), _Off, _Right.size()));
; 1870 : 		}
; 1871 : 
; 1872 : 	size_type find(const _Elem *_Ptr,
; 1873 : 		size_type _Off, size_type _Count) const
; 1874 : 		{	// look for [_Ptr, _Ptr + _Count) beginning at or after _Off
; 1875 :  #if _ITERATOR_DEBUG_LEVEL == 2
; 1876 : 		if (_Count != 0)
; 1877 : 			_DEBUG_POINTER(_Ptr);
; 1878 :  #endif /* _ITERATOR_DEBUG_LEVEL == 2 */
; 1879 : 
; 1880 : 		if (_Count == 0 && _Off <= this->_Mysize)
; 1881 : 			return (_Off);	// null string always matches (if inside string)
; 1882 : 
; 1883 : 		size_type _Nm;
; 1884 : 		if (_Off < this->_Mysize && _Count <= (_Nm = this->_Mysize - _Off))
; 1885 : 			{	// room for match, look for it
; 1886 : 			const _Elem *_Uptr, *_Vptr;
; 1887 : 			for (_Nm -= _Count - 1, _Vptr = this->_Myptr() + _Off;
; 1888 : 				(_Uptr = _Traits::find(_Vptr, _Nm, *_Ptr)) != 0;
; 1889 : 				_Nm -= _Uptr - _Vptr + 1, _Vptr = _Uptr + 1)
; 1890 : 				if (_Traits::compare(_Uptr, _Ptr, _Count) == 0)
; 1891 : 					return (_Uptr - this->_Myptr());	// found a match
; 1892 : 			}
; 1893 : 
; 1894 : 		return (npos);	// no match
; 1895 : 		}
; 1896 : 
; 1897 : 	size_type find(const _Elem *_Ptr, size_type _Off = 0) const
; 1898 : 		{	// look for [_Ptr, <null>) beginning at or after _Off
; 1899 : 		_DEBUG_POINTER(_Ptr);
; 1900 : 		return (find(_Ptr, _Off, _Traits::length(_Ptr)));
; 1901 : 		}
; 1902 : 
; 1903 : 	size_type find(_Elem _Ch, size_type _Off = 0) const
; 1904 : 		{	// look for _Ch at or after _Off
; 1905 : 		return (find((const _Elem *)&_Ch, _Off, 1));
; 1906 : 		}
; 1907 : 
; 1908 : 	size_type rfind(const _Myt& _Right, size_type _Off = npos) const _NOEXCEPT
; 1909 : 		{	// look for _Right beginning before _Off
; 1910 : 		return (rfind(_Right._Myptr(), _Off, _Right.size()));
; 1911 : 		}
; 1912 : 
; 1913 : 	size_type rfind(const _Elem *_Ptr,
; 1914 : 		size_type _Off, size_type _Count) const
; 1915 : 		{	// look for [_Ptr, _Ptr + _Count) beginning before _Off
; 1916 :  #if _ITERATOR_DEBUG_LEVEL == 2
; 1917 : 		if (_Count != 0)
; 1918 : 			_DEBUG_POINTER(_Ptr);
; 1919 :  #endif /* _ITERATOR_DEBUG_LEVEL == 2 */
; 1920 : 
; 1921 : 		if (_Count == 0)
; 1922 : 			return (_Off < this->_Mysize ? _Off
; 1923 : 				: this->_Mysize);	// null always matches
; 1924 : 		if (_Count <= this->_Mysize)
; 1925 : 			{	// room for match, look for it
; 1926 : 			const _Elem *_Uptr = this->_Myptr() +
; 1927 : 				(_Off < this->_Mysize - _Count ? _Off
; 1928 : 					: this->_Mysize - _Count);
; 1929 : 			for (; ; --_Uptr)
; 1930 : 				if (_Traits::eq(*_Uptr, *_Ptr)
; 1931 : 					&& _Traits::compare(_Uptr, _Ptr, _Count) == 0)
; 1932 : 					return (_Uptr - this->_Myptr());	// found a match
; 1933 : 				else if (_Uptr == this->_Myptr())
; 1934 : 					break;	// at beginning, no more chance for match
; 1935 : 			}
; 1936 : 
; 1937 : 		return (npos);	// no match
; 1938 : 		}
; 1939 : 
; 1940 : 	size_type rfind(const _Elem *_Ptr, size_type _Off = npos) const
; 1941 : 		{	// look for [_Ptr, <null>) beginning before _Off
; 1942 : 		_DEBUG_POINTER(_Ptr);
; 1943 : 		return (rfind(_Ptr, _Off, _Traits::length(_Ptr)));
; 1944 : 		}
; 1945 : 
; 1946 : 	size_type rfind(_Elem _Ch, size_type _Off = npos) const
; 1947 : 		{	// look for _Ch before _Off
; 1948 : 		return (rfind((const _Elem *)&_Ch, _Off, 1));
; 1949 : 		}
; 1950 : 
; 1951 : 	size_type find_first_of(const _Myt& _Right,
; 1952 : 		size_type _Off = 0) const _NOEXCEPT
; 1953 : 		{	// look for one of _Right at or after _Off
; 1954 : 		return (find_first_of(_Right._Myptr(), _Off, _Right.size()));
; 1955 : 		}
; 1956 : 
; 1957 : 	size_type find_first_of(const _Elem *_Ptr,
; 1958 : 		size_type _Off, size_type _Count) const
; 1959 : 		{	// look for one of [_Ptr, _Ptr + _Count) at or after _Off
; 1960 :  #if _ITERATOR_DEBUG_LEVEL == 2
; 1961 : 		if (_Count != 0)
; 1962 : 			_DEBUG_POINTER(_Ptr);
; 1963 :  #endif /* _ITERATOR_DEBUG_LEVEL == 2 */
; 1964 : 
; 1965 : 		if (0 < _Count && _Off < this->_Mysize)
; 1966 : 			{	// room for match, look for it
; 1967 : 			const _Elem *const _Vptr = this->_Myptr() + this->_Mysize;
; 1968 : 			for (const _Elem *_Uptr = this->_Myptr() + _Off;
; 1969 : 				_Uptr < _Vptr; ++_Uptr)
; 1970 : 				if (_Traits::find(_Ptr, _Count, *_Uptr) != 0)
; 1971 : 					return (_Uptr - this->_Myptr());	// found a match
; 1972 : 			}
; 1973 : 
; 1974 : 		return (npos);	// no match
; 1975 : 		}
; 1976 : 
; 1977 : 	size_type find_first_of(const _Elem *_Ptr,
; 1978 : 		size_type _Off = 0) const
; 1979 : 		{	// look for one of [_Ptr, <null>) at or after _Off
; 1980 : 		_DEBUG_POINTER(_Ptr);
; 1981 : 		return (find_first_of(_Ptr, _Off, _Traits::length(_Ptr)));
; 1982 : 		}
; 1983 : 
; 1984 : 	size_type find_first_of(_Elem _Ch,
; 1985 : 		size_type _Off = 0) const
; 1986 : 		{	// look for _Ch at or after _Off
; 1987 : 		return (find((const _Elem *)&_Ch, _Off, 1));
; 1988 : 		}
; 1989 : 
; 1990 : 	size_type find_last_of(const _Myt& _Right,
; 1991 : 		size_type _Off = npos) const _NOEXCEPT
; 1992 : 		{	// look for one of _Right before _Off
; 1993 : 		return (find_last_of(_Right._Myptr(), _Off, _Right.size()));
; 1994 : 		}
; 1995 : 
; 1996 : 	size_type find_last_of(const _Elem *_Ptr,
; 1997 : 		size_type _Off, size_type _Count) const
; 1998 : 		{	// look for one of [_Ptr, _Ptr + _Count) before _Off
; 1999 :  #if _ITERATOR_DEBUG_LEVEL == 2
; 2000 : 		if (_Count != 0)
; 2001 : 			_DEBUG_POINTER(_Ptr);
; 2002 :  #endif /* _ITERATOR_DEBUG_LEVEL == 2 */
; 2003 : 
; 2004 : 		if (0 < _Count && 0 < this->_Mysize)
; 2005 : 			{	// worth searching, do it
; 2006 : 			const _Elem *_Uptr = this->_Myptr()
; 2007 : 				+ (_Off < this->_Mysize ? _Off : this->_Mysize - 1);
; 2008 : 			for (; ; --_Uptr)
; 2009 : 				if (_Traits::find(_Ptr, _Count, *_Uptr) != 0)
; 2010 : 					return (_Uptr - this->_Myptr());	// found a match
; 2011 : 				else if (_Uptr == this->_Myptr())
; 2012 : 					break;	// at beginning, no more chance for match
; 2013 : 			}
; 2014 : 
; 2015 : 		return (npos);	// no match
; 2016 : 		}
; 2017 : 
; 2018 : 	size_type find_last_of(const _Elem *_Ptr,
; 2019 : 		size_type _Off = npos) const
; 2020 : 		{	// look for one of [_Ptr, <null>) before _Off
; 2021 : 		_DEBUG_POINTER(_Ptr);
; 2022 : 		return (find_last_of(_Ptr, _Off, _Traits::length(_Ptr)));
; 2023 : 		}
; 2024 : 
; 2025 : 	size_type find_last_of(_Elem _Ch,
; 2026 : 		size_type _Off = npos) const
; 2027 : 		{	// look for _Ch before _Off
; 2028 : 		return (rfind((const _Elem *)&_Ch, _Off, 1));
; 2029 : 		}
; 2030 : 
; 2031 : 	size_type find_first_not_of(const _Myt& _Right,
; 2032 : 		size_type _Off = 0) const _NOEXCEPT
; 2033 : 		{	// look for none of _Right at or after _Off
; 2034 : 		return (find_first_not_of(_Right._Myptr(), _Off,
; 2035 : 			_Right.size()));
; 2036 : 		}
; 2037 : 
; 2038 : 	size_type find_first_not_of(const _Elem *_Ptr,
; 2039 : 		size_type _Off, size_type _Count) const
; 2040 : 		{	// look for none of [_Ptr, _Ptr + _Count) at or after _Off
; 2041 :  #if _ITERATOR_DEBUG_LEVEL == 2
; 2042 : 		if (_Count != 0)
; 2043 : 			_DEBUG_POINTER(_Ptr);
; 2044 :  #endif /* _ITERATOR_DEBUG_LEVEL == 2 */
; 2045 : 
; 2046 : 		if (_Off < this->_Mysize)
; 2047 : 			{	// room for match, look for it
; 2048 : 			const _Elem *const _Vptr = this->_Myptr() + this->_Mysize;
; 2049 : 			for (const _Elem *_Uptr = this->_Myptr() + _Off;
; 2050 : 				_Uptr < _Vptr; ++_Uptr)
; 2051 : 				if (_Traits::find(_Ptr, _Count, *_Uptr) == 0)
; 2052 : 					return (_Uptr - this->_Myptr());
; 2053 : 			}
; 2054 : 		return (npos);
; 2055 : 		}
; 2056 : 
; 2057 : 	size_type find_first_not_of(const _Elem *_Ptr,
; 2058 : 		size_type _Off = 0) const
; 2059 : 		{	// look for one of [_Ptr, <null>) at or after _Off
; 2060 : 		_DEBUG_POINTER(_Ptr);
; 2061 : 		return (find_first_not_of(_Ptr, _Off, _Traits::length(_Ptr)));
; 2062 : 		}
; 2063 : 
; 2064 : 	size_type find_first_not_of(_Elem _Ch,
; 2065 : 		size_type _Off = 0) const
; 2066 : 		{	// look for non _Ch at or after _Off
; 2067 : 		return (find_first_not_of((const _Elem *)&_Ch, _Off, 1));
; 2068 : 		}
; 2069 : 
; 2070 : 	size_type find_last_not_of(const _Myt& _Right,
; 2071 : 		size_type _Off = npos) const _NOEXCEPT
; 2072 : 		{	// look for none of _Right before _Off
; 2073 : 		return (find_last_not_of(_Right._Myptr(), _Off, _Right.size()));
; 2074 : 		}
; 2075 : 
; 2076 : 	size_type find_last_not_of(const _Elem *_Ptr,
; 2077 : 		size_type _Off, size_type _Count) const
; 2078 : 		{	// look for none of [_Ptr, _Ptr + _Count) before _Off
; 2079 :  #if _ITERATOR_DEBUG_LEVEL == 2
; 2080 : 		if (_Count != 0)
; 2081 : 			_DEBUG_POINTER(_Ptr);
; 2082 :  #endif /* _ITERATOR_DEBUG_LEVEL == 2 */
; 2083 : 
; 2084 : 		if (0 < this->_Mysize)
; 2085 : 			{	// worth searching, do it
; 2086 : 			const _Elem *_Uptr = this->_Myptr()
; 2087 : 				+ (_Off < this->_Mysize ? _Off : this->_Mysize - 1);
; 2088 : 			for (; ; --_Uptr)
; 2089 : 				if (_Traits::find(_Ptr, _Count, *_Uptr) == 0)
; 2090 : 					return (_Uptr - this->_Myptr());
; 2091 : 				else if (_Uptr == this->_Myptr())
; 2092 : 					break;
; 2093 : 			}
; 2094 : 		return (npos);
; 2095 : 		}
; 2096 : 
; 2097 : 	size_type find_last_not_of(const _Elem *_Ptr,
; 2098 : 		size_type _Off = npos) const
; 2099 : 		{	// look for none of [_Ptr, <null>) before _Off
; 2100 : 		_DEBUG_POINTER(_Ptr);
; 2101 : 		return (find_last_not_of(_Ptr, _Off, _Traits::length(_Ptr)));
; 2102 : 		}
; 2103 : 
; 2104 : 	size_type find_last_not_of(_Elem _Ch,
; 2105 : 		size_type _Off = npos) const
; 2106 : 		{	// look for non _Ch before _Off
; 2107 : 		return (find_last_not_of((const _Elem *)&_Ch, _Off, 1));
; 2108 : 		}
; 2109 : 
; 2110 : 	_Myt substr(size_type _Off = 0, size_type _Count = npos) const
; 2111 : 		{	// return [_Off, _Off + _Count) as new string
; 2112 : 		return (_Myt(*this, _Off, _Count, get_allocator()));
; 2113 : 		}
; 2114 : 
; 2115 : 	int compare(const _Myt& _Right) const _NOEXCEPT
; 2116 : 		{	// compare [0, _Mysize) with _Right
; 2117 : 		return (compare(0, this->_Mysize, _Right._Myptr(), _Right.size()));
; 2118 : 		}
; 2119 : 
; 2120 : 	int compare(size_type _Off, size_type _N0,
; 2121 : 		const _Myt& _Right) const
; 2122 : 		{	// compare [_Off, _Off + _N0) with _Right
; 2123 : 		return (compare(_Off, _N0, _Right, 0, npos));
; 2124 : 		}
; 2125 : 
; 2126 : 	int compare(size_type _Off,
; 2127 : 		size_type _N0, const _Myt& _Right,
; 2128 : 		size_type _Roff, size_type _Count) const
; 2129 : 		{	// compare [_Off, _Off + _N0) with _Right [_Roff, _Roff + _Count)
; 2130 : 		if (_Right.size() < _Roff)
; 2131 : 			_Xran();	// _Off off end
; 2132 : 		if (_Right._Mysize - _Roff < _Count)
; 2133 : 			_Count = _Right._Mysize - _Roff;	// trim _Count to size
; 2134 : 		return (compare(_Off, _N0, _Right._Myptr() + _Roff, _Count));
; 2135 : 		}
; 2136 : 
; 2137 : 	int compare(const _Elem *_Ptr) const
; 2138 : 		{	// compare [0, _Mysize) with [_Ptr, <null>)
; 2139 : 		_DEBUG_POINTER(_Ptr);
; 2140 : 		return (compare(0, this->_Mysize, _Ptr, _Traits::length(_Ptr)));
; 2141 : 		}
; 2142 : 
; 2143 : 	int compare(size_type _Off, size_type _N0, const _Elem *_Ptr) const
; 2144 : 		{	// compare [_Off, _Off + _N0) with [_Ptr, <null>)
; 2145 : 		_DEBUG_POINTER(_Ptr);
; 2146 : 		return (compare(_Off, _N0, _Ptr, _Traits::length(_Ptr)));
; 2147 : 		}
; 2148 : 
; 2149 : 	int compare(size_type _Off,
; 2150 : 		size_type _N0, const _Elem *_Ptr, size_type _Count) const
; 2151 : 		{	// compare [_Off, _Off + _N0) with [_Ptr, _Ptr + _Count)
; 2152 :  #if _ITERATOR_DEBUG_LEVEL == 2
; 2153 : 		if (_Count != 0)
; 2154 : 			_DEBUG_POINTER(_Ptr);
; 2155 :  #endif /* _ITERATOR_DEBUG_LEVEL == 2 */
; 2156 : 
; 2157 : 		if (this->_Mysize < _Off)
; 2158 : 			_Xran();	// _Off off end
; 2159 : 		if (this->_Mysize - _Off < _N0)
; 2160 : 			_N0 = this->_Mysize - _Off;	// trim _N0 to size
; 2161 : 
; 2162 : 		size_type _Ans = _Traits::compare(this->_Myptr() + _Off, _Ptr,
; 2163 : 			_N0 < _Count ? _N0 : _Count);
; 2164 : 		return (_Ans != 0 ? (int)_Ans : _N0 < _Count ? -1
; 2165 : 			: _N0 == _Count ? 0 : +1);
; 2166 : 		}
; 2167 : 
; 2168 : 	allocator_type get_allocator() const _NOEXCEPT
; 2169 : 		{	// return allocator object for values
; 2170 : 		return (this->_Getal());
; 2171 : 		}
; 2172 : 
; 2173 : 	void _Chassign(size_type _Off, size_type _Count, _Elem _Ch)
; 2174 : 		{	// assign _Count copies of _Ch beginning at _Off
; 2175 : 		if (_Count == 1)
; 2176 : 			_Traits::assign(*(this->_Myptr() + _Off), _Ch);
; 2177 : 		else
; 2178 : 			_Traits::assign(this->_Myptr() + _Off, _Count, _Ch);
; 2179 : 		}
; 2180 : 
; 2181 : 	void _Copy(size_type _Newsize, size_type _Oldlen)
; 2182 : 		{	// copy _Oldlen elements to newly allocated buffer
; 2183 : 		size_type _Newres = _Newsize | this->_ALLOC_MASK;
; 2184 : 		if (max_size() < _Newres)
; 2185 : 			_Newres = _Newsize;	// undo roundup if too big
; 2186 : 		else if (this->_Myres / 2 <= _Newres / 3)
; 2187 : 			;
; 2188 : 		else if (this->_Myres <= max_size() - this->_Myres / 2)
; 2189 : 			_Newres = this->_Myres
; 2190 : 				+ this->_Myres / 2;	// grow exponentially if possible
; 2191 : 		else
; 2192 : 			_Newres = max_size();	// settle for max_size()
; 2193 : 
; 2194 : 		_Elem *_Ptr;
; 2195 : 		_TRY_BEGIN
; 2196 : 			_Ptr = this->_Getal().allocate(_Newres + 1);
; 2197 : 		_CATCH_ALL
; 2198 : 			_Newres = _Newsize;	// allocation failed, undo roundup and retry
; 2199 : 			_TRY_BEGIN
; 2200 : 				_Ptr = this->_Getal().allocate(_Newres + 1);
; 2201 : 			_CATCH_ALL
; 2202 : 			_Tidy(true);	// failed again, discard storage and reraise
; 2203 : 			_RERAISE;
; 2204 : 			_CATCH_END
; 2205 : 		_CATCH_END
; 2206 : 
; 2207 : 		if (0 < _Oldlen)
; 2208 : 			_Traits::copy(_Ptr, this->_Myptr(),
; 2209 : 				_Oldlen);	// copy existing elements
; 2210 : 		_Tidy(true);
; 2211 : 		this->_Getal().construct(&this->_Bx._Ptr, _Ptr);
; 2212 : 		this->_Myres = _Newres;
; 2213 : 		_Eos(_Oldlen);
; 2214 : 		}
; 2215 : 
; 2216 : 	void _Eos(size_type _Newsize)
; 2217 : 		{	// set new length and null terminator
; 2218 : 		_Traits::assign(this->_Myptr()[this->_Mysize = _Newsize], _Elem());

  00147	4c 89 a4 24 90
	00 00 00	 mov	 QWORD PTR $T3[rsp+16], r12
; File c:\program files (x86)\microsoft visual studio 11.0\vc\include\iosfwd

; 564  : 		_Left = _Right;

  0014f	c6 84 24 80 00
	00 00 00	 mov	 BYTE PTR $T3[rsp], 0
; File c:\users\glenn\documents\github\wind\project\wind\wind\ioutil.cpp

; 28   : 	if(!lodepng::decode(image, width, height, nFileName))

  00157	40 84 ff	 test	 dil, dil
  0015a	74 74		 je	 SHORT $LN4@readPNG

; 29   : 	{
; 30   : 		unsigned char* data = new unsigned char[width * height * 4];

  0015c	41 8b 0f	 mov	 ecx, DWORD PTR [r15]
  0015f	41 0f af 0e	 imul	 ecx, DWORD PTR [r14]
  00163	c1 e1 02	 shl	 ecx, 2
  00166	e8 00 00 00 00	 call	 ??_U@YAPEAX_K@Z		; operator new[]
  0016b	48 8b e8	 mov	 rbp, rax

; 31   : 
; 32   : 		for(unsigned int i = 0; i < height; i++)

  0016e	41 8b fc	 mov	 edi, r12d
  00171	41 8b 16	 mov	 edx, DWORD PTR [r14]
  00174	48 8b 74 24 58	 mov	 rsi, QWORD PTR image$[rsp]
  00179	85 d2		 test	 edx, edx
  0017b	74 31		 je	 SHORT $LN1@readPNG
  0017d	0f 1f 00	 npad	 3
$LL3@readPNG:

; 34   : 			memcpy(&data[i * width * 4], &image[(height - 1 - i) * width * 4], sizeof(unsigned char) * width * 4);

  00180	41 8b 0f	 mov	 ecx, DWORD PTR [r15]
  00183	44 8b c1	 mov	 r8d, ecx
  00186	49 c1 e0 02	 shl	 r8, 2
  0018a	2b d7		 sub	 edx, edi
  0018c	ff ca		 dec	 edx
  0018e	0f af d1	 imul	 edx, ecx
  00191	c1 e2 02	 shl	 edx, 2
; File c:\program files (x86)\microsoft visual studio 11.0\vc\include\vector

; 1148 : 		return (*(this->_Myfirst + _Pos));

  00194	48 03 d6	 add	 rdx, rsi
; File c:\users\glenn\documents\github\wind\project\wind\wind\ioutil.cpp

; 34   : 			memcpy(&data[i * width * 4], &image[(height - 1 - i) * width * 4], sizeof(unsigned char) * width * 4);

  00197	0f af cf	 imul	 ecx, edi
  0019a	c1 e1 02	 shl	 ecx, 2
  0019d	48 03 cd	 add	 rcx, rbp
  001a0	e8 00 00 00 00	 call	 memcpy

; 31   : 
; 32   : 		for(unsigned int i = 0; i < height; i++)

  001a5	ff c7		 inc	 edi
  001a7	41 8b 16	 mov	 edx, DWORD PTR [r14]
  001aa	3b fa		 cmp	 edi, edx
  001ac	72 d2		 jb	 SHORT $LL3@readPNG
$LN1@readPNG:
; File c:\program files (x86)\microsoft visual studio 11.0\vc\include\vector

; 1536 : 		if (this->_Myfirst != pointer())

  001ae	48 85 f6	 test	 rsi, rsi
  001b1	74 09		 je	 SHORT $LN144@readPNG
; File c:\program files (x86)\microsoft visual studio 11.0\vc\include\xmemory0

; 586  : 		::operator delete(_Ptr);

  001b3	48 8b ce	 mov	 rcx, rsi
  001b6	e8 00 00 00 00	 call	 ??3@YAXPEAX@Z		; operator delete
  001bb	90		 npad	 1
$LN144@readPNG:
; File c:\program files (x86)\microsoft visual studio 11.0\vc\include\xstring

; 2256 : 		else if (this->_BUF_SIZE <= this->_Myres)

  001bc	48 83 7b 18 08	 cmp	 QWORD PTR [rbx+24], 8
  001c1	72 08		 jb	 SHORT $LN177@readPNG
; File c:\program files (x86)\microsoft visual studio 11.0\vc\include\xmemory0

; 586  : 		::operator delete(_Ptr);

  001c3	48 8b 0b	 mov	 rcx, QWORD PTR [rbx]
  001c6	e8 00 00 00 00	 call	 ??3@YAXPEAX@Z		; operator delete
$LN177@readPNG:
; File c:\users\glenn\documents\github\wind\project\wind\wind\ioutil.cpp

; 37   : 		return data;

  001cb	48 8b c5	 mov	 rax, rbp
  001ce	eb 35		 jmp	 SHORT $LN240@readPNG
$LN4@readPNG:

; 38   : 	}
; 39   : 
; 40   : 	GLWindow::instance->postError("PNG file not found.", "PNG load error");

  001d0	4c 8d 05 00 00
	00 00		 lea	 r8, OFFSET FLAT:$SG4294922313
  001d7	48 8d 15 00 00
	00 00		 lea	 rdx, OFFSET FLAT:$SG4294922312
  001de	e8 00 00 00 00	 call	 ?postError@GLWindow@@QEAAXPEBD0@Z ; GLWindow::postError
  001e3	90		 npad	 1
; File c:\program files (x86)\microsoft visual studio 11.0\vc\include\vector

; 1536 : 		if (this->_Myfirst != pointer())

  001e4	48 8b 4c 24 58	 mov	 rcx, QWORD PTR image$[rsp]
  001e9	48 85 c9	 test	 rcx, rcx
  001ec	74 06		 je	 SHORT $LN191@readPNG
; File c:\program files (x86)\microsoft visual studio 11.0\vc\include\xmemory0

; 586  : 		::operator delete(_Ptr);

  001ee	e8 00 00 00 00	 call	 ??3@YAXPEAX@Z		; operator delete
  001f3	90		 npad	 1
$LN191@readPNG:
; File c:\program files (x86)\microsoft visual studio 11.0\vc\include\xstring

; 2256 : 		else if (this->_BUF_SIZE <= this->_Myres)

  001f4	48 83 7b 18 08	 cmp	 QWORD PTR [rbx+24], 8
  001f9	72 08		 jb	 SHORT $LN224@readPNG
; File c:\program files (x86)\microsoft visual studio 11.0\vc\include\xmemory0

; 586  : 		::operator delete(_Ptr);

  001fb	48 8b 0b	 mov	 rcx, QWORD PTR [rbx]
  001fe	e8 00 00 00 00	 call	 ??3@YAXPEAX@Z		; operator delete
$LN224@readPNG:
; File c:\users\glenn\documents\github\wind\project\wind\wind\ioutil.cpp

; 42   : 	return nullptr;

  00203	33 c0		 xor	 eax, eax
$LN240@readPNG:
; File c:\program files (x86)\microsoft visual studio 11.0\vc\include\xstring

; 2265 : 		this->_Myres = this->_BUF_SIZE - 1;

  00205	48 c7 43 18 07
	00 00 00	 mov	 QWORD PTR [rbx+24], 7

; 1729 : 		}
; 1730 : 
; 1731 : 	size_type size() const _NOEXCEPT
; 1732 : 		{	// return length of sequence
; 1733 : 		return (this->_Mysize);
; 1734 : 		}
; 1735 : 
; 1736 : 	size_type max_size() const _NOEXCEPT
; 1737 : 		{	// return maximum possible length of sequence
; 1738 : 		size_type _Num = this->_Getal().max_size();
; 1739 : 		return (_Num <= 1 ? 1 : _Num - 1);
; 1740 : 		}
; 1741 : 
; 1742 : 	void resize(size_type _Newsize)
; 1743 : 		{	// determine new length, padding with null elements as needed
; 1744 : 		resize(_Newsize, _Elem());
; 1745 : 		}
; 1746 : 
; 1747 : 	void resize(size_type _Newsize, _Elem _Ch)
; 1748 : 		{	// determine new length, padding with _Ch elements as needed
; 1749 : 		if (_Newsize <= this->_Mysize)
; 1750 : 			_Eos(_Newsize);
; 1751 : 		else
; 1752 : 			append(_Newsize - this->_Mysize, _Ch);
; 1753 : 		}
; 1754 : 
; 1755 : 	size_type capacity() const _NOEXCEPT
; 1756 : 		{	// return current length of allocated storage
; 1757 : 		return (this->_Myres);
; 1758 : 		}
; 1759 : 
; 1760 : 	void reserve(size_type _Newcap = 0)
; 1761 : 		{	// determine new minimum length of allocated storage
; 1762 : 		if (this->_Mysize <= _Newcap && this->_Myres != _Newcap)
; 1763 : 			{	// change reservation
; 1764 : 			size_type _Size = this->_Mysize;
; 1765 : 			if (_Grow(_Newcap, true))
; 1766 : 				_Eos(_Size);
; 1767 : 			}
; 1768 : 		}
; 1769 : 
; 1770 : 	bool empty() const _NOEXCEPT
; 1771 : 		{	// test if sequence is empty
; 1772 : 		return (this->_Mysize == 0);
; 1773 : 		}
; 1774 : 
; 1775 : 	_SCL_INSECURE_DEPRECATE
; 1776 : 
; 1777 : 	size_type copy(_Elem *_Ptr,
; 1778 : 		size_type _Count, size_type _Off = 0) const
; 1779 : 		{	// copy [_Off, _Off + _Count) to [_Ptr, _Ptr + _Count)
; 1780 :  #if _ITERATOR_DEBUG_LEVEL == 2
; 1781 : 		if (_Count != 0)
; 1782 : 			_DEBUG_POINTER(_Ptr);
; 1783 :  #endif /* _ITERATOR_DEBUG_LEVEL == 2 */
; 1784 : 
; 1785 : 		if (this->_Mysize < _Off)
; 1786 : 			_Xran();	// _Off off end
; 1787 : 		if (this->_Mysize - _Off < _Count)
; 1788 : 			_Count = this->_Mysize - _Off;
; 1789 : 		_Traits::copy(_Ptr, this->_Myptr() + _Off, _Count);
; 1790 : 		return (_Count);
; 1791 : 		}
; 1792 : 
; 1793 : 	size_type _Copy_s(_Elem *_Dest, size_type _Dest_size,
; 1794 : 		size_type _Count, size_type _Off = 0) const
; 1795 : 		{	// copy [_Off, _Off + _Count) to [_Dest, _Dest + _Count)
; 1796 :  #if _ITERATOR_DEBUG_LEVEL == 2
; 1797 : 		if (_Count != 0)
; 1798 : 			_DEBUG_POINTER(_Dest);
; 1799 :  #endif /* _ITERATOR_DEBUG_LEVEL == 2 */
; 1800 : 
; 1801 : 		if (this->_Mysize < _Off)
; 1802 : 			_Xran();	// _Off off end
; 1803 : 		if (this->_Mysize - _Off < _Count)
; 1804 : 			_Count = this->_Mysize - _Off;
; 1805 : 		_Traits::_Copy_s(_Dest, _Dest_size, this->_Myptr() + _Off, _Count);
; 1806 : 		return (_Count);
; 1807 : 		}
; 1808 : 
; 1809 : 	void _Swap_bx(_Myt& _Right)
; 1810 : 		{	// exchange _Bx with _Right._Bx
; 1811 : 		if (this->_BUF_SIZE <= this->_Myres)
; 1812 : 			if (this->_BUF_SIZE <= _Right._Myres)
; 1813 : 				_Swap_adl(this->_Bx._Ptr, _Right._Bx._Ptr);
; 1814 : 			else
; 1815 : 				{	// swap large with small
; 1816 : 				pointer _Ptr = this->_Bx._Ptr;
; 1817 : 				this->_Getal().destroy(&this->_Bx._Ptr);
; 1818 : 				_Traits::copy(this->_Bx._Buf,
; 1819 : 					_Right._Bx._Buf, _Right._Mysize + 1);
; 1820 : 				this->_Getal().construct(&_Right._Bx._Ptr, _Ptr);
; 1821 : 				}
; 1822 : 		else
; 1823 : 			if (_Right._Myres < this->_BUF_SIZE)
; 1824 : 				_STD swap(this->_Bx._Buf, _Right._Bx._Buf);
; 1825 : 			else
; 1826 : 				{	// swap small with large
; 1827 : 				pointer _Ptr = _Right._Bx._Ptr;
; 1828 : 				this->_Getal().destroy(&_Right._Bx._Ptr);
; 1829 : 				_Traits::copy(_Right._Bx._Buf,
; 1830 : 					this->_Bx._Buf, this->_Mysize + 1);
; 1831 : 				this->_Getal().construct(&this->_Bx._Ptr, _Ptr);
; 1832 : 				}
; 1833 : 		}
; 1834 : 
; 1835 : 	void swap(_Myt& _Right)
; 1836 : 		{	// exchange contents with _Right
; 1837 : 		if (this == &_Right)
; 1838 : 			;	// same object, do nothing
; 1839 : 		else if (this->_Getal() == _Right._Getal())
; 1840 : 			{	// same allocator, swap control information
; 1841 : 			this->_Swap_all(_Right);
; 1842 : 			_Swap_bx(_Right);
; 1843 : 			_STD swap(this->_Mysize, _Right._Mysize);
; 1844 : 			_STD swap(this->_Myres, _Right._Myres);
; 1845 : 			}
; 1846 : 
; 1847 :  #if _HAS_CPP0X
; 1848 : 		else if (_Alty::propagate_on_container_swap::value)
; 1849 : 			{	// swap allocators and control information
; 1850 : 			this->_Swap_alloc(_Right);
; 1851 : 			_Swap_bx(_Right);
; 1852 : 			_STD swap(this->_Bx, _Right._Bx);	// pointer bitwise copyable?
; 1853 : 			_STD swap(this->_Mysize, _Right._Mysize);
; 1854 : 			_STD swap(this->_Myres, _Right._Myres);
; 1855 : 			}
; 1856 :  #endif /* _HAS_CPP0X */
; 1857 : 
; 1858 : 		else
; 1859 : 			{	// different allocator, do multiple assigns
; 1860 : 			_Myt _Tmp = *this;
; 1861 : 
; 1862 : 			*this = _Right;
; 1863 : 			_Right = _Tmp;
; 1864 : 			}
; 1865 : 		}
; 1866 : 
; 1867 : 	size_type find(const _Myt& _Right, size_type _Off = 0) const _NOEXCEPT
; 1868 : 		{	// look for _Right beginning at or after _Off
; 1869 : 		return (find(_Right._Myptr(), _Off, _Right.size()));
; 1870 : 		}
; 1871 : 
; 1872 : 	size_type find(const _Elem *_Ptr,
; 1873 : 		size_type _Off, size_type _Count) const
; 1874 : 		{	// look for [_Ptr, _Ptr + _Count) beginning at or after _Off
; 1875 :  #if _ITERATOR_DEBUG_LEVEL == 2
; 1876 : 		if (_Count != 0)
; 1877 : 			_DEBUG_POINTER(_Ptr);
; 1878 :  #endif /* _ITERATOR_DEBUG_LEVEL == 2 */
; 1879 : 
; 1880 : 		if (_Count == 0 && _Off <= this->_Mysize)
; 1881 : 			return (_Off);	// null string always matches (if inside string)
; 1882 : 
; 1883 : 		size_type _Nm;
; 1884 : 		if (_Off < this->_Mysize && _Count <= (_Nm = this->_Mysize - _Off))
; 1885 : 			{	// room for match, look for it
; 1886 : 			const _Elem *_Uptr, *_Vptr;
; 1887 : 			for (_Nm -= _Count - 1, _Vptr = this->_Myptr() + _Off;
; 1888 : 				(_Uptr = _Traits::find(_Vptr, _Nm, *_Ptr)) != 0;
; 1889 : 				_Nm -= _Uptr - _Vptr + 1, _Vptr = _Uptr + 1)
; 1890 : 				if (_Traits::compare(_Uptr, _Ptr, _Count) == 0)
; 1891 : 					return (_Uptr - this->_Myptr());	// found a match
; 1892 : 			}
; 1893 : 
; 1894 : 		return (npos);	// no match
; 1895 : 		}
; 1896 : 
; 1897 : 	size_type find(const _Elem *_Ptr, size_type _Off = 0) const
; 1898 : 		{	// look for [_Ptr, <null>) beginning at or after _Off
; 1899 : 		_DEBUG_POINTER(_Ptr);
; 1900 : 		return (find(_Ptr, _Off, _Traits::length(_Ptr)));
; 1901 : 		}
; 1902 : 
; 1903 : 	size_type find(_Elem _Ch, size_type _Off = 0) const
; 1904 : 		{	// look for _Ch at or after _Off
; 1905 : 		return (find((const _Elem *)&_Ch, _Off, 1));
; 1906 : 		}
; 1907 : 
; 1908 : 	size_type rfind(const _Myt& _Right, size_type _Off = npos) const _NOEXCEPT
; 1909 : 		{	// look for _Right beginning before _Off
; 1910 : 		return (rfind(_Right._Myptr(), _Off, _Right.size()));
; 1911 : 		}
; 1912 : 
; 1913 : 	size_type rfind(const _Elem *_Ptr,
; 1914 : 		size_type _Off, size_type _Count) const
; 1915 : 		{	// look for [_Ptr, _Ptr + _Count) beginning before _Off
; 1916 :  #if _ITERATOR_DEBUG_LEVEL == 2
; 1917 : 		if (_Count != 0)
; 1918 : 			_DEBUG_POINTER(_Ptr);
; 1919 :  #endif /* _ITERATOR_DEBUG_LEVEL == 2 */
; 1920 : 
; 1921 : 		if (_Count == 0)
; 1922 : 			return (_Off < this->_Mysize ? _Off
; 1923 : 				: this->_Mysize);	// null always matches
; 1924 : 		if (_Count <= this->_Mysize)
; 1925 : 			{	// room for match, look for it
; 1926 : 			const _Elem *_Uptr = this->_Myptr() +
; 1927 : 				(_Off < this->_Mysize - _Count ? _Off
; 1928 : 					: this->_Mysize - _Count);
; 1929 : 			for (; ; --_Uptr)
; 1930 : 				if (_Traits::eq(*_Uptr, *_Ptr)
; 1931 : 					&& _Traits::compare(_Uptr, _Ptr, _Count) == 0)
; 1932 : 					return (_Uptr - this->_Myptr());	// found a match
; 1933 : 				else if (_Uptr == this->_Myptr())
; 1934 : 					break;	// at beginning, no more chance for match
; 1935 : 			}
; 1936 : 
; 1937 : 		return (npos);	// no match
; 1938 : 		}
; 1939 : 
; 1940 : 	size_type rfind(const _Elem *_Ptr, size_type _Off = npos) const
; 1941 : 		{	// look for [_Ptr, <null>) beginning before _Off
; 1942 : 		_DEBUG_POINTER(_Ptr);
; 1943 : 		return (rfind(_Ptr, _Off, _Traits::length(_Ptr)));
; 1944 : 		}
; 1945 : 
; 1946 : 	size_type rfind(_Elem _Ch, size_type _Off = npos) const
; 1947 : 		{	// look for _Ch before _Off
; 1948 : 		return (rfind((const _Elem *)&_Ch, _Off, 1));
; 1949 : 		}
; 1950 : 
; 1951 : 	size_type find_first_of(const _Myt& _Right,
; 1952 : 		size_type _Off = 0) const _NOEXCEPT
; 1953 : 		{	// look for one of _Right at or after _Off
; 1954 : 		return (find_first_of(_Right._Myptr(), _Off, _Right.size()));
; 1955 : 		}
; 1956 : 
; 1957 : 	size_type find_first_of(const _Elem *_Ptr,
; 1958 : 		size_type _Off, size_type _Count) const
; 1959 : 		{	// look for one of [_Ptr, _Ptr + _Count) at or after _Off
; 1960 :  #if _ITERATOR_DEBUG_LEVEL == 2
; 1961 : 		if (_Count != 0)
; 1962 : 			_DEBUG_POINTER(_Ptr);
; 1963 :  #endif /* _ITERATOR_DEBUG_LEVEL == 2 */
; 1964 : 
; 1965 : 		if (0 < _Count && _Off < this->_Mysize)
; 1966 : 			{	// room for match, look for it
; 1967 : 			const _Elem *const _Vptr = this->_Myptr() + this->_Mysize;
; 1968 : 			for (const _Elem *_Uptr = this->_Myptr() + _Off;
; 1969 : 				_Uptr < _Vptr; ++_Uptr)
; 1970 : 				if (_Traits::find(_Ptr, _Count, *_Uptr) != 0)
; 1971 : 					return (_Uptr - this->_Myptr());	// found a match
; 1972 : 			}
; 1973 : 
; 1974 : 		return (npos);	// no match
; 1975 : 		}
; 1976 : 
; 1977 : 	size_type find_first_of(const _Elem *_Ptr,
; 1978 : 		size_type _Off = 0) const
; 1979 : 		{	// look for one of [_Ptr, <null>) at or after _Off
; 1980 : 		_DEBUG_POINTER(_Ptr);
; 1981 : 		return (find_first_of(_Ptr, _Off, _Traits::length(_Ptr)));
; 1982 : 		}
; 1983 : 
; 1984 : 	size_type find_first_of(_Elem _Ch,
; 1985 : 		size_type _Off = 0) const
; 1986 : 		{	// look for _Ch at or after _Off
; 1987 : 		return (find((const _Elem *)&_Ch, _Off, 1));
; 1988 : 		}
; 1989 : 
; 1990 : 	size_type find_last_of(const _Myt& _Right,
; 1991 : 		size_type _Off = npos) const _NOEXCEPT
; 1992 : 		{	// look for one of _Right before _Off
; 1993 : 		return (find_last_of(_Right._Myptr(), _Off, _Right.size()));
; 1994 : 		}
; 1995 : 
; 1996 : 	size_type find_last_of(const _Elem *_Ptr,
; 1997 : 		size_type _Off, size_type _Count) const
; 1998 : 		{	// look for one of [_Ptr, _Ptr + _Count) before _Off
; 1999 :  #if _ITERATOR_DEBUG_LEVEL == 2
; 2000 : 		if (_Count != 0)
; 2001 : 			_DEBUG_POINTER(_Ptr);
; 2002 :  #endif /* _ITERATOR_DEBUG_LEVEL == 2 */
; 2003 : 
; 2004 : 		if (0 < _Count && 0 < this->_Mysize)
; 2005 : 			{	// worth searching, do it
; 2006 : 			const _Elem *_Uptr = this->_Myptr()
; 2007 : 				+ (_Off < this->_Mysize ? _Off : this->_Mysize - 1);
; 2008 : 			for (; ; --_Uptr)
; 2009 : 				if (_Traits::find(_Ptr, _Count, *_Uptr) != 0)
; 2010 : 					return (_Uptr - this->_Myptr());	// found a match
; 2011 : 				else if (_Uptr == this->_Myptr())
; 2012 : 					break;	// at beginning, no more chance for match
; 2013 : 			}
; 2014 : 
; 2015 : 		return (npos);	// no match
; 2016 : 		}
; 2017 : 
; 2018 : 	size_type find_last_of(const _Elem *_Ptr,
; 2019 : 		size_type _Off = npos) const
; 2020 : 		{	// look for one of [_Ptr, <null>) before _Off
; 2021 : 		_DEBUG_POINTER(_Ptr);
; 2022 : 		return (find_last_of(_Ptr, _Off, _Traits::length(_Ptr)));
; 2023 : 		}
; 2024 : 
; 2025 : 	size_type find_last_of(_Elem _Ch,
; 2026 : 		size_type _Off = npos) const
; 2027 : 		{	// look for _Ch before _Off
; 2028 : 		return (rfind((const _Elem *)&_Ch, _Off, 1));
; 2029 : 		}
; 2030 : 
; 2031 : 	size_type find_first_not_of(const _Myt& _Right,
; 2032 : 		size_type _Off = 0) const _NOEXCEPT
; 2033 : 		{	// look for none of _Right at or after _Off
; 2034 : 		return (find_first_not_of(_Right._Myptr(), _Off,
; 2035 : 			_Right.size()));
; 2036 : 		}
; 2037 : 
; 2038 : 	size_type find_first_not_of(const _Elem *_Ptr,
; 2039 : 		size_type _Off, size_type _Count) const
; 2040 : 		{	// look for none of [_Ptr, _Ptr + _Count) at or after _Off
; 2041 :  #if _ITERATOR_DEBUG_LEVEL == 2
; 2042 : 		if (_Count != 0)
; 2043 : 			_DEBUG_POINTER(_Ptr);
; 2044 :  #endif /* _ITERATOR_DEBUG_LEVEL == 2 */
; 2045 : 
; 2046 : 		if (_Off < this->_Mysize)
; 2047 : 			{	// room for match, look for it
; 2048 : 			const _Elem *const _Vptr = this->_Myptr() + this->_Mysize;
; 2049 : 			for (const _Elem *_Uptr = this->_Myptr() + _Off;
; 2050 : 				_Uptr < _Vptr; ++_Uptr)
; 2051 : 				if (_Traits::find(_Ptr, _Count, *_Uptr) == 0)
; 2052 : 					return (_Uptr - this->_Myptr());
; 2053 : 			}
; 2054 : 		return (npos);
; 2055 : 		}
; 2056 : 
; 2057 : 	size_type find_first_not_of(const _Elem *_Ptr,
; 2058 : 		size_type _Off = 0) const
; 2059 : 		{	// look for one of [_Ptr, <null>) at or after _Off
; 2060 : 		_DEBUG_POINTER(_Ptr);
; 2061 : 		return (find_first_not_of(_Ptr, _Off, _Traits::length(_Ptr)));
; 2062 : 		}
; 2063 : 
; 2064 : 	size_type find_first_not_of(_Elem _Ch,
; 2065 : 		size_type _Off = 0) const
; 2066 : 		{	// look for non _Ch at or after _Off
; 2067 : 		return (find_first_not_of((const _Elem *)&_Ch, _Off, 1));
; 2068 : 		}
; 2069 : 
; 2070 : 	size_type find_last_not_of(const _Myt& _Right,
; 2071 : 		size_type _Off = npos) const _NOEXCEPT
; 2072 : 		{	// look for none of _Right before _Off
; 2073 : 		return (find_last_not_of(_Right._Myptr(), _Off, _Right.size()));
; 2074 : 		}
; 2075 : 
; 2076 : 	size_type find_last_not_of(const _Elem *_Ptr,
; 2077 : 		size_type _Off, size_type _Count) const
; 2078 : 		{	// look for none of [_Ptr, _Ptr + _Count) before _Off
; 2079 :  #if _ITERATOR_DEBUG_LEVEL == 2
; 2080 : 		if (_Count != 0)
; 2081 : 			_DEBUG_POINTER(_Ptr);
; 2082 :  #endif /* _ITERATOR_DEBUG_LEVEL == 2 */
; 2083 : 
; 2084 : 		if (0 < this->_Mysize)
; 2085 : 			{	// worth searching, do it
; 2086 : 			const _Elem *_Uptr = this->_Myptr()
; 2087 : 				+ (_Off < this->_Mysize ? _Off : this->_Mysize - 1);
; 2088 : 			for (; ; --_Uptr)
; 2089 : 				if (_Traits::find(_Ptr, _Count, *_Uptr) == 0)
; 2090 : 					return (_Uptr - this->_Myptr());
; 2091 : 				else if (_Uptr == this->_Myptr())
; 2092 : 					break;
; 2093 : 			}
; 2094 : 		return (npos);
; 2095 : 		}
; 2096 : 
; 2097 : 	size_type find_last_not_of(const _Elem *_Ptr,
; 2098 : 		size_type _Off = npos) const
; 2099 : 		{	// look for none of [_Ptr, <null>) before _Off
; 2100 : 		_DEBUG_POINTER(_Ptr);
; 2101 : 		return (find_last_not_of(_Ptr, _Off, _Traits::length(_Ptr)));
; 2102 : 		}
; 2103 : 
; 2104 : 	size_type find_last_not_of(_Elem _Ch,
; 2105 : 		size_type _Off = npos) const
; 2106 : 		{	// look for non _Ch before _Off
; 2107 : 		return (find_last_not_of((const _Elem *)&_Ch, _Off, 1));
; 2108 : 		}
; 2109 : 
; 2110 : 	_Myt substr(size_type _Off = 0, size_type _Count = npos) const
; 2111 : 		{	// return [_Off, _Off + _Count) as new string
; 2112 : 		return (_Myt(*this, _Off, _Count, get_allocator()));
; 2113 : 		}
; 2114 : 
; 2115 : 	int compare(const _Myt& _Right) const _NOEXCEPT
; 2116 : 		{	// compare [0, _Mysize) with _Right
; 2117 : 		return (compare(0, this->_Mysize, _Right._Myptr(), _Right.size()));
; 2118 : 		}
; 2119 : 
; 2120 : 	int compare(size_type _Off, size_type _N0,
; 2121 : 		const _Myt& _Right) const
; 2122 : 		{	// compare [_Off, _Off + _N0) with _Right
; 2123 : 		return (compare(_Off, _N0, _Right, 0, npos));
; 2124 : 		}
; 2125 : 
; 2126 : 	int compare(size_type _Off,
; 2127 : 		size_type _N0, const _Myt& _Right,
; 2128 : 		size_type _Roff, size_type _Count) const
; 2129 : 		{	// compare [_Off, _Off + _N0) with _Right [_Roff, _Roff + _Count)
; 2130 : 		if (_Right.size() < _Roff)
; 2131 : 			_Xran();	// _Off off end
; 2132 : 		if (_Right._Mysize - _Roff < _Count)
; 2133 : 			_Count = _Right._Mysize - _Roff;	// trim _Count to size
; 2134 : 		return (compare(_Off, _N0, _Right._Myptr() + _Roff, _Count));
; 2135 : 		}
; 2136 : 
; 2137 : 	int compare(const _Elem *_Ptr) const
; 2138 : 		{	// compare [0, _Mysize) with [_Ptr, <null>)
; 2139 : 		_DEBUG_POINTER(_Ptr);
; 2140 : 		return (compare(0, this->_Mysize, _Ptr, _Traits::length(_Ptr)));
; 2141 : 		}
; 2142 : 
; 2143 : 	int compare(size_type _Off, size_type _N0, const _Elem *_Ptr) const
; 2144 : 		{	// compare [_Off, _Off + _N0) with [_Ptr, <null>)
; 2145 : 		_DEBUG_POINTER(_Ptr);
; 2146 : 		return (compare(_Off, _N0, _Ptr, _Traits::length(_Ptr)));
; 2147 : 		}
; 2148 : 
; 2149 : 	int compare(size_type _Off,
; 2150 : 		size_type _N0, const _Elem *_Ptr, size_type _Count) const
; 2151 : 		{	// compare [_Off, _Off + _N0) with [_Ptr, _Ptr + _Count)
; 2152 :  #if _ITERATOR_DEBUG_LEVEL == 2
; 2153 : 		if (_Count != 0)
; 2154 : 			_DEBUG_POINTER(_Ptr);
; 2155 :  #endif /* _ITERATOR_DEBUG_LEVEL == 2 */
; 2156 : 
; 2157 : 		if (this->_Mysize < _Off)
; 2158 : 			_Xran();	// _Off off end
; 2159 : 		if (this->_Mysize - _Off < _N0)
; 2160 : 			_N0 = this->_Mysize - _Off;	// trim _N0 to size
; 2161 : 
; 2162 : 		size_type _Ans = _Traits::compare(this->_Myptr() + _Off, _Ptr,
; 2163 : 			_N0 < _Count ? _N0 : _Count);
; 2164 : 		return (_Ans != 0 ? (int)_Ans : _N0 < _Count ? -1
; 2165 : 			: _N0 == _Count ? 0 : +1);
; 2166 : 		}
; 2167 : 
; 2168 : 	allocator_type get_allocator() const _NOEXCEPT
; 2169 : 		{	// return allocator object for values
; 2170 : 		return (this->_Getal());
; 2171 : 		}
; 2172 : 
; 2173 : 	void _Chassign(size_type _Off, size_type _Count, _Elem _Ch)
; 2174 : 		{	// assign _Count copies of _Ch beginning at _Off
; 2175 : 		if (_Count == 1)
; 2176 : 			_Traits::assign(*(this->_Myptr() + _Off), _Ch);
; 2177 : 		else
; 2178 : 			_Traits::assign(this->_Myptr() + _Off, _Count, _Ch);
; 2179 : 		}
; 2180 : 
; 2181 : 	void _Copy(size_type _Newsize, size_type _Oldlen)
; 2182 : 		{	// copy _Oldlen elements to newly allocated buffer
; 2183 : 		size_type _Newres = _Newsize | this->_ALLOC_MASK;
; 2184 : 		if (max_size() < _Newres)
; 2185 : 			_Newres = _Newsize;	// undo roundup if too big
; 2186 : 		else if (this->_Myres / 2 <= _Newres / 3)
; 2187 : 			;
; 2188 : 		else if (this->_Myres <= max_size() - this->_Myres / 2)
; 2189 : 			_Newres = this->_Myres
; 2190 : 				+ this->_Myres / 2;	// grow exponentially if possible
; 2191 : 		else
; 2192 : 			_Newres = max_size();	// settle for max_size()
; 2193 : 
; 2194 : 		_Elem *_Ptr;
; 2195 : 		_TRY_BEGIN
; 2196 : 			_Ptr = this->_Getal().allocate(_Newres + 1);
; 2197 : 		_CATCH_ALL
; 2198 : 			_Newres = _Newsize;	// allocation failed, undo roundup and retry
; 2199 : 			_TRY_BEGIN
; 2200 : 				_Ptr = this->_Getal().allocate(_Newres + 1);
; 2201 : 			_CATCH_ALL
; 2202 : 			_Tidy(true);	// failed again, discard storage and reraise
; 2203 : 			_RERAISE;
; 2204 : 			_CATCH_END
; 2205 : 		_CATCH_END
; 2206 : 
; 2207 : 		if (0 < _Oldlen)
; 2208 : 			_Traits::copy(_Ptr, this->_Myptr(),
; 2209 : 				_Oldlen);	// copy existing elements
; 2210 : 		_Tidy(true);
; 2211 : 		this->_Getal().construct(&this->_Bx._Ptr, _Ptr);
; 2212 : 		this->_Myres = _Newres;
; 2213 : 		_Eos(_Oldlen);
; 2214 : 		}
; 2215 : 
; 2216 : 	void _Eos(size_type _Newsize)
; 2217 : 		{	// set new length and null terminator
; 2218 : 		_Traits::assign(this->_Myptr()[this->_Mysize = _Newsize], _Elem());

  0020d	4c 89 63 10	 mov	 QWORD PTR [rbx+16], r12
; File c:\program files (x86)\microsoft visual studio 11.0\vc\include\iosfwd

; 347  : 		_Left = _Right;

  00211	66 44 89 23	 mov	 WORD PTR [rbx], r12w
; File c:\users\glenn\documents\github\wind\project\wind\wind\ioutil.cpp

; 43   : }

  00215	48 8b 8c 24 a0
	00 00 00	 mov	 rcx, QWORD PTR __$ArrayPad$[rsp]
  0021d	48 33 cc	 xor	 rcx, rsp
  00220	e8 00 00 00 00	 call	 __security_check_cookie
  00225	48 81 c4 b0 00
	00 00		 add	 rsp, 176		; 000000b0H
  0022c	41 5f		 pop	 r15
  0022e	41 5e		 pop	 r14
  00230	41 5c		 pop	 r12
  00232	5f		 pop	 rdi
  00233	5e		 pop	 rsi
  00234	5d		 pop	 rbp
  00235	5b		 pop	 rbx
  00236	c3		 ret	 0
?readPNG@IOUtil@@YAPEAEV?$basic_string@_WU?$char_traits@_W@std@@V?$allocator@_W@2@@std@@AEAI1@Z ENDP ; IOUtil::readPNG
_TEXT	ENDS
; Function compile flags: /Ogtp
;	COMDAT text$x
text$x	SEGMENT
buffer$1 = 64
image$ = 88
$T2 = 112
file$GSCopy$ = 120
$T3 = 128
__$ArrayPad$ = 160
file$ = 240
width$ = 248
height$ = 256
?dtor$0@?0??readPNG@IOUtil@@YAPEAEV?$basic_string@_WU?$char_traits@_W@std@@V?$allocator@_W@2@@std@@AEAI1@Z@4HA PROC ; `IOUtil::readPNG'::`1'::dtor$0
  00000	48 8b 8a 78 00
	00 00		 mov	 rcx, QWORD PTR file$GSCopy$[rdx]
  00007	e9 00 00 00 00	 jmp	 ??1?$basic_string@_WU?$char_traits@_W@std@@V?$allocator@_W@2@@std@@QEAA@XZ ; std::basic_string<wchar_t,std::char_traits<wchar_t>,std::allocator<wchar_t> >::~basic_string<wchar_t,std::char_traits<wchar_t>,std::allocator<wchar_t> >
?dtor$0@?0??readPNG@IOUtil@@YAPEAEV?$basic_string@_WU?$char_traits@_W@std@@V?$allocator@_W@2@@std@@AEAI1@Z@4HA ENDP ; `IOUtil::readPNG'::`1'::dtor$0
text$x	ENDS
; Function compile flags: /Ogtp
;	COMDAT text$x
text$x	SEGMENT
buffer$1 = 64
image$ = 88
$T2 = 112
file$GSCopy$ = 120
$T3 = 128
__$ArrayPad$ = 160
file$ = 240
width$ = 248
height$ = 256
?dtor$1@?0??readPNG@IOUtil@@YAPEAEV?$basic_string@_WU?$char_traits@_W@std@@V?$allocator@_W@2@@std@@AEAI1@Z@4HA PROC ; `IOUtil::readPNG'::`1'::dtor$1
  0000c	48 8d 8a 58 00
	00 00		 lea	 rcx, QWORD PTR image$[rdx]
  00013	e9 00 00 00 00	 jmp	 ??1?$vector@EV?$allocator@E@std@@@std@@QEAA@XZ ; std::vector<unsigned char,std::allocator<unsigned char> >::~vector<unsigned char,std::allocator<unsigned char> >
?dtor$1@?0??readPNG@IOUtil@@YAPEAEV?$basic_string@_WU?$char_traits@_W@std@@V?$allocator@_W@2@@std@@AEAI1@Z@4HA ENDP ; `IOUtil::readPNG'::`1'::dtor$1
text$x	ENDS
; Function compile flags: /Ogtp
;	COMDAT text$x
text$x	SEGMENT
buffer$1 = 64
image$ = 88
$T2 = 112
file$GSCopy$ = 120
$T3 = 128
__$ArrayPad$ = 160
file$ = 240
width$ = 248
height$ = 256
?dtor$2@?0??readPNG@IOUtil@@YAPEAEV?$basic_string@_WU?$char_traits@_W@std@@V?$allocator@_W@2@@std@@AEAI1@Z@4HA PROC ; `IOUtil::readPNG'::`1'::dtor$2
  00018	48 8d 8a 80 00
	00 00		 lea	 rcx, QWORD PTR $T3[rdx]
  0001f	e9 00 00 00 00	 jmp	 ??1?$basic_string@DU?$char_traits@D@std@@V?$allocator@D@2@@std@@QEAA@XZ ; std::basic_string<char,std::char_traits<char>,std::allocator<char> >::~basic_string<char,std::char_traits<char>,std::allocator<char> >
?dtor$2@?0??readPNG@IOUtil@@YAPEAEV?$basic_string@_WU?$char_traits@_W@std@@V?$allocator@_W@2@@std@@AEAI1@Z@4HA ENDP ; `IOUtil::readPNG'::`1'::dtor$2
text$x	ENDS
; Function compile flags: /Ogtp
;	COMDAT text$x
text$x	SEGMENT
buffer$1 = 64
image$ = 88
$T2 = 112
file$GSCopy$ = 120
$T3 = 128
__$ArrayPad$ = 160
file$ = 240
width$ = 248
height$ = 256
?dtor$3@?0??readPNG@IOUtil@@YAPEAEV?$basic_string@_WU?$char_traits@_W@std@@V?$allocator@_W@2@@std@@AEAI1@Z@4HA PROC ; `IOUtil::readPNG'::`1'::dtor$3
  00024	48 8d 8a 40 00
	00 00		 lea	 rcx, QWORD PTR buffer$1[rdx]
  0002b	e9 00 00 00 00	 jmp	 ??1?$vector@EV?$allocator@E@std@@@std@@QEAA@XZ ; std::vector<unsigned char,std::allocator<unsigned char> >::~vector<unsigned char,std::allocator<unsigned char> >
?dtor$3@?0??readPNG@IOUtil@@YAPEAEV?$basic_string@_WU?$char_traits@_W@std@@V?$allocator@_W@2@@std@@AEAI1@Z@4HA ENDP ; `IOUtil::readPNG'::`1'::dtor$3
text$x	ENDS
; Function compile flags: /Ogtp
; File c:\program files (x86)\microsoft visual studio 11.0\vc\include\wchar.h
;	COMDAT wmemchr
_TEXT	SEGMENT
_S$dead$ = 8
_C$ = 16
_N$ = 24
wmemchr	PROC						; COMDAT

; 1241 :         {for (; 0 < _N; ++_S, --_N)

  00000	48 8d 05 00 00
	00 00		 lea	 rax, OFFSET FLAT:$SG4294922314
  00007	4d 85 c0	 test	 r8, r8
  0000a	74 12		 je	 SHORT $LN2@wmemchr
  0000c	0f 1f 40 00	 npad	 4
$LL4@wmemchr:

; 1242 :                 if (*_S == _C)

  00010	66 39 10	 cmp	 WORD PTR [rax], dx
  00013	74 0b		 je	 SHORT $LN5@wmemchr

; 1241 :         {for (; 0 < _N; ++_S, --_N)

  00015	48 83 c0 02	 add	 rax, 2
  00019	49 ff c8	 dec	 r8
  0001c	75 f2		 jne	 SHORT $LL4@wmemchr
$LN2@wmemchr:

; 1243 :                         return (_CONST_RETURN wchar_t *)(_S);
; 1244 :         return (0); }

  0001e	33 c0		 xor	 eax, eax
$LN5@wmemchr:
  00020	f3 c3		 fatret	 0
wmemchr	ENDP
_TEXT	ENDS
; Function compile flags: /Ogtp
; File c:\program files (x86)\microsoft visual studio 11.0\vc\include\iosfwd
; File c:\program files (x86)\microsoft visual studio 11.0\vc\include\wchar.h
; File c:\program files (x86)\microsoft visual studio 11.0\vc\include\iosfwd
;	COMDAT ?find@?$char_traits@_W@std@@SAPEB_WPEB_W_KAEB_W@Z
_TEXT	SEGMENT
_First$dead$ = 8
_Count$ = 16
_Ch$ = 24
?find@?$char_traits@_W@std@@SAPEB_WPEB_W_KAEB_W@Z PROC	; std::char_traits<wchar_t>::find, COMDAT

; 329  : 			: (const _Elem *)_CSTD wmemchr(_First, _Ch, _Count));

  00000	48 85 d2	 test	 rdx, rdx
  00003	74 19		 je	 SHORT $LN6@find
  00005	41 0f b7 08	 movzx	 ecx, WORD PTR [r8]
  00009	48 8d 05 00 00
	00 00		 lea	 rax, OFFSET FLAT:$SG4294922314
$LL8@find:
; File c:\program files (x86)\microsoft visual studio 11.0\vc\include\wchar.h

; 1242 :                 if (*_S == _C)

  00010	66 39 08	 cmp	 WORD PTR [rax], cx
  00013	74 0b		 je	 SHORT $LN9@find

; 1241 :         {for (; 0 < _N; ++_S, --_N)

  00015	48 83 c0 02	 add	 rax, 2
  00019	48 ff ca	 dec	 rdx
  0001c	75 f2		 jne	 SHORT $LL8@find
$LN6@find:
; File c:\program files (x86)\microsoft visual studio 11.0\vc\include\iosfwd

; 329  : 			: (const _Elem *)_CSTD wmemchr(_First, _Ch, _Count));

  0001e	33 c0		 xor	 eax, eax
$LN9@find:

; 330  : 		}

  00020	f3 c3		 fatret	 0
?find@?$char_traits@_W@std@@SAPEB_WPEB_W_KAEB_W@Z ENDP	; std::char_traits<wchar_t>::find
_TEXT	ENDS
; Function compile flags: /Ogtp
; File c:\users\glenn\documents\github\wind\project\wind\wind\ioutil.cpp
;	COMDAT ??__EEXE_DIR@IOUtil@@YAXXZ
text$yc	SEGMENT
??__EEXE_DIR@IOUtil@@YAXXZ PROC				; IOUtil::`dynamic initializer for 'EXE_DIR'', COMDAT

; 7    : std::wstring IOUtil::EXE_DIR;

  00000	48 8d 0d 00 00
	00 00		 lea	 rcx, OFFSET FLAT:??__FEXE_DIR@IOUtil@@YAXXZ ; IOUtil::`dynamic atexit destructor for 'EXE_DIR''
  00007	e9 00 00 00 00	 jmp	 atexit
??__EEXE_DIR@IOUtil@@YAXXZ ENDP				; IOUtil::`dynamic initializer for 'EXE_DIR''
text$yc	ENDS
; Function compile flags: /Ogtp
; File c:\program files (x86)\microsoft visual studio 11.0\vc\include\xstring
; File c:\program files (x86)\microsoft visual studio 11.0\vc\include\xmemory0
; File c:\program files (x86)\microsoft visual studio 11.0\vc\include\xstring
; File c:\program files (x86)\microsoft visual studio 11.0\vc\include\iosfwd
;	COMDAT ??__FEXE_DIR@IOUtil@@YAXXZ
text$yd	SEGMENT
$T1 = 48
$T2 = 48
??__FEXE_DIR@IOUtil@@YAXXZ PROC				; IOUtil::`dynamic atexit destructor for 'EXE_DIR'', COMDAT
  00000	48 83 ec 28	 sub	 rsp, 40			; 00000028H
; File c:\program files (x86)\microsoft visual studio 11.0\vc\include\xstring

; 2256 : 		else if (this->_BUF_SIZE <= this->_Myres)

  00004	48 83 3d 18 00
	00 00 08	 cmp	 QWORD PTR ?EXE_DIR@IOUtil@@3V?$basic_string@_WU?$char_traits@_W@std@@V?$allocator@_W@2@@std@@A+24, 8
  0000c	72 3e		 jb	 SHORT $LN25@dynamic

; 689  : 		return (_Alty());

  0000e	48 8d 4c 24 30	 lea	 rcx, QWORD PTR $T2[rsp]
  00013	48 89 5c 24 20	 mov	 QWORD PTR [rsp+32], rbx

; 2257 : 			{	// copy any leftovers to small buffer and deallocate
; 2258 : 			pointer _Ptr = this->_Bx._Ptr;

  00018	48 8b 1d 00 00
	00 00		 mov	 rbx, QWORD PTR ?EXE_DIR@IOUtil@@3V?$basic_string@_WU?$char_traits@_W@std@@V?$allocator@_W@2@@std@@A

; 689  : 		return (_Alty());

  0001f	e8 00 00 00 00	 call	 ??0?$_Wrap_alloc@V?$allocator@_W@std@@@std@@QEAA@XZ ; std::_Wrap_alloc<std::allocator<wchar_t> >::_Wrap_alloc<std::allocator<wchar_t> >

; 2259 : 			this->_Getal().destroy(&this->_Bx._Ptr);

  00024	48 8d 15 00 00
	00 00		 lea	 rdx, OFFSET FLAT:?EXE_DIR@IOUtil@@3V?$basic_string@_WU?$char_traits@_W@std@@V?$allocator@_W@2@@std@@A ; IOUtil::EXE_DIR
  0002b	48 8d 4c 24 30	 lea	 rcx, QWORD PTR $T2[rsp]
  00030	e8 00 00 00 00	 call	 ??$destroy@PEA_W@?$_Wrap_alloc@V?$allocator@_W@std@@@std@@QEAAXPEAPEA_W@Z ; std::_Wrap_alloc<std::allocator<wchar_t> >::destroy<wchar_t * __ptr64>

; 689  : 		return (_Alty());

  00035	48 8d 4c 24 30	 lea	 rcx, QWORD PTR $T1[rsp]
  0003a	e8 00 00 00 00	 call	 ??0?$_Wrap_alloc@V?$allocator@_W@std@@@std@@QEAA@XZ ; std::_Wrap_alloc<std::allocator<wchar_t> >::_Wrap_alloc<std::allocator<wchar_t> >
; File c:\program files (x86)\microsoft visual studio 11.0\vc\include\xmemory0

; 586  : 		::operator delete(_Ptr);

  0003f	48 8b cb	 mov	 rcx, rbx
  00042	e8 00 00 00 00	 call	 ??3@YAXPEAX@Z		; operator delete
  00047	48 8b 5c 24 20	 mov	 rbx, QWORD PTR [rsp+32]
$LN25@dynamic:
; File c:\program files (x86)\microsoft visual studio 11.0\vc\include\xstring

; 2218 : 		_Traits::assign(this->_Myptr()[this->_Mysize = _Newsize], _Elem());

  0004c	33 c0		 xor	 eax, eax

; 2260 : 			if (0 < _Newsize)
; 2261 : 				_Traits::copy(this->_Bx._Buf,
; 2262 : 					_STD addressof(*_Ptr), _Newsize);
; 2263 : 			this->_Getal().deallocate(_Ptr, this->_Myres + 1);
; 2264 : 			}
; 2265 : 		this->_Myres = this->_BUF_SIZE - 1;

  0004e	48 c7 05 18 00
	00 00 07 00 00
	00		 mov	 QWORD PTR ?EXE_DIR@IOUtil@@3V?$basic_string@_WU?$char_traits@_W@std@@V?$allocator@_W@2@@std@@A+24, 7

; 2218 : 		_Traits::assign(this->_Myptr()[this->_Mysize = _Newsize], _Elem());

  00059	48 89 05 10 00
	00 00		 mov	 QWORD PTR ?EXE_DIR@IOUtil@@3V?$basic_string@_WU?$char_traits@_W@std@@V?$allocator@_W@2@@std@@A+16, rax
; File c:\program files (x86)\microsoft visual studio 11.0\vc\include\iosfwd

; 347  : 		_Left = _Right;

  00060	66 89 05 00 00
	00 00		 mov	 WORD PTR ?EXE_DIR@IOUtil@@3V?$basic_string@_WU?$char_traits@_W@std@@V?$allocator@_W@2@@std@@A, ax
  00067	48 83 c4 28	 add	 rsp, 40			; 00000028H
  0006b	c3		 ret	 0
??__FEXE_DIR@IOUtil@@YAXXZ ENDP				; IOUtil::`dynamic atexit destructor for 'EXE_DIR''
text$yd	ENDS
; Function compile flags: /Ogtp
; File c:\users\glenn\documents\github\wind\project\wind\wind\ioutil.cpp
; File c:\program files (x86)\microsoft visual studio 11.0\vc\include\xstring
; File c:\program files (x86)\microsoft visual studio 11.0\vc\include\iosfwd
; File c:\program files (x86)\microsoft visual studio 11.0\vc\include\xstring
; File c:\program files (x86)\microsoft visual studio 11.0\vc\include\xmemory0
; File c:\users\glenn\documents\github\wind\project\wind\wind\ioutil.cpp
; File c:\program files (x86)\microsoft visual studio 11.0\vc\include\iosfwd
; File c:\program files (x86)\microsoft visual studio 11.0\vc\include\xstring
; File c:\users\glenn\documents\github\wind\project\wind\wind\ioutil.cpp
;	COMDAT ?init@IOUtil@@YAXXZ
_TEXT	SEGMENT
$T1 = 32
buffer$ = 64
__$ArrayPad$ = 592
?init@IOUtil@@YAXXZ PROC				; IOUtil::init, COMDAT

; 10   : {

$LN104:
  00000	48 89 5c 24 08	 mov	 QWORD PTR [rsp+8], rbx
  00005	57		 push	 rdi
  00006	48 81 ec 60 02
	00 00		 sub	 rsp, 608		; 00000260H
  0000d	48 8b 05 00 00
	00 00		 mov	 rax, QWORD PTR __security_cookie
  00014	48 33 c4	 xor	 rax, rsp
  00017	48 89 84 24 50
	02 00 00	 mov	 QWORD PTR __$ArrayPad$[rsp], rax

; 11   : 	wchar_t buffer[MAX_PATH];
; 12   : 	GetModuleFileName(NULL, buffer, MAX_PATH);

  0001f	48 8d 54 24 40	 lea	 rdx, QWORD PTR buffer$[rsp]
  00024	41 b8 04 01 00
	00		 mov	 r8d, 260		; 00000104H
  0002a	33 c9		 xor	 ecx, ecx
  0002c	ff 15 00 00 00
	00		 call	 QWORD PTR __imp_GetModuleFileNameW
; File c:\program files (x86)\microsoft visual studio 11.0\vc\include\xstring

; 2218 : 		_Traits::assign(this->_Myptr()[this->_Mysize = _Newsize], _Elem());

  00032	33 db		 xor	 ebx, ebx

; 2257 : 			{	// copy any leftovers to small buffer and deallocate
; 2258 : 			pointer _Ptr = this->_Bx._Ptr;
; 2259 : 			this->_Getal().destroy(&this->_Bx._Ptr);
; 2260 : 			if (0 < _Newsize)
; 2261 : 				_Traits::copy(this->_Bx._Buf,
; 2262 : 					_STD addressof(*_Ptr), _Newsize);
; 2263 : 			this->_Getal().deallocate(_Ptr, this->_Myres + 1);
; 2264 : 			}
; 2265 : 		this->_Myres = this->_BUF_SIZE - 1;

  00034	48 c7 44 24 38
	07 00 00 00	 mov	 QWORD PTR $T1[rsp+24], 7

; 2218 : 		_Traits::assign(this->_Myptr()[this->_Mysize = _Newsize], _Elem());

  0003d	48 89 5c 24 30	 mov	 QWORD PTR $T1[rsp+16], rbx
; File c:\program files (x86)\microsoft visual studio 11.0\vc\include\iosfwd

; 347  : 		_Left = _Right;

  00042	66 89 5c 24 20	 mov	 WORD PTR $T1[rsp], bx

; 306  : 			: _CSTD wcslen(_First));

  00047	66 39 5c 24 40	 cmp	 WORD PTR buffer$[rsp], bx
  0004c	75 05		 jne	 SHORT $LN50@init
  0004e	44 8b c3	 mov	 r8d, ebx
  00051	eb 17		 jmp	 SHORT $LN51@init
$LN50@init:
  00053	48 8d 44 24 40	 lea	 rax, QWORD PTR buffer$[rsp]
  00058	49 83 c8 ff	 or	 r8, -1
  0005c	0f 1f 40 00	 npad	 4
$LL101@init:
  00060	49 ff c0	 inc	 r8
  00063	66 42 39 1c 40	 cmp	 WORD PTR [rax+r8*2], bx
  00068	75 f6		 jne	 SHORT $LL101@init
$LN51@init:
; File c:\program files (x86)\microsoft visual studio 11.0\vc\include\xstring

; 1144 : 		return (assign(_Ptr, _Traits::length(_Ptr)));

  0006a	48 8d 54 24 40	 lea	 rdx, QWORD PTR buffer$[rsp]
  0006f	48 8d 4c 24 20	 lea	 rcx, QWORD PTR $T1[rsp]
  00074	e8 00 00 00 00	 call	 ?assign@?$basic_string@_WU?$char_traits@_W@std@@V?$allocator@_W@2@@std@@QEAAAEAV12@PEB_W_K@Z ; std::basic_string<wchar_t,std::char_traits<wchar_t>,std::allocator<wchar_t> >::assign

; 1145 : 		}
; 1146 : 
; 1147 : 	_Myt& assign(size_type _Count, _Elem _Ch)
; 1148 : 		{	// assign _Count * _Ch
; 1149 : 		if (_Count == npos)
; 1150 : 			_Xlen();	// result too long
; 1151 : 
; 1152 : 		if (_Grow(_Count))
; 1153 : 			{	// make room and assign new stuff
; 1154 : 			_Chassign(0, _Count, _Ch);
; 1155 : 			_Eos(_Count);
; 1156 : 			}
; 1157 : 		return (*this);
; 1158 : 		}
; 1159 : 
; 1160 : 	template<class _Iter>
; 1161 : 		typename enable_if<_Is_iterator<_Iter>::value,
; 1162 : 			_Myt&>::type
; 1163 : 		assign(_Iter _First, _Iter _Last)
; 1164 : 		{	// assign [First, _Last), input iterators
; 1165 : 		return (replace(begin(), end(), _First, _Last));
; 1166 : 		}
; 1167 : 
; 1168 : 	_Myt& assign(const_pointer _First, const_pointer _Last)
; 1169 : 		{	// assign [First, _Last), const pointers
; 1170 : 		return (replace(begin(), end(), _First, _Last));
; 1171 : 		}
; 1172 : 
; 1173 : 	_Myt& assign(const_iterator _First, const_iterator _Last)
; 1174 : 		{	// assign [First, _Last), const_iterators
; 1175 : 		return (replace(begin(), end(), _First, _Last));
; 1176 : 		}
; 1177 : 
; 1178 : 	_Myt& insert(size_type _Off, const _Myt& _Right)
; 1179 : 		{	// insert _Right at _Off
; 1180 : 		return (insert(_Off, _Right, 0, npos));
; 1181 : 		}
; 1182 : 
; 1183 : 	_Myt& insert(size_type _Off,
; 1184 : 		const _Myt& _Right, size_type _Roff, size_type _Count)
; 1185 : 		{	// insert _Right [_Roff, _Roff + _Count) at _Off
; 1186 : 		if (this->_Mysize < _Off || _Right.size() < _Roff)
; 1187 : 			_Xran();	// _Off or _Roff off end
; 1188 : 		size_type _Num = _Right.size() - _Roff;
; 1189 : 		if (_Num < _Count)
; 1190 : 			_Count = _Num;	// trim _Count to size
; 1191 : 		if (npos - this->_Mysize <= _Count)
; 1192 : 			_Xlen();	// result too long
; 1193 : 
; 1194 : 		if (0 < _Count && _Grow(_Num = this->_Mysize + _Count))
; 1195 : 			{	// make room and insert new stuff
; 1196 : 			_Traits::move(this->_Myptr() + _Off + _Count,
; 1197 : 				this->_Myptr() + _Off,
; 1198 : 				this->_Mysize - _Off);	// empty out hole
; 1199 : 			if (this == &_Right)
; 1200 : 				_Traits::move(this->_Myptr() + _Off,
; 1201 : 					this->_Myptr() + (_Off < _Roff ? _Roff + _Count : _Roff),
; 1202 : 						_Count);	// substring
; 1203 : 			else
; 1204 : 				_Traits::copy(this->_Myptr() + _Off,
; 1205 : 					_Right._Myptr() + _Roff, _Count);	// fill hole
; 1206 : 			_Eos(_Num);
; 1207 : 			}
; 1208 : 		return (*this);
; 1209 : 		}
; 1210 : 
; 1211 : 	_Myt& insert(size_type _Off,
; 1212 : 		const _Elem *_Ptr, size_type _Count)
; 1213 : 		{	// insert [_Ptr, _Ptr + _Count) at _Off
; 1214 :  #if _ITERATOR_DEBUG_LEVEL == 2
; 1215 : 		if (_Count != 0)
; 1216 : 			_DEBUG_POINTER(_Ptr);
; 1217 :  #endif /* _ITERATOR_DEBUG_LEVEL == 2 */
; 1218 : 
; 1219 : 		if (_Inside(_Ptr))
; 1220 : 			return (insert(_Off, *this,
; 1221 : 				_Ptr - this->_Myptr(), _Count));	// substring
; 1222 : 		if (this->_Mysize < _Off)
; 1223 : 			_Xran();	// _Off off end
; 1224 : 		if (npos - this->_Mysize <= _Count)
; 1225 : 			_Xlen();	// result too long
; 1226 : 		size_type _Num;
; 1227 : 		if (0 < _Count && _Grow(_Num = this->_Mysize + _Count))
; 1228 : 			{	// make room and insert new stuff
; 1229 : 			_Traits::move(this->_Myptr() + _Off + _Count,
; 1230 : 				this->_Myptr() + _Off,
; 1231 : 				this->_Mysize - _Off);	// empty out hole
; 1232 : 			_Traits::copy(this->_Myptr() + _Off, _Ptr, _Count);	// fill hole
; 1233 : 			_Eos(_Num);
; 1234 : 			}
; 1235 : 		return (*this);
; 1236 : 		}
; 1237 : 
; 1238 : 	_Myt& insert(size_type _Off, const _Elem *_Ptr)
; 1239 : 		{	// insert [_Ptr, <null>) at _Off
; 1240 : 		_DEBUG_POINTER(_Ptr);
; 1241 : 		return (insert(_Off, _Ptr, _Traits::length(_Ptr)));
; 1242 : 		}
; 1243 : 
; 1244 : 	_Myt& insert(size_type _Off,
; 1245 : 		size_type _Count, _Elem _Ch)
; 1246 : 		{	// insert _Count * _Ch at _Off
; 1247 : 		if (this->_Mysize < _Off)
; 1248 : 			_Xran();	// _Off off end
; 1249 : 		if (npos - this->_Mysize <= _Count)
; 1250 : 			_Xlen();	// result too long
; 1251 : 		size_type _Num;
; 1252 : 		if (0 < _Count && _Grow(_Num = this->_Mysize + _Count))
; 1253 : 			{	// make room and insert new stuff
; 1254 : 			_Traits::move(this->_Myptr() + _Off + _Count,
; 1255 : 				this->_Myptr() + _Off,
; 1256 : 				this->_Mysize - _Off);	// empty out hole
; 1257 : 			_Chassign(_Off, _Count, _Ch);	// fill hole
; 1258 : 			_Eos(_Num);
; 1259 : 			}
; 1260 : 		return (*this);
; 1261 : 		}
; 1262 : 
; 1263 : 	iterator insert(const_iterator _Where)
; 1264 : 		{	// insert <null> at _Where
; 1265 : 		return (insert(_Where, _Elem()));
; 1266 : 		}
; 1267 : 
; 1268 : 	iterator insert(const_iterator _Where, _Elem _Ch)
; 1269 : 		{	// insert _Ch at _Where
; 1270 : 		size_type _Off = _Pdif(_Where, begin());
; 1271 : 		insert(_Off, 1, _Ch);
; 1272 : 		return (begin() + _Off);
; 1273 : 		}
; 1274 : 
; 1275 : 	iterator insert(const_iterator _Where, size_type _Count, _Elem _Ch)
; 1276 : 		{	// insert _Count * _Elem at _Where
; 1277 : 		size_type _Off = _Pdif(_Where, begin());
; 1278 : 		insert(_Off, _Count, _Ch);
; 1279 : 		return (begin() + _Off);
; 1280 : 		}
; 1281 : 
; 1282 : 	template<class _Iter>
; 1283 : 		typename enable_if<_Is_iterator<_Iter>::value,
; 1284 : 			iterator>::type
; 1285 : 		insert(const_iterator _Where, _Iter _First, _Iter _Last)
; 1286 : 		{	// insert [_First, _Last) at _Where, input iterators
; 1287 : 		size_type _Off = _Pdif(_Where, begin());
; 1288 : 		replace(_Where, _Where, _First, _Last);
; 1289 : 		return (begin() + _Off);
; 1290 : 		}
; 1291 : 
; 1292 : 	iterator insert(const_iterator _Where,
; 1293 : 		const_pointer _First, const_pointer _Last)
; 1294 : 		{	// insert [_First, _Last) at _Where, const pointers
; 1295 : 		size_type _Off = _Pdif(_Where, begin());
; 1296 : 		replace(_Where, _Where, _First, _Last);
; 1297 : 		return (begin() + _Off);
; 1298 : 		}
; 1299 : 
; 1300 : 	iterator insert(const_iterator _Where,
; 1301 : 		const_iterator _First, const_iterator _Last)
; 1302 : 		{	// insert [_First, _Last) at _Where, const_iterators
; 1303 : 		size_type _Off = _Pdif(_Where, begin());
; 1304 : 		replace(_Where, _Where, _First, _Last);
; 1305 : 		return (begin() + _Off);
; 1306 : 		}
; 1307 : 
; 1308 : 	_Myt& erase(size_type _Off = 0)
; 1309 : 		{	// erase elements [_Off, ...)
; 1310 : 		if (this->_Mysize < _Off)
; 1311 : 			_Xran();	// _Off off end
; 1312 : 		_Eos(_Off);
; 1313 : 		return (*this);
; 1314 : 		}
; 1315 : 
; 1316 : 	_Myt& erase(size_type _Off, size_type _Count)
; 1317 : 		{	// erase elements [_Off, _Off + _Count)
; 1318 : 		if (this->_Mysize < _Off)
; 1319 : 			_Xran();	// _Off off end
; 1320 : 		if (this->_Mysize - _Off <= _Count)
; 1321 : 			_Eos(_Off);	// erase elements [_Off, ...)
; 1322 : 		else if (0 < _Count)
; 1323 : 			{	// move elements down
; 1324 : 			value_type *_Ptr = this->_Myptr() + _Off;
; 1325 : 			size_type _Newsize = this->_Mysize - _Count;
; 1326 : 			_Traits::move(_Ptr, _Ptr + _Count, _Newsize - _Off);
; 1327 : 			_Eos(_Newsize);
; 1328 : 			}
; 1329 : 		return (*this);
; 1330 : 		}
; 1331 : 
; 1332 : 	iterator erase(const_iterator _Where)
; 1333 : 		{	// erase element at _Where
; 1334 : 		size_type _Count = _Pdif(_Where, begin());
; 1335 : 		erase(_Count, 1);
; 1336 : 		return (_STRING_ITERATOR(this->_Myptr() + _Count));
; 1337 : 		}
; 1338 : 
; 1339 : 	iterator erase(const_iterator _First, const_iterator _Last)
; 1340 : 		{	// erase substring [_First, _Last)
; 1341 : 		_DEBUG_RANGE(_First, _Last);
; 1342 : 		size_type _Count = _Pdif(_First, begin());
; 1343 : 		erase(_Count, _Pdif(_Last, _First));
; 1344 : 		return (_STRING_ITERATOR(this->_Myptr() + _Count));
; 1345 : 		}
; 1346 : 
; 1347 : 	void clear() _NOEXCEPT
; 1348 : 		{	// erase all
; 1349 : 		_Eos(0);
; 1350 : 		}
; 1351 : 
; 1352 : 	_Myt& replace(size_type _Off, size_type _N0, const _Myt& _Right)
; 1353 : 		{	// replace [_Off, _Off + _N0) with _Right
; 1354 : 		return (replace(_Off, _N0, _Right, 0, npos));
; 1355 : 		}
; 1356 : 
; 1357 : 	_Myt& replace(size_type _Off,
; 1358 : 		size_type _N0, const _Myt& _Right, size_type _Roff, size_type _Count)
; 1359 : 		{	// replace [_Off, _Off + _N0) with _Right [_Roff, _Roff + _Count)
; 1360 : 		if (this->_Mysize < _Off || _Right.size() < _Roff)
; 1361 : 			_Xran();	// _Off or _Roff off end
; 1362 : 		if (this->_Mysize - _Off < _N0)
; 1363 : 			_N0 = this->_Mysize - _Off;	// trim _N0 to size
; 1364 : 		size_type _Num = _Right.size() - _Roff;
; 1365 : 		if (_Num < _Count)
; 1366 : 			_Count = _Num;	// trim _Count to size
; 1367 : 		if (npos - _Count <= this->_Mysize - _N0)
; 1368 : 			_Xlen();	// result too long
; 1369 : 
; 1370 : 		size_type _Nm = this->_Mysize - _N0 - _Off;	// length of kept tail
; 1371 : 		size_type _Newsize = this->_Mysize + _Count - _N0;
; 1372 : 		if (this->_Mysize < _Newsize)
; 1373 : 			_Grow(_Newsize);
; 1374 : 
; 1375 : 		if (this != &_Right)
; 1376 : 			{	// no overlap, just move down and copy in new stuff
; 1377 : 			_Traits::move(this->_Myptr() + _Off + _Count,
; 1378 : 				this->_Myptr() + _Off + _N0, _Nm);	// empty hole
; 1379 : 			_Traits::copy(this->_Myptr() + _Off,
; 1380 : 				_Right._Myptr() + _Roff, _Count);	// fill hole
; 1381 : 			}
; 1382 : 		else if (_Count <= _N0)
; 1383 : 			{	// hole doesn't get larger, just copy in substring
; 1384 : 			_Traits::move(this->_Myptr() + _Off,
; 1385 : 				this->_Myptr() + _Roff, _Count);	// fill hole
; 1386 : 			_Traits::move(this->_Myptr() + _Off + _Count,
; 1387 : 				this->_Myptr() + _Off + _N0, _Nm);	// move tail down
; 1388 : 			}
; 1389 : 		else if (_Roff <= _Off)
; 1390 : 			{	// hole gets larger, substring begins before hole
; 1391 : 			_Traits::move(this->_Myptr() + _Off + _Count,
; 1392 : 				this->_Myptr() + _Off + _N0, _Nm);	// move tail down
; 1393 : 			_Traits::move(this->_Myptr() + _Off,
; 1394 : 				this->_Myptr() + _Roff, _Count);	// fill hole
; 1395 : 			}
; 1396 : 		else if (_Off + _N0 <= _Roff)
; 1397 : 			{	// hole gets larger, substring begins after hole
; 1398 : 			_Traits::move(this->_Myptr() + _Off + _Count,
; 1399 : 				this->_Myptr() + _Off + _N0, _Nm);	// move tail down
; 1400 : 			_Traits::move(this->_Myptr() + _Off,
; 1401 : 				this->_Myptr() + (_Roff + _Count - _N0),
; 1402 : 				_Count);	// fill hole
; 1403 : 			}
; 1404 : 		else
; 1405 : 			{	// hole gets larger, substring begins in hole
; 1406 : 			_Traits::move(this->_Myptr() + _Off,
; 1407 : 				this->_Myptr() + _Roff, _N0);	// fill old hole
; 1408 : 			_Traits::move(this->_Myptr() + _Off + _Count,
; 1409 : 				this->_Myptr() + _Off + _N0, _Nm);	// move tail down
; 1410 : 			_Traits::move(this->_Myptr() + _Off + _N0,
; 1411 : 				this->_Myptr() + _Roff + _Count,
; 1412 : 				_Count - _N0);	// fill rest of new hole
; 1413 : 			}
; 1414 : 
; 1415 : 		_Eos(_Newsize);
; 1416 : 		return (*this);
; 1417 : 		}
; 1418 : 
; 1419 : 	_Myt& replace(size_type _Off,
; 1420 : 		size_type _N0, const _Elem *_Ptr, size_type _Count)
; 1421 : 		{	// replace [_Off, _Off + _N0) with [_Ptr, _Ptr + _Count)
; 1422 :  #if _ITERATOR_DEBUG_LEVEL == 2
; 1423 : 		if (_Count != 0)
; 1424 : 			_DEBUG_POINTER(_Ptr);
; 1425 :  #endif /* _ITERATOR_DEBUG_LEVEL == 2 */
; 1426 : 
; 1427 : 		if (_Inside(_Ptr))
; 1428 : 			return (replace(_Off, _N0, *this,
; 1429 : 				_Ptr - this->_Myptr(),
; 1430 : 				_Count));	// substring, replace carefully
; 1431 : 		if (this->_Mysize < _Off)
; 1432 : 			_Xran();	// _Off off end
; 1433 : 		if (this->_Mysize - _Off < _N0)
; 1434 : 			_N0 = this->_Mysize - _Off;	// trim _N0 to size
; 1435 : 		if (npos - _Count <= this->_Mysize - _N0)
; 1436 : 			_Xlen();	// result too long
; 1437 : 		size_type _Nm = this->_Mysize - _N0 - _Off;
; 1438 : 
; 1439 : 		if (_Count < _N0)
; 1440 : 			_Traits::move(this->_Myptr() + _Off + _Count,
; 1441 : 				this->_Myptr() + _Off + _N0,
; 1442 : 				_Nm);	// smaller hole, move tail up
; 1443 : 		size_type _Num;
; 1444 : 		if ((0 < _Count || 0 < _N0)
; 1445 : 			&& _Grow(_Num = this->_Mysize + _Count - _N0))
; 1446 : 			{	// make room and rearrange
; 1447 : 			if (_N0 < _Count)
; 1448 : 				_Traits::move(this->_Myptr() + _Off + _Count,
; 1449 : 					this->_Myptr() + _Off + _N0, _Nm);	// move tail down
; 1450 : 			_Traits::copy(this->_Myptr() + _Off, _Ptr, _Count);	// fill hole
; 1451 : 			_Eos(_Num);
; 1452 : 			}
; 1453 : 		return (*this);
; 1454 : 		}
; 1455 : 
; 1456 : 	_Myt& replace(size_type _Off, size_type _N0, const _Elem *_Ptr)
; 1457 : 		{	// replace [_Off, _Off + _N0) with [_Ptr, <null>)
; 1458 : 		_DEBUG_POINTER(_Ptr);
; 1459 : 		return (replace(_Off, _N0, _Ptr, _Traits::length(_Ptr)));
; 1460 : 		}
; 1461 : 
; 1462 : 	_Myt& replace(size_type _Off,
; 1463 : 		size_type _N0, size_type _Count, _Elem _Ch)
; 1464 : 		{	// replace [_Off, _Off + _N0) with _Count * _Ch
; 1465 : 		if (this->_Mysize < _Off)
; 1466 : 			_Xran();	// _Off off end
; 1467 : 		if (this->_Mysize - _Off < _N0)
; 1468 : 			_N0 = this->_Mysize - _Off;	// trim _N0 to size
; 1469 : 		if (npos - _Count <= this->_Mysize - _N0)
; 1470 : 			_Xlen();	// result too long
; 1471 : 		size_type _Nm = this->_Mysize - _N0 - _Off;
; 1472 : 
; 1473 : 		if (_Count < _N0)
; 1474 : 			_Traits::move(this->_Myptr() + _Off + _Count,
; 1475 : 				this->_Myptr() + _Off + _N0,
; 1476 : 				_Nm);	// smaller hole, move tail up
; 1477 : 		size_type _Num;
; 1478 : 		if ((0 < _Count || 0 < _N0)
; 1479 : 			&& _Grow(_Num = this->_Mysize + _Count - _N0))
; 1480 : 			{	// make room and rearrange
; 1481 : 			if (_N0 < _Count)
; 1482 : 				_Traits::move(this->_Myptr() + _Off + _Count,
; 1483 : 					this->_Myptr() + _Off + _N0, _Nm);	// move tail down
; 1484 : 			_Chassign(_Off, _Count, _Ch);	// fill hole
; 1485 : 			_Eos(_Num);
; 1486 : 			}
; 1487 : 		return (*this);
; 1488 : 		}
; 1489 : 
; 1490 : 	_Myt& replace(const_iterator _First, const_iterator _Last,
; 1491 : 		const _Myt& _Right)
; 1492 : 		{	// replace [_First, _Last) with _Right
; 1493 : 		return (replace(
; 1494 : 			_Pdif(_First, begin()), _Pdif(_Last, _First), _Right));
; 1495 : 		}
; 1496 : 
; 1497 : 	_Myt& replace(const_iterator _First, const_iterator _Last,
; 1498 : 		const _Elem *_Ptr, size_type _Count)
; 1499 : 		{	// replace [_First, _Last) with [_Ptr, _Ptr + _Count)
; 1500 : 		return (replace(
; 1501 : 			_Pdif(_First, begin()), _Pdif(_Last, _First), _Ptr, _Count));
; 1502 : 		}
; 1503 : 
; 1504 : 	_Myt& replace(const_iterator _First, const_iterator _Last,
; 1505 : 		const _Elem *_Ptr)
; 1506 : 		{	// replace [_First, _Last) with [_Ptr, <null>)
; 1507 : 		return (replace(
; 1508 : 			_Pdif(_First, begin()), _Pdif(_Last, _First), _Ptr));
; 1509 : 		}
; 1510 : 
; 1511 : 	_Myt& replace(const_iterator _First, const_iterator _Last,
; 1512 : 		size_type _Count, _Elem _Ch)
; 1513 : 		{	// replace [_First, _Last) with _Count * _Ch
; 1514 : 		return (replace(
; 1515 : 			_Pdif(_First, begin()), _Pdif(_Last, _First), _Count, _Ch));
; 1516 : 		}
; 1517 : 
; 1518 : 	template<class _Iter>
; 1519 : 		typename enable_if<_Is_iterator<_Iter>::value,
; 1520 : 			_Myt&>::type
; 1521 : 		replace(const_iterator _First, const_iterator _Last,
; 1522 : 			_Iter _First2, _Iter _Last2)
; 1523 : 		{	// replace [_First, _Last) with [_First2, _Last2), input iterators
; 1524 : 		_Myt _Right(_First2, _Last2);
; 1525 : 		replace(_First, _Last, _Right);
; 1526 : 		return (*this);
; 1527 : 		}
; 1528 : 
; 1529 : 	_Myt& replace(const_iterator _First, const_iterator _Last,
; 1530 : 		const_pointer _First2, const_pointer _Last2)
; 1531 : 		{	// replace [_First, _Last) with [_First2, _Last2), const pointers
; 1532 : 		if (_First2 == _Last2)
; 1533 : 			erase(_Pdif(_First, begin()), _Pdif(_Last, _First));
; 1534 : 		else
; 1535 : 			replace(_Pdif(_First, begin()), _Pdif(_Last, _First),
; 1536 : 				&*_First2, _Last2 - _First2);
; 1537 : 		return (*this);
; 1538 : 		}
; 1539 : 
; 1540 : 	_Myt& replace(const_iterator _First, const_iterator _Last,
; 1541 : 		pointer _First2, pointer _Last2)
; 1542 : 		{	// replace [_First, _Last) with [_First2, _Last2), const pointers
; 1543 : 		if (_First2 == _Last2)
; 1544 : 			erase(_Pdif(_First, begin()), _Pdif(_Last, _First));
; 1545 : 		else
; 1546 : 			replace(_Pdif(_First, begin()), _Pdif(_Last, _First),
; 1547 : 				&*_First2, _Last2 - _First2);
; 1548 : 		return (*this);
; 1549 : 		}
; 1550 : 
; 1551 : 	_Myt& replace(const_iterator _First, const_iterator _Last,
; 1552 : 		const_iterator _First2, const_iterator _Last2)
; 1553 : 		{	// replace [_First, _Last) with [_First2, _Last2), const_iterators
; 1554 : 		if (_First2 == _Last2)
; 1555 : 			erase(_Pdif(_First, begin()), _Pdif(_Last, _First));
; 1556 : 		else
; 1557 : 			replace(_Pdif(_First, begin()), _Pdif(_Last, _First),
; 1558 : 				&*_First2, _Last2 - _First2);
; 1559 : 		return (*this);
; 1560 : 		}
; 1561 : 
; 1562 : 	_Myt& replace(const_iterator _First, const_iterator _Last,
; 1563 : 		iterator _First2, iterator _Last2)
; 1564 : 		{	// replace [_First, _Last) with [_First2, _Last2), const_iterators
; 1565 : 		if (_First2 == _Last2)
; 1566 : 			erase(_Pdif(_First, begin()), _Pdif(_Last, _First));
; 1567 : 		else
; 1568 : 			replace(_Pdif(_First, begin()), _Pdif(_Last, _First),
; 1569 : 				&*_First2, _Last2 - _First2);
; 1570 : 		return (*this);
; 1571 : 		}
; 1572 : 
; 1573 : 	iterator begin() _NOEXCEPT
; 1574 : 		{	// return iterator for beginning of mutable sequence
; 1575 : 		return (_STRING_ITERATOR(this->_Myptr()));
; 1576 : 		}
; 1577 : 
; 1578 : 	const_iterator begin() const _NOEXCEPT
; 1579 : 		{	// return iterator for beginning of nonmutable sequence
; 1580 : 		return (_STRING_CONST_ITERATOR(this->_Myptr()));
; 1581 : 		}
; 1582 : 
; 1583 : 	iterator end() _NOEXCEPT
; 1584 : 		{	// return iterator for end of mutable sequence
; 1585 : 		return (_STRING_ITERATOR(this->_Myptr() + this->_Mysize));
; 1586 : 		}
; 1587 : 
; 1588 : 	const_iterator end() const _NOEXCEPT
; 1589 : 		{	// return iterator for end of nonmutable sequence
; 1590 : 		return (_STRING_CONST_ITERATOR(this->_Myptr() + this->_Mysize));
; 1591 : 		}
; 1592 : 
; 1593 : 	reverse_iterator rbegin() _NOEXCEPT
; 1594 : 		{	// return iterator for beginning of reversed mutable sequence
; 1595 : 		return (reverse_iterator(end()));
; 1596 : 		}
; 1597 : 
; 1598 : 	const_reverse_iterator rbegin() const _NOEXCEPT
; 1599 : 		{	// return iterator for beginning of reversed nonmutable sequence
; 1600 : 		return (const_reverse_iterator(end()));
; 1601 : 		}
; 1602 : 
; 1603 : 	reverse_iterator rend() _NOEXCEPT
; 1604 : 		{	// return iterator for end of reversed mutable sequence
; 1605 : 		return (reverse_iterator(begin()));
; 1606 : 		}
; 1607 : 
; 1608 : 	const_reverse_iterator rend() const _NOEXCEPT
; 1609 : 		{	// return iterator for end of reversed nonmutable sequence
; 1610 : 		return (const_reverse_iterator(begin()));
; 1611 : 		}
; 1612 : 
; 1613 :  #if _HAS_CPP0X
; 1614 : 	const_iterator cbegin() const _NOEXCEPT
; 1615 : 		{	// return iterator for beginning of nonmutable sequence
; 1616 : 		return (((const _Myt *)this)->begin());
; 1617 : 		}
; 1618 : 
; 1619 : 	const_iterator cend() const _NOEXCEPT
; 1620 : 		{	// return iterator for end of nonmutable sequence
; 1621 : 		return (((const _Myt *)this)->end());
; 1622 : 		}
; 1623 : 
; 1624 : 	const_reverse_iterator crbegin() const _NOEXCEPT
; 1625 : 		{	// return iterator for beginning of reversed nonmutable sequence
; 1626 : 		return (((const _Myt *)this)->rbegin());
; 1627 : 		}
; 1628 : 
; 1629 : 	const_reverse_iterator crend() const _NOEXCEPT
; 1630 : 		{	// return iterator for end of reversed nonmutable sequence
; 1631 : 		return (((const _Myt *)this)->rend());
; 1632 : 		}
; 1633 : 
; 1634 : 	void shrink_to_fit()
; 1635 : 		{	// reduce capacity
; 1636 : 		if ((size() | this->_ALLOC_MASK) < capacity())
; 1637 : 			{	// worth shrinking, do it
; 1638 : 			_Myt _Tmp(*this);
; 1639 : 			swap(_Tmp);
; 1640 : 			}
; 1641 : 		}
; 1642 :  #endif /* _HAS_CPP0X */
; 1643 : 
; 1644 : 	reference at(size_type _Off)
; 1645 : 		{	// subscript mutable sequence with checking
; 1646 : 		if (this->_Mysize <= _Off)
; 1647 : 			_Xran();	// _Off off end
; 1648 : 		return (this->_Myptr()[_Off]);
; 1649 : 		}
; 1650 : 
; 1651 : 	const_reference at(size_type _Off) const
; 1652 : 		{	// subscript nonmutable sequence with checking
; 1653 : 		if (this->_Mysize <= _Off)
; 1654 : 			_Xran();	// _Off off end
; 1655 : 		return (this->_Myptr()[_Off]);
; 1656 : 		}
; 1657 : 
; 1658 : 	reference operator[](size_type _Off)
; 1659 : 		{	// subscript mutable sequence
; 1660 :  #if _ITERATOR_DEBUG_LEVEL == 2
; 1661 : 		if (this->_Mysize < _Off)	// sic
; 1662 : 			_DEBUG_ERROR("string subscript out of range");
; 1663 : 
; 1664 :  #elif _ITERATOR_DEBUG_LEVEL == 1
; 1665 : 		_SCL_SECURE_VALIDATE_RANGE(_Off <= this->_Mysize);	// sic
; 1666 :  #endif /* _ITERATOR_DEBUG_LEVEL == 2 */
; 1667 : 
; 1668 : 		return (this->_Myptr()[_Off]);
; 1669 : 		}
; 1670 : 
; 1671 : 	const_reference operator[](size_type _Off) const
; 1672 : 		{	// subscript nonmutable sequence
; 1673 :  #if _ITERATOR_DEBUG_LEVEL == 2
; 1674 : 		if (this->_Mysize < _Off)	// sic
; 1675 : 			_DEBUG_ERROR("string subscript out of range");
; 1676 : 
; 1677 :  #elif _ITERATOR_DEBUG_LEVEL == 1
; 1678 : 		_SCL_SECURE_VALIDATE_RANGE(_Off <= this->_Mysize);	// sic
; 1679 :  #endif /* _ITERATOR_DEBUG_LEVEL == 2 */
; 1680 : 
; 1681 : 		return (this->_Myptr()[_Off]);
; 1682 : 		}
; 1683 : 
; 1684 : 	void push_back(_Elem _Ch)
; 1685 : 		{	// insert element at end
; 1686 : 		insert(end(), _Ch);
; 1687 : 		}
; 1688 : 
; 1689 :  #if _HAS_CPP0X
; 1690 : 	void pop_back()
; 1691 : 		{	// erase element at end
; 1692 : 		erase(this->_Mysize - 1);	// throws if _Mysize == 0
; 1693 : 		}
; 1694 : 
; 1695 : 	reference front()
; 1696 : 		{	// return first element of mutable sequence
; 1697 : 		return (*begin());
; 1698 : 		}
; 1699 : 
; 1700 : 	const_reference front() const
; 1701 : 		{	// return first element of nonmutable sequence
; 1702 : 		return (*begin());
; 1703 : 		}
; 1704 : 
; 1705 : 	reference back()
; 1706 : 		{	// return last element of mutable sequence
; 1707 : 		return (*(end() - 1));
; 1708 : 		}
; 1709 : 
; 1710 : 	const_reference back() const
; 1711 : 		{	// return last element of nonmutable sequence
; 1712 : 		return (*(end() - 1));
; 1713 : 		}
; 1714 :  #endif /* _HAS_CPP0X */
; 1715 : 
; 1716 : 	const _Elem *c_str() const _NOEXCEPT
; 1717 : 		{	// return pointer to null-terminated nonmutable array
; 1718 : 		return (this->_Myptr());
; 1719 : 		}
; 1720 : 
; 1721 : 	const _Elem *data() const _NOEXCEPT
; 1722 : 		{	// return pointer to nonmutable array
; 1723 : 		return (c_str());
; 1724 : 		}
; 1725 : 
; 1726 : 	size_type length() const _NOEXCEPT
; 1727 : 		{	// return length of sequence
; 1728 : 		return (this->_Mysize);
; 1729 : 		}
; 1730 : 
; 1731 : 	size_type size() const _NOEXCEPT
; 1732 : 		{	// return length of sequence
; 1733 : 		return (this->_Mysize);
; 1734 : 		}
; 1735 : 
; 1736 : 	size_type max_size() const _NOEXCEPT
; 1737 : 		{	// return maximum possible length of sequence
; 1738 : 		size_type _Num = this->_Getal().max_size();
; 1739 : 		return (_Num <= 1 ? 1 : _Num - 1);
; 1740 : 		}
; 1741 : 
; 1742 : 	void resize(size_type _Newsize)
; 1743 : 		{	// determine new length, padding with null elements as needed
; 1744 : 		resize(_Newsize, _Elem());
; 1745 : 		}
; 1746 : 
; 1747 : 	void resize(size_type _Newsize, _Elem _Ch)
; 1748 : 		{	// determine new length, padding with _Ch elements as needed
; 1749 : 		if (_Newsize <= this->_Mysize)
; 1750 : 			_Eos(_Newsize);
; 1751 : 		else
; 1752 : 			append(_Newsize - this->_Mysize, _Ch);
; 1753 : 		}
; 1754 : 
; 1755 : 	size_type capacity() const _NOEXCEPT
; 1756 : 		{	// return current length of allocated storage
; 1757 : 		return (this->_Myres);
; 1758 : 		}
; 1759 : 
; 1760 : 	void reserve(size_type _Newcap = 0)
; 1761 : 		{	// determine new minimum length of allocated storage
; 1762 : 		if (this->_Mysize <= _Newcap && this->_Myres != _Newcap)
; 1763 : 			{	// change reservation
; 1764 : 			size_type _Size = this->_Mysize;
; 1765 : 			if (_Grow(_Newcap, true))
; 1766 : 				_Eos(_Size);
; 1767 : 			}
; 1768 : 		}
; 1769 : 
; 1770 : 	bool empty() const _NOEXCEPT
; 1771 : 		{	// test if sequence is empty
; 1772 : 		return (this->_Mysize == 0);
; 1773 : 		}
; 1774 : 
; 1775 : 	_SCL_INSECURE_DEPRECATE
; 1776 : 
; 1777 : 	size_type copy(_Elem *_Ptr,
; 1778 : 		size_type _Count, size_type _Off = 0) const
; 1779 : 		{	// copy [_Off, _Off + _Count) to [_Ptr, _Ptr + _Count)
; 1780 :  #if _ITERATOR_DEBUG_LEVEL == 2
; 1781 : 		if (_Count != 0)
; 1782 : 			_DEBUG_POINTER(_Ptr);
; 1783 :  #endif /* _ITERATOR_DEBUG_LEVEL == 2 */
; 1784 : 
; 1785 : 		if (this->_Mysize < _Off)
; 1786 : 			_Xran();	// _Off off end
; 1787 : 		if (this->_Mysize - _Off < _Count)
; 1788 : 			_Count = this->_Mysize - _Off;
; 1789 : 		_Traits::copy(_Ptr, this->_Myptr() + _Off, _Count);
; 1790 : 		return (_Count);
; 1791 : 		}
; 1792 : 
; 1793 : 	size_type _Copy_s(_Elem *_Dest, size_type _Dest_size,
; 1794 : 		size_type _Count, size_type _Off = 0) const
; 1795 : 		{	// copy [_Off, _Off + _Count) to [_Dest, _Dest + _Count)
; 1796 :  #if _ITERATOR_DEBUG_LEVEL == 2
; 1797 : 		if (_Count != 0)
; 1798 : 			_DEBUG_POINTER(_Dest);
; 1799 :  #endif /* _ITERATOR_DEBUG_LEVEL == 2 */
; 1800 : 
; 1801 : 		if (this->_Mysize < _Off)
; 1802 : 			_Xran();	// _Off off end
; 1803 : 		if (this->_Mysize - _Off < _Count)
; 1804 : 			_Count = this->_Mysize - _Off;
; 1805 : 		_Traits::_Copy_s(_Dest, _Dest_size, this->_Myptr() + _Off, _Count);
; 1806 : 		return (_Count);
; 1807 : 		}
; 1808 : 
; 1809 : 	void _Swap_bx(_Myt& _Right)
; 1810 : 		{	// exchange _Bx with _Right._Bx
; 1811 : 		if (this->_BUF_SIZE <= this->_Myres)
; 1812 : 			if (this->_BUF_SIZE <= _Right._Myres)
; 1813 : 				_Swap_adl(this->_Bx._Ptr, _Right._Bx._Ptr);
; 1814 : 			else
; 1815 : 				{	// swap large with small
; 1816 : 				pointer _Ptr = this->_Bx._Ptr;
; 1817 : 				this->_Getal().destroy(&this->_Bx._Ptr);
; 1818 : 				_Traits::copy(this->_Bx._Buf,
; 1819 : 					_Right._Bx._Buf, _Right._Mysize + 1);
; 1820 : 				this->_Getal().construct(&_Right._Bx._Ptr, _Ptr);
; 1821 : 				}
; 1822 : 		else
; 1823 : 			if (_Right._Myres < this->_BUF_SIZE)
; 1824 : 				_STD swap(this->_Bx._Buf, _Right._Bx._Buf);
; 1825 : 			else
; 1826 : 				{	// swap small with large
; 1827 : 				pointer _Ptr = _Right._Bx._Ptr;
; 1828 : 				this->_Getal().destroy(&_Right._Bx._Ptr);
; 1829 : 				_Traits::copy(_Right._Bx._Buf,
; 1830 : 					this->_Bx._Buf, this->_Mysize + 1);
; 1831 : 				this->_Getal().construct(&this->_Bx._Ptr, _Ptr);
; 1832 : 				}
; 1833 : 		}
; 1834 : 
; 1835 : 	void swap(_Myt& _Right)
; 1836 : 		{	// exchange contents with _Right
; 1837 : 		if (this == &_Right)
; 1838 : 			;	// same object, do nothing
; 1839 : 		else if (this->_Getal() == _Right._Getal())
; 1840 : 			{	// same allocator, swap control information
; 1841 : 			this->_Swap_all(_Right);
; 1842 : 			_Swap_bx(_Right);
; 1843 : 			_STD swap(this->_Mysize, _Right._Mysize);
; 1844 : 			_STD swap(this->_Myres, _Right._Myres);
; 1845 : 			}
; 1846 : 
; 1847 :  #if _HAS_CPP0X
; 1848 : 		else if (_Alty::propagate_on_container_swap::value)
; 1849 : 			{	// swap allocators and control information
; 1850 : 			this->_Swap_alloc(_Right);
; 1851 : 			_Swap_bx(_Right);
; 1852 : 			_STD swap(this->_Bx, _Right._Bx);	// pointer bitwise copyable?
; 1853 : 			_STD swap(this->_Mysize, _Right._Mysize);
; 1854 : 			_STD swap(this->_Myres, _Right._Myres);
; 1855 : 			}
; 1856 :  #endif /* _HAS_CPP0X */
; 1857 : 
; 1858 : 		else
; 1859 : 			{	// different allocator, do multiple assigns
; 1860 : 			_Myt _Tmp = *this;
; 1861 : 
; 1862 : 			*this = _Right;
; 1863 : 			_Right = _Tmp;
; 1864 : 			}
; 1865 : 		}
; 1866 : 
; 1867 : 	size_type find(const _Myt& _Right, size_type _Off = 0) const _NOEXCEPT
; 1868 : 		{	// look for _Right beginning at or after _Off
; 1869 : 		return (find(_Right._Myptr(), _Off, _Right.size()));
; 1870 : 		}
; 1871 : 
; 1872 : 	size_type find(const _Elem *_Ptr,
; 1873 : 		size_type _Off, size_type _Count) const
; 1874 : 		{	// look for [_Ptr, _Ptr + _Count) beginning at or after _Off
; 1875 :  #if _ITERATOR_DEBUG_LEVEL == 2
; 1876 : 		if (_Count != 0)
; 1877 : 			_DEBUG_POINTER(_Ptr);
; 1878 :  #endif /* _ITERATOR_DEBUG_LEVEL == 2 */
; 1879 : 
; 1880 : 		if (_Count == 0 && _Off <= this->_Mysize)
; 1881 : 			return (_Off);	// null string always matches (if inside string)
; 1882 : 
; 1883 : 		size_type _Nm;
; 1884 : 		if (_Off < this->_Mysize && _Count <= (_Nm = this->_Mysize - _Off))
; 1885 : 			{	// room for match, look for it
; 1886 : 			const _Elem *_Uptr, *_Vptr;
; 1887 : 			for (_Nm -= _Count - 1, _Vptr = this->_Myptr() + _Off;
; 1888 : 				(_Uptr = _Traits::find(_Vptr, _Nm, *_Ptr)) != 0;
; 1889 : 				_Nm -= _Uptr - _Vptr + 1, _Vptr = _Uptr + 1)
; 1890 : 				if (_Traits::compare(_Uptr, _Ptr, _Count) == 0)
; 1891 : 					return (_Uptr - this->_Myptr());	// found a match
; 1892 : 			}
; 1893 : 
; 1894 : 		return (npos);	// no match
; 1895 : 		}
; 1896 : 
; 1897 : 	size_type find(const _Elem *_Ptr, size_type _Off = 0) const
; 1898 : 		{	// look for [_Ptr, <null>) beginning at or after _Off
; 1899 : 		_DEBUG_POINTER(_Ptr);
; 1900 : 		return (find(_Ptr, _Off, _Traits::length(_Ptr)));
; 1901 : 		}
; 1902 : 
; 1903 : 	size_type find(_Elem _Ch, size_type _Off = 0) const
; 1904 : 		{	// look for _Ch at or after _Off
; 1905 : 		return (find((const _Elem *)&_Ch, _Off, 1));
; 1906 : 		}
; 1907 : 
; 1908 : 	size_type rfind(const _Myt& _Right, size_type _Off = npos) const _NOEXCEPT
; 1909 : 		{	// look for _Right beginning before _Off
; 1910 : 		return (rfind(_Right._Myptr(), _Off, _Right.size()));
; 1911 : 		}
; 1912 : 
; 1913 : 	size_type rfind(const _Elem *_Ptr,
; 1914 : 		size_type _Off, size_type _Count) const
; 1915 : 		{	// look for [_Ptr, _Ptr + _Count) beginning before _Off
; 1916 :  #if _ITERATOR_DEBUG_LEVEL == 2
; 1917 : 		if (_Count != 0)
; 1918 : 			_DEBUG_POINTER(_Ptr);
; 1919 :  #endif /* _ITERATOR_DEBUG_LEVEL == 2 */
; 1920 : 
; 1921 : 		if (_Count == 0)
; 1922 : 			return (_Off < this->_Mysize ? _Off
; 1923 : 				: this->_Mysize);	// null always matches
; 1924 : 		if (_Count <= this->_Mysize)
; 1925 : 			{	// room for match, look for it
; 1926 : 			const _Elem *_Uptr = this->_Myptr() +
; 1927 : 				(_Off < this->_Mysize - _Count ? _Off
; 1928 : 					: this->_Mysize - _Count);
; 1929 : 			for (; ; --_Uptr)
; 1930 : 				if (_Traits::eq(*_Uptr, *_Ptr)
; 1931 : 					&& _Traits::compare(_Uptr, _Ptr, _Count) == 0)
; 1932 : 					return (_Uptr - this->_Myptr());	// found a match
; 1933 : 				else if (_Uptr == this->_Myptr())
; 1934 : 					break;	// at beginning, no more chance for match
; 1935 : 			}
; 1936 : 
; 1937 : 		return (npos);	// no match
; 1938 : 		}
; 1939 : 
; 1940 : 	size_type rfind(const _Elem *_Ptr, size_type _Off = npos) const
; 1941 : 		{	// look for [_Ptr, <null>) beginning before _Off
; 1942 : 		_DEBUG_POINTER(_Ptr);
; 1943 : 		return (rfind(_Ptr, _Off, _Traits::length(_Ptr)));
; 1944 : 		}
; 1945 : 
; 1946 : 	size_type rfind(_Elem _Ch, size_type _Off = npos) const
; 1947 : 		{	// look for _Ch before _Off
; 1948 : 		return (rfind((const _Elem *)&_Ch, _Off, 1));
; 1949 : 		}
; 1950 : 
; 1951 : 	size_type find_first_of(const _Myt& _Right,
; 1952 : 		size_type _Off = 0) const _NOEXCEPT
; 1953 : 		{	// look for one of _Right at or after _Off
; 1954 : 		return (find_first_of(_Right._Myptr(), _Off, _Right.size()));
; 1955 : 		}
; 1956 : 
; 1957 : 	size_type find_first_of(const _Elem *_Ptr,
; 1958 : 		size_type _Off, size_type _Count) const
; 1959 : 		{	// look for one of [_Ptr, _Ptr + _Count) at or after _Off
; 1960 :  #if _ITERATOR_DEBUG_LEVEL == 2
; 1961 : 		if (_Count != 0)
; 1962 : 			_DEBUG_POINTER(_Ptr);
; 1963 :  #endif /* _ITERATOR_DEBUG_LEVEL == 2 */
; 1964 : 
; 1965 : 		if (0 < _Count && _Off < this->_Mysize)
; 1966 : 			{	// room for match, look for it
; 1967 : 			const _Elem *const _Vptr = this->_Myptr() + this->_Mysize;
; 1968 : 			for (const _Elem *_Uptr = this->_Myptr() + _Off;
; 1969 : 				_Uptr < _Vptr; ++_Uptr)
; 1970 : 				if (_Traits::find(_Ptr, _Count, *_Uptr) != 0)
; 1971 : 					return (_Uptr - this->_Myptr());	// found a match
; 1972 : 			}
; 1973 : 
; 1974 : 		return (npos);	// no match
; 1975 : 		}
; 1976 : 
; 1977 : 	size_type find_first_of(const _Elem *_Ptr,
; 1978 : 		size_type _Off = 0) const
; 1979 : 		{	// look for one of [_Ptr, <null>) at or after _Off
; 1980 : 		_DEBUG_POINTER(_Ptr);
; 1981 : 		return (find_first_of(_Ptr, _Off, _Traits::length(_Ptr)));
; 1982 : 		}
; 1983 : 
; 1984 : 	size_type find_first_of(_Elem _Ch,
; 1985 : 		size_type _Off = 0) const
; 1986 : 		{	// look for _Ch at or after _Off
; 1987 : 		return (find((const _Elem *)&_Ch, _Off, 1));
; 1988 : 		}
; 1989 : 
; 1990 : 	size_type find_last_of(const _Myt& _Right,
; 1991 : 		size_type _Off = npos) const _NOEXCEPT
; 1992 : 		{	// look for one of _Right before _Off
; 1993 : 		return (find_last_of(_Right._Myptr(), _Off, _Right.size()));
; 1994 : 		}
; 1995 : 
; 1996 : 	size_type find_last_of(const _Elem *_Ptr,
; 1997 : 		size_type _Off, size_type _Count) const
; 1998 : 		{	// look for one of [_Ptr, _Ptr + _Count) before _Off
; 1999 :  #if _ITERATOR_DEBUG_LEVEL == 2
; 2000 : 		if (_Count != 0)
; 2001 : 			_DEBUG_POINTER(_Ptr);
; 2002 :  #endif /* _ITERATOR_DEBUG_LEVEL == 2 */
; 2003 : 
; 2004 : 		if (0 < _Count && 0 < this->_Mysize)
; 2005 : 			{	// worth searching, do it
; 2006 : 			const _Elem *_Uptr = this->_Myptr()
; 2007 : 				+ (_Off < this->_Mysize ? _Off : this->_Mysize - 1);
; 2008 : 			for (; ; --_Uptr)
; 2009 : 				if (_Traits::find(_Ptr, _Count, *_Uptr) != 0)
; 2010 : 					return (_Uptr - this->_Myptr());	// found a match
; 2011 : 				else if (_Uptr == this->_Myptr())
; 2012 : 					break;	// at beginning, no more chance for match
; 2013 : 			}
; 2014 : 
; 2015 : 		return (npos);	// no match
; 2016 : 		}
; 2017 : 
; 2018 : 	size_type find_last_of(const _Elem *_Ptr,
; 2019 : 		size_type _Off = npos) const
; 2020 : 		{	// look for one of [_Ptr, <null>) before _Off
; 2021 : 		_DEBUG_POINTER(_Ptr);
; 2022 : 		return (find_last_of(_Ptr, _Off, _Traits::length(_Ptr)));

  00079	48 8d 4c 24 20	 lea	 rcx, QWORD PTR $T1[rsp]
  0007e	41 b9 02 00 00
	00		 mov	 r9d, 2
  00084	e8 00 00 00 00	 call	 ?find_last_of@?$basic_string@_WU?$char_traits@_W@std@@V?$allocator@_W@2@@std@@QEBA_KPEB_W_K1@Z ; std::basic_string<wchar_t,std::char_traits<wchar_t>,std::allocator<wchar_t> >::find_last_of

; 2219 : 		}
; 2220 : 
; 2221 : 	bool _Grow(size_type _Newsize,
; 2222 : 		bool _Trim = false)
; 2223 : 		{	// ensure buffer is big enough, trim to size if _Trim is true
; 2224 : 		if (max_size() < _Newsize)
; 2225 : 			_Xlen();	// result too long
; 2226 : 		if (this->_Myres < _Newsize)
; 2227 : 			_Copy(_Newsize, this->_Mysize);	// reallocate to grow
; 2228 : 		else if (_Trim && _Newsize < this->_BUF_SIZE)
; 2229 : 			_Tidy(true,	// copy and deallocate if trimming to small string
; 2230 : 				_Newsize < this->_Mysize ? _Newsize : this->_Mysize);
; 2231 : 		else if (_Newsize == 0)
; 2232 : 			_Eos(0);	// new size is zero, just null terminate
; 2233 : 		return (0 < _Newsize);	// return true only if more work to do
; 2234 : 		}
; 2235 : 
; 2236 : 	bool _Inside(const _Elem *_Ptr)
; 2237 : 		{	// test if _Ptr points inside string
; 2238 : 		if (_Ptr == 0 || _Ptr < this->_Myptr()
; 2239 : 			|| this->_Myptr() + this->_Mysize <= _Ptr)
; 2240 : 			return (false);	// don't ask
; 2241 : 		else
; 2242 : 			return (true);
; 2243 : 		}
; 2244 : 
; 2245 : 	static size_type _Pdif(const_iterator _P2,
; 2246 : 		const_iterator _P1)
; 2247 : 		{	// compute safe iterator difference
; 2248 : 		return (_STRING_ITER_BASE(_P2) == 0 ? 0 : _P2 - _P1);
; 2249 : 		}
; 2250 : 
; 2251 : 	void _Tidy(bool _Built = false,
; 2252 : 		size_type _Newsize = 0)
; 2253 : 		{	// initialize buffer, deallocating any storage
; 2254 : 		if (!_Built)
; 2255 : 			;
; 2256 : 		else if (this->_BUF_SIZE <= this->_Myres)

  00089	48 83 7c 24 38
	08		 cmp	 QWORD PTR $T1[rsp+24], 8

; 1145 : 		}
; 1146 : 
; 1147 : 	_Myt& assign(size_type _Count, _Elem _Ch)
; 1148 : 		{	// assign _Count * _Ch
; 1149 : 		if (_Count == npos)
; 1150 : 			_Xlen();	// result too long
; 1151 : 
; 1152 : 		if (_Grow(_Count))
; 1153 : 			{	// make room and assign new stuff
; 1154 : 			_Chassign(0, _Count, _Ch);
; 1155 : 			_Eos(_Count);
; 1156 : 			}
; 1157 : 		return (*this);
; 1158 : 		}
; 1159 : 
; 1160 : 	template<class _Iter>
; 1161 : 		typename enable_if<_Is_iterator<_Iter>::value,
; 1162 : 			_Myt&>::type
; 1163 : 		assign(_Iter _First, _Iter _Last)
; 1164 : 		{	// assign [First, _Last), input iterators
; 1165 : 		return (replace(begin(), end(), _First, _Last));
; 1166 : 		}
; 1167 : 
; 1168 : 	_Myt& assign(const_pointer _First, const_pointer _Last)
; 1169 : 		{	// assign [First, _Last), const pointers
; 1170 : 		return (replace(begin(), end(), _First, _Last));
; 1171 : 		}
; 1172 : 
; 1173 : 	_Myt& assign(const_iterator _First, const_iterator _Last)
; 1174 : 		{	// assign [First, _Last), const_iterators
; 1175 : 		return (replace(begin(), end(), _First, _Last));
; 1176 : 		}
; 1177 : 
; 1178 : 	_Myt& insert(size_type _Off, const _Myt& _Right)
; 1179 : 		{	// insert _Right at _Off
; 1180 : 		return (insert(_Off, _Right, 0, npos));
; 1181 : 		}
; 1182 : 
; 1183 : 	_Myt& insert(size_type _Off,
; 1184 : 		const _Myt& _Right, size_type _Roff, size_type _Count)
; 1185 : 		{	// insert _Right [_Roff, _Roff + _Count) at _Off
; 1186 : 		if (this->_Mysize < _Off || _Right.size() < _Roff)
; 1187 : 			_Xran();	// _Off or _Roff off end
; 1188 : 		size_type _Num = _Right.size() - _Roff;
; 1189 : 		if (_Num < _Count)
; 1190 : 			_Count = _Num;	// trim _Count to size
; 1191 : 		if (npos - this->_Mysize <= _Count)
; 1192 : 			_Xlen();	// result too long
; 1193 : 
; 1194 : 		if (0 < _Count && _Grow(_Num = this->_Mysize + _Count))
; 1195 : 			{	// make room and insert new stuff
; 1196 : 			_Traits::move(this->_Myptr() + _Off + _Count,
; 1197 : 				this->_Myptr() + _Off,
; 1198 : 				this->_Mysize - _Off);	// empty out hole
; 1199 : 			if (this == &_Right)
; 1200 : 				_Traits::move(this->_Myptr() + _Off,
; 1201 : 					this->_Myptr() + (_Off < _Roff ? _Roff + _Count : _Roff),
; 1202 : 						_Count);	// substring
; 1203 : 			else
; 1204 : 				_Traits::copy(this->_Myptr() + _Off,
; 1205 : 					_Right._Myptr() + _Roff, _Count);	// fill hole
; 1206 : 			_Eos(_Num);
; 1207 : 			}
; 1208 : 		return (*this);
; 1209 : 		}
; 1210 : 
; 1211 : 	_Myt& insert(size_type _Off,
; 1212 : 		const _Elem *_Ptr, size_type _Count)
; 1213 : 		{	// insert [_Ptr, _Ptr + _Count) at _Off
; 1214 :  #if _ITERATOR_DEBUG_LEVEL == 2
; 1215 : 		if (_Count != 0)
; 1216 : 			_DEBUG_POINTER(_Ptr);
; 1217 :  #endif /* _ITERATOR_DEBUG_LEVEL == 2 */
; 1218 : 
; 1219 : 		if (_Inside(_Ptr))
; 1220 : 			return (insert(_Off, *this,
; 1221 : 				_Ptr - this->_Myptr(), _Count));	// substring
; 1222 : 		if (this->_Mysize < _Off)
; 1223 : 			_Xran();	// _Off off end
; 1224 : 		if (npos - this->_Mysize <= _Count)
; 1225 : 			_Xlen();	// result too long
; 1226 : 		size_type _Num;
; 1227 : 		if (0 < _Count && _Grow(_Num = this->_Mysize + _Count))
; 1228 : 			{	// make room and insert new stuff
; 1229 : 			_Traits::move(this->_Myptr() + _Off + _Count,
; 1230 : 				this->_Myptr() + _Off,
; 1231 : 				this->_Mysize - _Off);	// empty out hole
; 1232 : 			_Traits::copy(this->_Myptr() + _Off, _Ptr, _Count);	// fill hole
; 1233 : 			_Eos(_Num);
; 1234 : 			}
; 1235 : 		return (*this);
; 1236 : 		}
; 1237 : 
; 1238 : 	_Myt& insert(size_type _Off, const _Elem *_Ptr)
; 1239 : 		{	// insert [_Ptr, <null>) at _Off
; 1240 : 		_DEBUG_POINTER(_Ptr);
; 1241 : 		return (insert(_Off, _Ptr, _Traits::length(_Ptr)));
; 1242 : 		}
; 1243 : 
; 1244 : 	_Myt& insert(size_type _Off,
; 1245 : 		size_type _Count, _Elem _Ch)
; 1246 : 		{	// insert _Count * _Ch at _Off
; 1247 : 		if (this->_Mysize < _Off)
; 1248 : 			_Xran();	// _Off off end
; 1249 : 		if (npos - this->_Mysize <= _Count)
; 1250 : 			_Xlen();	// result too long
; 1251 : 		size_type _Num;
; 1252 : 		if (0 < _Count && _Grow(_Num = this->_Mysize + _Count))
; 1253 : 			{	// make room and insert new stuff
; 1254 : 			_Traits::move(this->_Myptr() + _Off + _Count,
; 1255 : 				this->_Myptr() + _Off,
; 1256 : 				this->_Mysize - _Off);	// empty out hole
; 1257 : 			_Chassign(_Off, _Count, _Ch);	// fill hole
; 1258 : 			_Eos(_Num);
; 1259 : 			}
; 1260 : 		return (*this);
; 1261 : 		}
; 1262 : 
; 1263 : 	iterator insert(const_iterator _Where)
; 1264 : 		{	// insert <null> at _Where
; 1265 : 		return (insert(_Where, _Elem()));
; 1266 : 		}
; 1267 : 
; 1268 : 	iterator insert(const_iterator _Where, _Elem _Ch)
; 1269 : 		{	// insert _Ch at _Where
; 1270 : 		size_type _Off = _Pdif(_Where, begin());
; 1271 : 		insert(_Off, 1, _Ch);
; 1272 : 		return (begin() + _Off);
; 1273 : 		}
; 1274 : 
; 1275 : 	iterator insert(const_iterator _Where, size_type _Count, _Elem _Ch)
; 1276 : 		{	// insert _Count * _Elem at _Where
; 1277 : 		size_type _Off = _Pdif(_Where, begin());
; 1278 : 		insert(_Off, _Count, _Ch);
; 1279 : 		return (begin() + _Off);
; 1280 : 		}
; 1281 : 
; 1282 : 	template<class _Iter>
; 1283 : 		typename enable_if<_Is_iterator<_Iter>::value,
; 1284 : 			iterator>::type
; 1285 : 		insert(const_iterator _Where, _Iter _First, _Iter _Last)
; 1286 : 		{	// insert [_First, _Last) at _Where, input iterators
; 1287 : 		size_type _Off = _Pdif(_Where, begin());
; 1288 : 		replace(_Where, _Where, _First, _Last);
; 1289 : 		return (begin() + _Off);
; 1290 : 		}
; 1291 : 
; 1292 : 	iterator insert(const_iterator _Where,
; 1293 : 		const_pointer _First, const_pointer _Last)
; 1294 : 		{	// insert [_First, _Last) at _Where, const pointers
; 1295 : 		size_type _Off = _Pdif(_Where, begin());
; 1296 : 		replace(_Where, _Where, _First, _Last);
; 1297 : 		return (begin() + _Off);
; 1298 : 		}
; 1299 : 
; 1300 : 	iterator insert(const_iterator _Where,
; 1301 : 		const_iterator _First, const_iterator _Last)
; 1302 : 		{	// insert [_First, _Last) at _Where, const_iterators
; 1303 : 		size_type _Off = _Pdif(_Where, begin());
; 1304 : 		replace(_Where, _Where, _First, _Last);
; 1305 : 		return (begin() + _Off);
; 1306 : 		}
; 1307 : 
; 1308 : 	_Myt& erase(size_type _Off = 0)
; 1309 : 		{	// erase elements [_Off, ...)
; 1310 : 		if (this->_Mysize < _Off)
; 1311 : 			_Xran();	// _Off off end
; 1312 : 		_Eos(_Off);
; 1313 : 		return (*this);
; 1314 : 		}
; 1315 : 
; 1316 : 	_Myt& erase(size_type _Off, size_type _Count)
; 1317 : 		{	// erase elements [_Off, _Off + _Count)
; 1318 : 		if (this->_Mysize < _Off)
; 1319 : 			_Xran();	// _Off off end
; 1320 : 		if (this->_Mysize - _Off <= _Count)
; 1321 : 			_Eos(_Off);	// erase elements [_Off, ...)
; 1322 : 		else if (0 < _Count)
; 1323 : 			{	// move elements down
; 1324 : 			value_type *_Ptr = this->_Myptr() + _Off;
; 1325 : 			size_type _Newsize = this->_Mysize - _Count;
; 1326 : 			_Traits::move(_Ptr, _Ptr + _Count, _Newsize - _Off);
; 1327 : 			_Eos(_Newsize);
; 1328 : 			}
; 1329 : 		return (*this);
; 1330 : 		}
; 1331 : 
; 1332 : 	iterator erase(const_iterator _Where)
; 1333 : 		{	// erase element at _Where
; 1334 : 		size_type _Count = _Pdif(_Where, begin());
; 1335 : 		erase(_Count, 1);
; 1336 : 		return (_STRING_ITERATOR(this->_Myptr() + _Count));
; 1337 : 		}
; 1338 : 
; 1339 : 	iterator erase(const_iterator _First, const_iterator _Last)
; 1340 : 		{	// erase substring [_First, _Last)
; 1341 : 		_DEBUG_RANGE(_First, _Last);
; 1342 : 		size_type _Count = _Pdif(_First, begin());
; 1343 : 		erase(_Count, _Pdif(_Last, _First));
; 1344 : 		return (_STRING_ITERATOR(this->_Myptr() + _Count));
; 1345 : 		}
; 1346 : 
; 1347 : 	void clear() _NOEXCEPT
; 1348 : 		{	// erase all
; 1349 : 		_Eos(0);
; 1350 : 		}
; 1351 : 
; 1352 : 	_Myt& replace(size_type _Off, size_type _N0, const _Myt& _Right)
; 1353 : 		{	// replace [_Off, _Off + _N0) with _Right
; 1354 : 		return (replace(_Off, _N0, _Right, 0, npos));
; 1355 : 		}
; 1356 : 
; 1357 : 	_Myt& replace(size_type _Off,
; 1358 : 		size_type _N0, const _Myt& _Right, size_type _Roff, size_type _Count)
; 1359 : 		{	// replace [_Off, _Off + _N0) with _Right [_Roff, _Roff + _Count)
; 1360 : 		if (this->_Mysize < _Off || _Right.size() < _Roff)
; 1361 : 			_Xran();	// _Off or _Roff off end
; 1362 : 		if (this->_Mysize - _Off < _N0)
; 1363 : 			_N0 = this->_Mysize - _Off;	// trim _N0 to size
; 1364 : 		size_type _Num = _Right.size() - _Roff;
; 1365 : 		if (_Num < _Count)
; 1366 : 			_Count = _Num;	// trim _Count to size
; 1367 : 		if (npos - _Count <= this->_Mysize - _N0)
; 1368 : 			_Xlen();	// result too long
; 1369 : 
; 1370 : 		size_type _Nm = this->_Mysize - _N0 - _Off;	// length of kept tail
; 1371 : 		size_type _Newsize = this->_Mysize + _Count - _N0;
; 1372 : 		if (this->_Mysize < _Newsize)
; 1373 : 			_Grow(_Newsize);
; 1374 : 
; 1375 : 		if (this != &_Right)
; 1376 : 			{	// no overlap, just move down and copy in new stuff
; 1377 : 			_Traits::move(this->_Myptr() + _Off + _Count,
; 1378 : 				this->_Myptr() + _Off + _N0, _Nm);	// empty hole
; 1379 : 			_Traits::copy(this->_Myptr() + _Off,
; 1380 : 				_Right._Myptr() + _Roff, _Count);	// fill hole
; 1381 : 			}
; 1382 : 		else if (_Count <= _N0)
; 1383 : 			{	// hole doesn't get larger, just copy in substring
; 1384 : 			_Traits::move(this->_Myptr() + _Off,
; 1385 : 				this->_Myptr() + _Roff, _Count);	// fill hole
; 1386 : 			_Traits::move(this->_Myptr() + _Off + _Count,
; 1387 : 				this->_Myptr() + _Off + _N0, _Nm);	// move tail down
; 1388 : 			}
; 1389 : 		else if (_Roff <= _Off)
; 1390 : 			{	// hole gets larger, substring begins before hole
; 1391 : 			_Traits::move(this->_Myptr() + _Off + _Count,
; 1392 : 				this->_Myptr() + _Off + _N0, _Nm);	// move tail down
; 1393 : 			_Traits::move(this->_Myptr() + _Off,
; 1394 : 				this->_Myptr() + _Roff, _Count);	// fill hole
; 1395 : 			}
; 1396 : 		else if (_Off + _N0 <= _Roff)
; 1397 : 			{	// hole gets larger, substring begins after hole
; 1398 : 			_Traits::move(this->_Myptr() + _Off + _Count,
; 1399 : 				this->_Myptr() + _Off + _N0, _Nm);	// move tail down
; 1400 : 			_Traits::move(this->_Myptr() + _Off,
; 1401 : 				this->_Myptr() + (_Roff + _Count - _N0),
; 1402 : 				_Count);	// fill hole
; 1403 : 			}
; 1404 : 		else
; 1405 : 			{	// hole gets larger, substring begins in hole
; 1406 : 			_Traits::move(this->_Myptr() + _Off,
; 1407 : 				this->_Myptr() + _Roff, _N0);	// fill old hole
; 1408 : 			_Traits::move(this->_Myptr() + _Off + _Count,
; 1409 : 				this->_Myptr() + _Off + _N0, _Nm);	// move tail down
; 1410 : 			_Traits::move(this->_Myptr() + _Off + _N0,
; 1411 : 				this->_Myptr() + _Roff + _Count,
; 1412 : 				_Count - _N0);	// fill rest of new hole
; 1413 : 			}
; 1414 : 
; 1415 : 		_Eos(_Newsize);
; 1416 : 		return (*this);
; 1417 : 		}
; 1418 : 
; 1419 : 	_Myt& replace(size_type _Off,
; 1420 : 		size_type _N0, const _Elem *_Ptr, size_type _Count)
; 1421 : 		{	// replace [_Off, _Off + _N0) with [_Ptr, _Ptr + _Count)
; 1422 :  #if _ITERATOR_DEBUG_LEVEL == 2
; 1423 : 		if (_Count != 0)
; 1424 : 			_DEBUG_POINTER(_Ptr);
; 1425 :  #endif /* _ITERATOR_DEBUG_LEVEL == 2 */
; 1426 : 
; 1427 : 		if (_Inside(_Ptr))
; 1428 : 			return (replace(_Off, _N0, *this,
; 1429 : 				_Ptr - this->_Myptr(),
; 1430 : 				_Count));	// substring, replace carefully
; 1431 : 		if (this->_Mysize < _Off)
; 1432 : 			_Xran();	// _Off off end
; 1433 : 		if (this->_Mysize - _Off < _N0)
; 1434 : 			_N0 = this->_Mysize - _Off;	// trim _N0 to size
; 1435 : 		if (npos - _Count <= this->_Mysize - _N0)
; 1436 : 			_Xlen();	// result too long
; 1437 : 		size_type _Nm = this->_Mysize - _N0 - _Off;
; 1438 : 
; 1439 : 		if (_Count < _N0)
; 1440 : 			_Traits::move(this->_Myptr() + _Off + _Count,
; 1441 : 				this->_Myptr() + _Off + _N0,
; 1442 : 				_Nm);	// smaller hole, move tail up
; 1443 : 		size_type _Num;
; 1444 : 		if ((0 < _Count || 0 < _N0)
; 1445 : 			&& _Grow(_Num = this->_Mysize + _Count - _N0))
; 1446 : 			{	// make room and rearrange
; 1447 : 			if (_N0 < _Count)
; 1448 : 				_Traits::move(this->_Myptr() + _Off + _Count,
; 1449 : 					this->_Myptr() + _Off + _N0, _Nm);	// move tail down
; 1450 : 			_Traits::copy(this->_Myptr() + _Off, _Ptr, _Count);	// fill hole
; 1451 : 			_Eos(_Num);
; 1452 : 			}
; 1453 : 		return (*this);
; 1454 : 		}
; 1455 : 
; 1456 : 	_Myt& replace(size_type _Off, size_type _N0, const _Elem *_Ptr)
; 1457 : 		{	// replace [_Off, _Off + _N0) with [_Ptr, <null>)
; 1458 : 		_DEBUG_POINTER(_Ptr);
; 1459 : 		return (replace(_Off, _N0, _Ptr, _Traits::length(_Ptr)));
; 1460 : 		}
; 1461 : 
; 1462 : 	_Myt& replace(size_type _Off,
; 1463 : 		size_type _N0, size_type _Count, _Elem _Ch)
; 1464 : 		{	// replace [_Off, _Off + _N0) with _Count * _Ch
; 1465 : 		if (this->_Mysize < _Off)
; 1466 : 			_Xran();	// _Off off end
; 1467 : 		if (this->_Mysize - _Off < _N0)
; 1468 : 			_N0 = this->_Mysize - _Off;	// trim _N0 to size
; 1469 : 		if (npos - _Count <= this->_Mysize - _N0)
; 1470 : 			_Xlen();	// result too long
; 1471 : 		size_type _Nm = this->_Mysize - _N0 - _Off;
; 1472 : 
; 1473 : 		if (_Count < _N0)
; 1474 : 			_Traits::move(this->_Myptr() + _Off + _Count,
; 1475 : 				this->_Myptr() + _Off + _N0,
; 1476 : 				_Nm);	// smaller hole, move tail up
; 1477 : 		size_type _Num;
; 1478 : 		if ((0 < _Count || 0 < _N0)
; 1479 : 			&& _Grow(_Num = this->_Mysize + _Count - _N0))
; 1480 : 			{	// make room and rearrange
; 1481 : 			if (_N0 < _Count)
; 1482 : 				_Traits::move(this->_Myptr() + _Off + _Count,
; 1483 : 					this->_Myptr() + _Off + _N0, _Nm);	// move tail down
; 1484 : 			_Chassign(_Off, _Count, _Ch);	// fill hole
; 1485 : 			_Eos(_Num);
; 1486 : 			}
; 1487 : 		return (*this);
; 1488 : 		}
; 1489 : 
; 1490 : 	_Myt& replace(const_iterator _First, const_iterator _Last,
; 1491 : 		const _Myt& _Right)
; 1492 : 		{	// replace [_First, _Last) with _Right
; 1493 : 		return (replace(
; 1494 : 			_Pdif(_First, begin()), _Pdif(_Last, _First), _Right));
; 1495 : 		}
; 1496 : 
; 1497 : 	_Myt& replace(const_iterator _First, const_iterator _Last,
; 1498 : 		const _Elem *_Ptr, size_type _Count)
; 1499 : 		{	// replace [_First, _Last) with [_Ptr, _Ptr + _Count)
; 1500 : 		return (replace(
; 1501 : 			_Pdif(_First, begin()), _Pdif(_Last, _First), _Ptr, _Count));
; 1502 : 		}
; 1503 : 
; 1504 : 	_Myt& replace(const_iterator _First, const_iterator _Last,
; 1505 : 		const _Elem *_Ptr)
; 1506 : 		{	// replace [_First, _Last) with [_Ptr, <null>)
; 1507 : 		return (replace(
; 1508 : 			_Pdif(_First, begin()), _Pdif(_Last, _First), _Ptr));
; 1509 : 		}
; 1510 : 
; 1511 : 	_Myt& replace(const_iterator _First, const_iterator _Last,
; 1512 : 		size_type _Count, _Elem _Ch)
; 1513 : 		{	// replace [_First, _Last) with _Count * _Ch
; 1514 : 		return (replace(
; 1515 : 			_Pdif(_First, begin()), _Pdif(_Last, _First), _Count, _Ch));
; 1516 : 		}
; 1517 : 
; 1518 : 	template<class _Iter>
; 1519 : 		typename enable_if<_Is_iterator<_Iter>::value,
; 1520 : 			_Myt&>::type
; 1521 : 		replace(const_iterator _First, const_iterator _Last,
; 1522 : 			_Iter _First2, _Iter _Last2)
; 1523 : 		{	// replace [_First, _Last) with [_First2, _Last2), input iterators
; 1524 : 		_Myt _Right(_First2, _Last2);
; 1525 : 		replace(_First, _Last, _Right);
; 1526 : 		return (*this);
; 1527 : 		}
; 1528 : 
; 1529 : 	_Myt& replace(const_iterator _First, const_iterator _Last,
; 1530 : 		const_pointer _First2, const_pointer _Last2)
; 1531 : 		{	// replace [_First, _Last) with [_First2, _Last2), const pointers
; 1532 : 		if (_First2 == _Last2)
; 1533 : 			erase(_Pdif(_First, begin()), _Pdif(_Last, _First));
; 1534 : 		else
; 1535 : 			replace(_Pdif(_First, begin()), _Pdif(_Last, _First),
; 1536 : 				&*_First2, _Last2 - _First2);
; 1537 : 		return (*this);
; 1538 : 		}
; 1539 : 
; 1540 : 	_Myt& replace(const_iterator _First, const_iterator _Last,
; 1541 : 		pointer _First2, pointer _Last2)
; 1542 : 		{	// replace [_First, _Last) with [_First2, _Last2), const pointers
; 1543 : 		if (_First2 == _Last2)
; 1544 : 			erase(_Pdif(_First, begin()), _Pdif(_Last, _First));
; 1545 : 		else
; 1546 : 			replace(_Pdif(_First, begin()), _Pdif(_Last, _First),
; 1547 : 				&*_First2, _Last2 - _First2);
; 1548 : 		return (*this);
; 1549 : 		}
; 1550 : 
; 1551 : 	_Myt& replace(const_iterator _First, const_iterator _Last,
; 1552 : 		const_iterator _First2, const_iterator _Last2)
; 1553 : 		{	// replace [_First, _Last) with [_First2, _Last2), const_iterators
; 1554 : 		if (_First2 == _Last2)
; 1555 : 			erase(_Pdif(_First, begin()), _Pdif(_Last, _First));
; 1556 : 		else
; 1557 : 			replace(_Pdif(_First, begin()), _Pdif(_Last, _First),
; 1558 : 				&*_First2, _Last2 - _First2);
; 1559 : 		return (*this);
; 1560 : 		}
; 1561 : 
; 1562 : 	_Myt& replace(const_iterator _First, const_iterator _Last,
; 1563 : 		iterator _First2, iterator _Last2)
; 1564 : 		{	// replace [_First, _Last) with [_First2, _Last2), const_iterators
; 1565 : 		if (_First2 == _Last2)
; 1566 : 			erase(_Pdif(_First, begin()), _Pdif(_Last, _First));
; 1567 : 		else
; 1568 : 			replace(_Pdif(_First, begin()), _Pdif(_Last, _First),
; 1569 : 				&*_First2, _Last2 - _First2);
; 1570 : 		return (*this);
; 1571 : 		}
; 1572 : 
; 1573 : 	iterator begin() _NOEXCEPT
; 1574 : 		{	// return iterator for beginning of mutable sequence
; 1575 : 		return (_STRING_ITERATOR(this->_Myptr()));
; 1576 : 		}
; 1577 : 
; 1578 : 	const_iterator begin() const _NOEXCEPT
; 1579 : 		{	// return iterator for beginning of nonmutable sequence
; 1580 : 		return (_STRING_CONST_ITERATOR(this->_Myptr()));
; 1581 : 		}
; 1582 : 
; 1583 : 	iterator end() _NOEXCEPT
; 1584 : 		{	// return iterator for end of mutable sequence
; 1585 : 		return (_STRING_ITERATOR(this->_Myptr() + this->_Mysize));
; 1586 : 		}
; 1587 : 
; 1588 : 	const_iterator end() const _NOEXCEPT
; 1589 : 		{	// return iterator for end of nonmutable sequence
; 1590 : 		return (_STRING_CONST_ITERATOR(this->_Myptr() + this->_Mysize));
; 1591 : 		}
; 1592 : 
; 1593 : 	reverse_iterator rbegin() _NOEXCEPT
; 1594 : 		{	// return iterator for beginning of reversed mutable sequence
; 1595 : 		return (reverse_iterator(end()));
; 1596 : 		}
; 1597 : 
; 1598 : 	const_reverse_iterator rbegin() const _NOEXCEPT
; 1599 : 		{	// return iterator for beginning of reversed nonmutable sequence
; 1600 : 		return (const_reverse_iterator(end()));
; 1601 : 		}
; 1602 : 
; 1603 : 	reverse_iterator rend() _NOEXCEPT
; 1604 : 		{	// return iterator for end of reversed mutable sequence
; 1605 : 		return (reverse_iterator(begin()));
; 1606 : 		}
; 1607 : 
; 1608 : 	const_reverse_iterator rend() const _NOEXCEPT
; 1609 : 		{	// return iterator for end of reversed nonmutable sequence
; 1610 : 		return (const_reverse_iterator(begin()));
; 1611 : 		}
; 1612 : 
; 1613 :  #if _HAS_CPP0X
; 1614 : 	const_iterator cbegin() const _NOEXCEPT
; 1615 : 		{	// return iterator for beginning of nonmutable sequence
; 1616 : 		return (((const _Myt *)this)->begin());
; 1617 : 		}
; 1618 : 
; 1619 : 	const_iterator cend() const _NOEXCEPT
; 1620 : 		{	// return iterator for end of nonmutable sequence
; 1621 : 		return (((const _Myt *)this)->end());
; 1622 : 		}
; 1623 : 
; 1624 : 	const_reverse_iterator crbegin() const _NOEXCEPT
; 1625 : 		{	// return iterator for beginning of reversed nonmutable sequence
; 1626 : 		return (((const _Myt *)this)->rbegin());
; 1627 : 		}
; 1628 : 
; 1629 : 	const_reverse_iterator crend() const _NOEXCEPT
; 1630 : 		{	// return iterator for end of reversed nonmutable sequence
; 1631 : 		return (((const _Myt *)this)->rend());
; 1632 : 		}
; 1633 : 
; 1634 : 	void shrink_to_fit()
; 1635 : 		{	// reduce capacity
; 1636 : 		if ((size() | this->_ALLOC_MASK) < capacity())
; 1637 : 			{	// worth shrinking, do it
; 1638 : 			_Myt _Tmp(*this);
; 1639 : 			swap(_Tmp);
; 1640 : 			}
; 1641 : 		}
; 1642 :  #endif /* _HAS_CPP0X */
; 1643 : 
; 1644 : 	reference at(size_type _Off)
; 1645 : 		{	// subscript mutable sequence with checking
; 1646 : 		if (this->_Mysize <= _Off)
; 1647 : 			_Xran();	// _Off off end
; 1648 : 		return (this->_Myptr()[_Off]);
; 1649 : 		}
; 1650 : 
; 1651 : 	const_reference at(size_type _Off) const
; 1652 : 		{	// subscript nonmutable sequence with checking
; 1653 : 		if (this->_Mysize <= _Off)
; 1654 : 			_Xran();	// _Off off end
; 1655 : 		return (this->_Myptr()[_Off]);
; 1656 : 		}
; 1657 : 
; 1658 : 	reference operator[](size_type _Off)
; 1659 : 		{	// subscript mutable sequence
; 1660 :  #if _ITERATOR_DEBUG_LEVEL == 2
; 1661 : 		if (this->_Mysize < _Off)	// sic
; 1662 : 			_DEBUG_ERROR("string subscript out of range");
; 1663 : 
; 1664 :  #elif _ITERATOR_DEBUG_LEVEL == 1
; 1665 : 		_SCL_SECURE_VALIDATE_RANGE(_Off <= this->_Mysize);	// sic
; 1666 :  #endif /* _ITERATOR_DEBUG_LEVEL == 2 */
; 1667 : 
; 1668 : 		return (this->_Myptr()[_Off]);
; 1669 : 		}
; 1670 : 
; 1671 : 	const_reference operator[](size_type _Off) const
; 1672 : 		{	// subscript nonmutable sequence
; 1673 :  #if _ITERATOR_DEBUG_LEVEL == 2
; 1674 : 		if (this->_Mysize < _Off)	// sic
; 1675 : 			_DEBUG_ERROR("string subscript out of range");
; 1676 : 
; 1677 :  #elif _ITERATOR_DEBUG_LEVEL == 1
; 1678 : 		_SCL_SECURE_VALIDATE_RANGE(_Off <= this->_Mysize);	// sic
; 1679 :  #endif /* _ITERATOR_DEBUG_LEVEL == 2 */
; 1680 : 
; 1681 : 		return (this->_Myptr()[_Off]);
; 1682 : 		}
; 1683 : 
; 1684 : 	void push_back(_Elem _Ch)
; 1685 : 		{	// insert element at end
; 1686 : 		insert(end(), _Ch);
; 1687 : 		}
; 1688 : 
; 1689 :  #if _HAS_CPP0X
; 1690 : 	void pop_back()
; 1691 : 		{	// erase element at end
; 1692 : 		erase(this->_Mysize - 1);	// throws if _Mysize == 0
; 1693 : 		}
; 1694 : 
; 1695 : 	reference front()
; 1696 : 		{	// return first element of mutable sequence
; 1697 : 		return (*begin());
; 1698 : 		}
; 1699 : 
; 1700 : 	const_reference front() const
; 1701 : 		{	// return first element of nonmutable sequence
; 1702 : 		return (*begin());
; 1703 : 		}
; 1704 : 
; 1705 : 	reference back()
; 1706 : 		{	// return last element of mutable sequence
; 1707 : 		return (*(end() - 1));
; 1708 : 		}
; 1709 : 
; 1710 : 	const_reference back() const
; 1711 : 		{	// return last element of nonmutable sequence
; 1712 : 		return (*(end() - 1));
; 1713 : 		}
; 1714 :  #endif /* _HAS_CPP0X */
; 1715 : 
; 1716 : 	const _Elem *c_str() const _NOEXCEPT
; 1717 : 		{	// return pointer to null-terminated nonmutable array
; 1718 : 		return (this->_Myptr());
; 1719 : 		}
; 1720 : 
; 1721 : 	const _Elem *data() const _NOEXCEPT
; 1722 : 		{	// return pointer to nonmutable array
; 1723 : 		return (c_str());
; 1724 : 		}
; 1725 : 
; 1726 : 	size_type length() const _NOEXCEPT
; 1727 : 		{	// return length of sequence
; 1728 : 		return (this->_Mysize);
; 1729 : 		}
; 1730 : 
; 1731 : 	size_type size() const _NOEXCEPT
; 1732 : 		{	// return length of sequence
; 1733 : 		return (this->_Mysize);
; 1734 : 		}
; 1735 : 
; 1736 : 	size_type max_size() const _NOEXCEPT
; 1737 : 		{	// return maximum possible length of sequence
; 1738 : 		size_type _Num = this->_Getal().max_size();
; 1739 : 		return (_Num <= 1 ? 1 : _Num - 1);
; 1740 : 		}
; 1741 : 
; 1742 : 	void resize(size_type _Newsize)
; 1743 : 		{	// determine new length, padding with null elements as needed
; 1744 : 		resize(_Newsize, _Elem());
; 1745 : 		}
; 1746 : 
; 1747 : 	void resize(size_type _Newsize, _Elem _Ch)
; 1748 : 		{	// determine new length, padding with _Ch elements as needed
; 1749 : 		if (_Newsize <= this->_Mysize)
; 1750 : 			_Eos(_Newsize);
; 1751 : 		else
; 1752 : 			append(_Newsize - this->_Mysize, _Ch);
; 1753 : 		}
; 1754 : 
; 1755 : 	size_type capacity() const _NOEXCEPT
; 1756 : 		{	// return current length of allocated storage
; 1757 : 		return (this->_Myres);
; 1758 : 		}
; 1759 : 
; 1760 : 	void reserve(size_type _Newcap = 0)
; 1761 : 		{	// determine new minimum length of allocated storage
; 1762 : 		if (this->_Mysize <= _Newcap && this->_Myres != _Newcap)
; 1763 : 			{	// change reservation
; 1764 : 			size_type _Size = this->_Mysize;
; 1765 : 			if (_Grow(_Newcap, true))
; 1766 : 				_Eos(_Size);
; 1767 : 			}
; 1768 : 		}
; 1769 : 
; 1770 : 	bool empty() const _NOEXCEPT
; 1771 : 		{	// test if sequence is empty
; 1772 : 		return (this->_Mysize == 0);
; 1773 : 		}
; 1774 : 
; 1775 : 	_SCL_INSECURE_DEPRECATE
; 1776 : 
; 1777 : 	size_type copy(_Elem *_Ptr,
; 1778 : 		size_type _Count, size_type _Off = 0) const
; 1779 : 		{	// copy [_Off, _Off + _Count) to [_Ptr, _Ptr + _Count)
; 1780 :  #if _ITERATOR_DEBUG_LEVEL == 2
; 1781 : 		if (_Count != 0)
; 1782 : 			_DEBUG_POINTER(_Ptr);
; 1783 :  #endif /* _ITERATOR_DEBUG_LEVEL == 2 */
; 1784 : 
; 1785 : 		if (this->_Mysize < _Off)
; 1786 : 			_Xran();	// _Off off end
; 1787 : 		if (this->_Mysize - _Off < _Count)
; 1788 : 			_Count = this->_Mysize - _Off;
; 1789 : 		_Traits::copy(_Ptr, this->_Myptr() + _Off, _Count);
; 1790 : 		return (_Count);
; 1791 : 		}
; 1792 : 
; 1793 : 	size_type _Copy_s(_Elem *_Dest, size_type _Dest_size,
; 1794 : 		size_type _Count, size_type _Off = 0) const
; 1795 : 		{	// copy [_Off, _Off + _Count) to [_Dest, _Dest + _Count)
; 1796 :  #if _ITERATOR_DEBUG_LEVEL == 2
; 1797 : 		if (_Count != 0)
; 1798 : 			_DEBUG_POINTER(_Dest);
; 1799 :  #endif /* _ITERATOR_DEBUG_LEVEL == 2 */
; 1800 : 
; 1801 : 		if (this->_Mysize < _Off)
; 1802 : 			_Xran();	// _Off off end
; 1803 : 		if (this->_Mysize - _Off < _Count)
; 1804 : 			_Count = this->_Mysize - _Off;
; 1805 : 		_Traits::_Copy_s(_Dest, _Dest_size, this->_Myptr() + _Off, _Count);
; 1806 : 		return (_Count);
; 1807 : 		}
; 1808 : 
; 1809 : 	void _Swap_bx(_Myt& _Right)
; 1810 : 		{	// exchange _Bx with _Right._Bx
; 1811 : 		if (this->_BUF_SIZE <= this->_Myres)
; 1812 : 			if (this->_BUF_SIZE <= _Right._Myres)
; 1813 : 				_Swap_adl(this->_Bx._Ptr, _Right._Bx._Ptr);
; 1814 : 			else
; 1815 : 				{	// swap large with small
; 1816 : 				pointer _Ptr = this->_Bx._Ptr;
; 1817 : 				this->_Getal().destroy(&this->_Bx._Ptr);
; 1818 : 				_Traits::copy(this->_Bx._Buf,
; 1819 : 					_Right._Bx._Buf, _Right._Mysize + 1);
; 1820 : 				this->_Getal().construct(&_Right._Bx._Ptr, _Ptr);
; 1821 : 				}
; 1822 : 		else
; 1823 : 			if (_Right._Myres < this->_BUF_SIZE)
; 1824 : 				_STD swap(this->_Bx._Buf, _Right._Bx._Buf);
; 1825 : 			else
; 1826 : 				{	// swap small with large
; 1827 : 				pointer _Ptr = _Right._Bx._Ptr;
; 1828 : 				this->_Getal().destroy(&_Right._Bx._Ptr);
; 1829 : 				_Traits::copy(_Right._Bx._Buf,
; 1830 : 					this->_Bx._Buf, this->_Mysize + 1);
; 1831 : 				this->_Getal().construct(&this->_Bx._Ptr, _Ptr);
; 1832 : 				}
; 1833 : 		}
; 1834 : 
; 1835 : 	void swap(_Myt& _Right)
; 1836 : 		{	// exchange contents with _Right
; 1837 : 		if (this == &_Right)
; 1838 : 			;	// same object, do nothing
; 1839 : 		else if (this->_Getal() == _Right._Getal())
; 1840 : 			{	// same allocator, swap control information
; 1841 : 			this->_Swap_all(_Right);
; 1842 : 			_Swap_bx(_Right);
; 1843 : 			_STD swap(this->_Mysize, _Right._Mysize);
; 1844 : 			_STD swap(this->_Myres, _Right._Myres);
; 1845 : 			}
; 1846 : 
; 1847 :  #if _HAS_CPP0X
; 1848 : 		else if (_Alty::propagate_on_container_swap::value)
; 1849 : 			{	// swap allocators and control information
; 1850 : 			this->_Swap_alloc(_Right);
; 1851 : 			_Swap_bx(_Right);
; 1852 : 			_STD swap(this->_Bx, _Right._Bx);	// pointer bitwise copyable?
; 1853 : 			_STD swap(this->_Mysize, _Right._Mysize);
; 1854 : 			_STD swap(this->_Myres, _Right._Myres);
; 1855 : 			}
; 1856 :  #endif /* _HAS_CPP0X */
; 1857 : 
; 1858 : 		else
; 1859 : 			{	// different allocator, do multiple assigns
; 1860 : 			_Myt _Tmp = *this;
; 1861 : 
; 1862 : 			*this = _Right;
; 1863 : 			_Right = _Tmp;
; 1864 : 			}
; 1865 : 		}
; 1866 : 
; 1867 : 	size_type find(const _Myt& _Right, size_type _Off = 0) const _NOEXCEPT
; 1868 : 		{	// look for _Right beginning at or after _Off
; 1869 : 		return (find(_Right._Myptr(), _Off, _Right.size()));
; 1870 : 		}
; 1871 : 
; 1872 : 	size_type find(const _Elem *_Ptr,
; 1873 : 		size_type _Off, size_type _Count) const
; 1874 : 		{	// look for [_Ptr, _Ptr + _Count) beginning at or after _Off
; 1875 :  #if _ITERATOR_DEBUG_LEVEL == 2
; 1876 : 		if (_Count != 0)
; 1877 : 			_DEBUG_POINTER(_Ptr);
; 1878 :  #endif /* _ITERATOR_DEBUG_LEVEL == 2 */
; 1879 : 
; 1880 : 		if (_Count == 0 && _Off <= this->_Mysize)
; 1881 : 			return (_Off);	// null string always matches (if inside string)
; 1882 : 
; 1883 : 		size_type _Nm;
; 1884 : 		if (_Off < this->_Mysize && _Count <= (_Nm = this->_Mysize - _Off))
; 1885 : 			{	// room for match, look for it
; 1886 : 			const _Elem *_Uptr, *_Vptr;
; 1887 : 			for (_Nm -= _Count - 1, _Vptr = this->_Myptr() + _Off;
; 1888 : 				(_Uptr = _Traits::find(_Vptr, _Nm, *_Ptr)) != 0;
; 1889 : 				_Nm -= _Uptr - _Vptr + 1, _Vptr = _Uptr + 1)
; 1890 : 				if (_Traits::compare(_Uptr, _Ptr, _Count) == 0)
; 1891 : 					return (_Uptr - this->_Myptr());	// found a match
; 1892 : 			}
; 1893 : 
; 1894 : 		return (npos);	// no match
; 1895 : 		}
; 1896 : 
; 1897 : 	size_type find(const _Elem *_Ptr, size_type _Off = 0) const
; 1898 : 		{	// look for [_Ptr, <null>) beginning at or after _Off
; 1899 : 		_DEBUG_POINTER(_Ptr);
; 1900 : 		return (find(_Ptr, _Off, _Traits::length(_Ptr)));
; 1901 : 		}
; 1902 : 
; 1903 : 	size_type find(_Elem _Ch, size_type _Off = 0) const
; 1904 : 		{	// look for _Ch at or after _Off
; 1905 : 		return (find((const _Elem *)&_Ch, _Off, 1));
; 1906 : 		}
; 1907 : 
; 1908 : 	size_type rfind(const _Myt& _Right, size_type _Off = npos) const _NOEXCEPT
; 1909 : 		{	// look for _Right beginning before _Off
; 1910 : 		return (rfind(_Right._Myptr(), _Off, _Right.size()));
; 1911 : 		}
; 1912 : 
; 1913 : 	size_type rfind(const _Elem *_Ptr,
; 1914 : 		size_type _Off, size_type _Count) const
; 1915 : 		{	// look for [_Ptr, _Ptr + _Count) beginning before _Off
; 1916 :  #if _ITERATOR_DEBUG_LEVEL == 2
; 1917 : 		if (_Count != 0)
; 1918 : 			_DEBUG_POINTER(_Ptr);
; 1919 :  #endif /* _ITERATOR_DEBUG_LEVEL == 2 */
; 1920 : 
; 1921 : 		if (_Count == 0)
; 1922 : 			return (_Off < this->_Mysize ? _Off
; 1923 : 				: this->_Mysize);	// null always matches
; 1924 : 		if (_Count <= this->_Mysize)
; 1925 : 			{	// room for match, look for it
; 1926 : 			const _Elem *_Uptr = this->_Myptr() +
; 1927 : 				(_Off < this->_Mysize - _Count ? _Off
; 1928 : 					: this->_Mysize - _Count);
; 1929 : 			for (; ; --_Uptr)
; 1930 : 				if (_Traits::eq(*_Uptr, *_Ptr)
; 1931 : 					&& _Traits::compare(_Uptr, _Ptr, _Count) == 0)
; 1932 : 					return (_Uptr - this->_Myptr());	// found a match
; 1933 : 				else if (_Uptr == this->_Myptr())
; 1934 : 					break;	// at beginning, no more chance for match
; 1935 : 			}
; 1936 : 
; 1937 : 		return (npos);	// no match
; 1938 : 		}
; 1939 : 
; 1940 : 	size_type rfind(const _Elem *_Ptr, size_type _Off = npos) const
; 1941 : 		{	// look for [_Ptr, <null>) beginning before _Off
; 1942 : 		_DEBUG_POINTER(_Ptr);
; 1943 : 		return (rfind(_Ptr, _Off, _Traits::length(_Ptr)));
; 1944 : 		}
; 1945 : 
; 1946 : 	size_type rfind(_Elem _Ch, size_type _Off = npos) const
; 1947 : 		{	// look for _Ch before _Off
; 1948 : 		return (rfind((const _Elem *)&_Ch, _Off, 1));
; 1949 : 		}
; 1950 : 
; 1951 : 	size_type find_first_of(const _Myt& _Right,
; 1952 : 		size_type _Off = 0) const _NOEXCEPT
; 1953 : 		{	// look for one of _Right at or after _Off
; 1954 : 		return (find_first_of(_Right._Myptr(), _Off, _Right.size()));
; 1955 : 		}
; 1956 : 
; 1957 : 	size_type find_first_of(const _Elem *_Ptr,
; 1958 : 		size_type _Off, size_type _Count) const
; 1959 : 		{	// look for one of [_Ptr, _Ptr + _Count) at or after _Off
; 1960 :  #if _ITERATOR_DEBUG_LEVEL == 2
; 1961 : 		if (_Count != 0)
; 1962 : 			_DEBUG_POINTER(_Ptr);
; 1963 :  #endif /* _ITERATOR_DEBUG_LEVEL == 2 */
; 1964 : 
; 1965 : 		if (0 < _Count && _Off < this->_Mysize)
; 1966 : 			{	// room for match, look for it
; 1967 : 			const _Elem *const _Vptr = this->_Myptr() + this->_Mysize;
; 1968 : 			for (const _Elem *_Uptr = this->_Myptr() + _Off;
; 1969 : 				_Uptr < _Vptr; ++_Uptr)
; 1970 : 				if (_Traits::find(_Ptr, _Count, *_Uptr) != 0)
; 1971 : 					return (_Uptr - this->_Myptr());	// found a match
; 1972 : 			}
; 1973 : 
; 1974 : 		return (npos);	// no match
; 1975 : 		}
; 1976 : 
; 1977 : 	size_type find_first_of(const _Elem *_Ptr,
; 1978 : 		size_type _Off = 0) const
; 1979 : 		{	// look for one of [_Ptr, <null>) at or after _Off
; 1980 : 		_DEBUG_POINTER(_Ptr);
; 1981 : 		return (find_first_of(_Ptr, _Off, _Traits::length(_Ptr)));
; 1982 : 		}
; 1983 : 
; 1984 : 	size_type find_first_of(_Elem _Ch,
; 1985 : 		size_type _Off = 0) const
; 1986 : 		{	// look for _Ch at or after _Off
; 1987 : 		return (find((const _Elem *)&_Ch, _Off, 1));
; 1988 : 		}
; 1989 : 
; 1990 : 	size_type find_last_of(const _Myt& _Right,
; 1991 : 		size_type _Off = npos) const _NOEXCEPT
; 1992 : 		{	// look for one of _Right before _Off
; 1993 : 		return (find_last_of(_Right._Myptr(), _Off, _Right.size()));
; 1994 : 		}
; 1995 : 
; 1996 : 	size_type find_last_of(const _Elem *_Ptr,
; 1997 : 		size_type _Off, size_type _Count) const
; 1998 : 		{	// look for one of [_Ptr, _Ptr + _Count) before _Off
; 1999 :  #if _ITERATOR_DEBUG_LEVEL == 2
; 2000 : 		if (_Count != 0)
; 2001 : 			_DEBUG_POINTER(_Ptr);
; 2002 :  #endif /* _ITERATOR_DEBUG_LEVEL == 2 */
; 2003 : 
; 2004 : 		if (0 < _Count && 0 < this->_Mysize)
; 2005 : 			{	// worth searching, do it
; 2006 : 			const _Elem *_Uptr = this->_Myptr()
; 2007 : 				+ (_Off < this->_Mysize ? _Off : this->_Mysize - 1);
; 2008 : 			for (; ; --_Uptr)
; 2009 : 				if (_Traits::find(_Ptr, _Count, *_Uptr) != 0)
; 2010 : 					return (_Uptr - this->_Myptr());	// found a match
; 2011 : 				else if (_Uptr == this->_Myptr())
; 2012 : 					break;	// at beginning, no more chance for match
; 2013 : 			}
; 2014 : 
; 2015 : 		return (npos);	// no match
; 2016 : 		}
; 2017 : 
; 2018 : 	size_type find_last_of(const _Elem *_Ptr,
; 2019 : 		size_type _Off = npos) const
; 2020 : 		{	// look for one of [_Ptr, <null>) before _Off
; 2021 : 		_DEBUG_POINTER(_Ptr);
; 2022 : 		return (find_last_of(_Ptr, _Off, _Traits::length(_Ptr)));

  0008f	48 8b f8	 mov	 rdi, rax

; 2219 : 		}
; 2220 : 
; 2221 : 	bool _Grow(size_type _Newsize,
; 2222 : 		bool _Trim = false)
; 2223 : 		{	// ensure buffer is big enough, trim to size if _Trim is true
; 2224 : 		if (max_size() < _Newsize)
; 2225 : 			_Xlen();	// result too long
; 2226 : 		if (this->_Myres < _Newsize)
; 2227 : 			_Copy(_Newsize, this->_Mysize);	// reallocate to grow
; 2228 : 		else if (_Trim && _Newsize < this->_BUF_SIZE)
; 2229 : 			_Tidy(true,	// copy and deallocate if trimming to small string
; 2230 : 				_Newsize < this->_Mysize ? _Newsize : this->_Mysize);
; 2231 : 		else if (_Newsize == 0)
; 2232 : 			_Eos(0);	// new size is zero, just null terminate
; 2233 : 		return (0 < _Newsize);	// return true only if more work to do
; 2234 : 		}
; 2235 : 
; 2236 : 	bool _Inside(const _Elem *_Ptr)
; 2237 : 		{	// test if _Ptr points inside string
; 2238 : 		if (_Ptr == 0 || _Ptr < this->_Myptr()
; 2239 : 			|| this->_Myptr() + this->_Mysize <= _Ptr)
; 2240 : 			return (false);	// don't ask
; 2241 : 		else
; 2242 : 			return (true);
; 2243 : 		}
; 2244 : 
; 2245 : 	static size_type _Pdif(const_iterator _P2,
; 2246 : 		const_iterator _P1)
; 2247 : 		{	// compute safe iterator difference
; 2248 : 		return (_STRING_ITER_BASE(_P2) == 0 ? 0 : _P2 - _P1);
; 2249 : 		}
; 2250 : 
; 2251 : 	void _Tidy(bool _Built = false,
; 2252 : 		size_type _Newsize = 0)
; 2253 : 		{	// initialize buffer, deallocating any storage
; 2254 : 		if (!_Built)
; 2255 : 			;
; 2256 : 		else if (this->_BUF_SIZE <= this->_Myres)

  00092	72 0a		 jb	 SHORT $LN80@init
; File c:\program files (x86)\microsoft visual studio 11.0\vc\include\xmemory0

; 586  : 		::operator delete(_Ptr);

  00094	48 8b 4c 24 20	 mov	 rcx, QWORD PTR $T1[rsp]
  00099	e8 00 00 00 00	 call	 ??3@YAXPEAX@Z		; operator delete
$LN80@init:
; File c:\users\glenn\documents\github\wind\project\wind\wind\ioutil.cpp

; 14   : 	buffer[pos] = 0;

  0009e	48 63 c7	 movsxd	 rax, edi
  000a1	48 03 c0	 add	 rax, rax
  000a4	48 3d 08 02 00
	00		 cmp	 rax, 520		; 00000208H
  000aa	73 54		 jae	 SHORT $LN103@init
  000ac	66 89 5c 04 40	 mov	 WORD PTR buffer$[rsp+rax], bx
; File c:\program files (x86)\microsoft visual studio 11.0\vc\include\iosfwd

; 306  : 			: _CSTD wcslen(_First));

  000b1	66 39 5c 24 40	 cmp	 WORD PTR buffer$[rsp], bx
  000b6	74 13		 je	 SHORT $LN99@init
  000b8	48 8d 44 24 40	 lea	 rax, QWORD PTR buffer$[rsp]
  000bd	48 83 cb ff	 or	 rbx, -1
$LL100@init:
  000c1	48 ff c3	 inc	 rbx
  000c4	66 83 3c 58 00	 cmp	 WORD PTR [rax+rbx*2], 0
  000c9	75 f6		 jne	 SHORT $LL100@init
$LN99@init:
; File c:\program files (x86)\microsoft visual studio 11.0\vc\include\xstring

; 1144 : 		return (assign(_Ptr, _Traits::length(_Ptr)));

  000cb	48 8d 54 24 40	 lea	 rdx, QWORD PTR buffer$[rsp]
  000d0	48 8d 0d 00 00
	00 00		 lea	 rcx, OFFSET FLAT:?EXE_DIR@IOUtil@@3V?$basic_string@_WU?$char_traits@_W@std@@V?$allocator@_W@2@@std@@A ; IOUtil::EXE_DIR
  000d7	4c 8b c3	 mov	 r8, rbx
  000da	e8 00 00 00 00	 call	 ?assign@?$basic_string@_WU?$char_traits@_W@std@@V?$allocator@_W@2@@std@@QEAAAEAV12@PEB_W_K@Z ; std::basic_string<wchar_t,std::char_traits<wchar_t>,std::allocator<wchar_t> >::assign
; File c:\users\glenn\documents\github\wind\project\wind\wind\ioutil.cpp

; 16   : }

  000df	48 8b 8c 24 50
	02 00 00	 mov	 rcx, QWORD PTR __$ArrayPad$[rsp]
  000e7	48 33 cc	 xor	 rcx, rsp
  000ea	e8 00 00 00 00	 call	 __security_check_cookie
  000ef	48 8b 9c 24 70
	02 00 00	 mov	 rbx, QWORD PTR [rsp+624]
  000f7	48 81 c4 60 02
	00 00		 add	 rsp, 608		; 00000260H
  000fe	5f		 pop	 rdi
  000ff	c3		 ret	 0
$LN103@init:

; 14   : 	buffer[pos] = 0;

  00100	e8 00 00 00 00	 call	 __report_rangecheckfailure
  00105	cc		 int	 3
$LN102@init:
?init@IOUtil@@YAXXZ ENDP				; IOUtil::init
_TEXT	ENDS
; Function compile flags: /Ogtp
; File c:\program files (x86)\microsoft visual studio 11.0\vc\include\xstring
; File c:\program files (x86)\microsoft visual studio 11.0\vc\include\iosfwd
; File c:\program files (x86)\microsoft visual studio 11.0\vc\include\xstring
;	COMDAT ??0?$basic_string@_WU?$char_traits@_W@std@@V?$allocator@_W@2@@std@@QEAA@XZ
_TEXT	SEGMENT
this$ = 8
??0?$basic_string@_WU?$char_traits@_W@std@@V?$allocator@_W@2@@std@@QEAA@XZ PROC ; std::basic_string<wchar_t,std::char_traits<wchar_t>,std::allocator<wchar_t> >::basic_string<wchar_t,std::char_traits<wchar_t>,std::allocator<wchar_t> >, COMDAT

; 752  : 
; 753  : 	explicit basic_string(const _Alloc& _Al)
; 754  : 		: _Mybase(_Al)
; 755  : 		{	// construct empty string with allocator
; 756  : 		_Tidy();
; 757  : 		}
; 758  : 
; 759  : 	basic_string(const _Myt& _Right, size_type _Roff,
; 760  : 		size_type _Count = npos)
; 761  : 		: _Mybase(_Right._Getal())
; 762  : 		{	// construct from _Right [_Roff, _Roff + _Count)
; 763  : 		_Tidy();
; 764  : 		assign(_Right, _Roff, _Count);
; 765  : 		}
; 766  : 
; 767  : 	basic_string(const _Myt& _Right, size_type _Roff, size_type _Count,
; 768  : 		const _Alloc& _Al)
; 769  : 		: _Mybase(_Al)
; 770  : 		{	// construct from _Right [_Roff, _Roff + _Count) with allocator
; 771  : 		_Tidy();
; 772  : 		assign(_Right, _Roff, _Count);
; 773  : 		}
; 774  : 
; 775  : 	basic_string(const _Elem *_Ptr, size_type _Count)
; 776  : 		: _Mybase()
; 777  : 		{	// construct from [_Ptr, _Ptr + _Count)
; 778  : 		_Tidy();
; 779  : 		assign(_Ptr, _Count);
; 780  : 		}
; 781  : 
; 782  : 	basic_string(const _Elem *_Ptr, size_type _Count, const _Alloc& _Al)
; 783  : 		: _Mybase(_Al)
; 784  : 		{	// construct from [_Ptr, _Ptr + _Count) with allocator
; 785  : 		_Tidy();
; 786  : 		assign(_Ptr, _Count);
; 787  : 		}
; 788  : 
; 789  : 	basic_string(const _Elem *_Ptr)
; 790  : 		: _Mybase()
; 791  : 		{	// construct from [_Ptr, <null>)
; 792  : 		_Tidy();
; 793  : 		assign(_Ptr);
; 794  : 		}
; 795  : 
; 796  : 	basic_string(const _Elem *_Ptr, const _Alloc& _Al)
; 797  : 		: _Mybase(_Al)
; 798  : 		{	// construct from [_Ptr, <null>) with allocator
; 799  : 		_Tidy();
; 800  : 		assign(_Ptr);
; 801  : 		}
; 802  : 
; 803  : 	basic_string(size_type _Count, _Elem _Ch)
; 804  : 		: _Mybase()
; 805  : 		{	// construct from _Count * _Ch
; 806  : 		_Tidy();
; 807  : 		assign(_Count, _Ch);
; 808  : 		}
; 809  : 
; 810  : 	basic_string(size_type _Count, _Elem _Ch, const _Alloc& _Al)
; 811  : 		: _Mybase(_Al)
; 812  : 		{	// construct from _Count * _Ch with allocator
; 813  : 		_Tidy();
; 814  : 		assign(_Count, _Ch);
; 815  : 		}
; 816  : 
; 817  : 	template<class _Iter>
; 818  : 		basic_string(_Iter _First, _Iter _Last,
; 819  : 			typename enable_if<_Is_iterator<_Iter>::value,
; 820  : 				void>::type ** = 0)
; 821  : 		: _Mybase()
; 822  : 		{	// construct from [_First, _Last)
; 823  : 		_Tidy();
; 824  : 		_Construct(_First, _Last, _Iter_cat(_First));
; 825  : 		}
; 826  : 
; 827  : 	template<class _Iter>
; 828  : 		basic_string(_Iter _First, _Iter _Last, const _Alloc& _Al,
; 829  : 			typename enable_if<_Is_iterator<_Iter>::value,
; 830  : 				void>::type ** = 0)
; 831  : 		: _Mybase(_Al)
; 832  : 		{	// construct from [_First, _Last) with allocator
; 833  : 		_Tidy();
; 834  : 		_Construct(_First, _Last, _Iter_cat(_First));
; 835  : 		}
; 836  : 
; 837  : 	template<class _Iter>
; 838  : 		void _Construct(_Iter _First,
; 839  : 			_Iter _Last, input_iterator_tag)
; 840  : 		{	// initialize from [_First, _Last), input iterators
; 841  : 		_TRY_BEGIN
; 842  : 		for (; _First != _Last; ++_First)
; 843  : 			append((size_type)1, (_Elem)*_First);
; 844  : 		_CATCH_ALL
; 845  : 		_Tidy(true);
; 846  : 		_RERAISE;
; 847  : 		_CATCH_END
; 848  : 		}
; 849  : 
; 850  : 	template<class _Iter>
; 851  : 		void _Construct(_Iter _First,
; 852  : 			_Iter _Last, forward_iterator_tag)
; 853  : 		{	// initialize from [_First, _Last), forward iterators
; 854  : 		_DEBUG_RANGE(_First, _Last);
; 855  : 		size_type _Count = 0;
; 856  : 		_Distance(_First, _Last, _Count);
; 857  : 		reserve(_Count);
; 858  : 
; 859  : 		_TRY_BEGIN
; 860  : 		for (; _First != _Last; ++_First)
; 861  : 			append((size_type)1, (_Elem)*_First);
; 862  : 		_CATCH_ALL
; 863  : 		_Tidy(true);
; 864  : 		_RERAISE;
; 865  : 		_CATCH_END
; 866  : 		}
; 867  : 
; 868  : 	basic_string(const_pointer _First, const_pointer _Last)
; 869  : 		: _Mybase()
; 870  : 		{	// construct from [_First, _Last), const pointers
; 871  : 		_DEBUG_RANGE(_First, _Last);
; 872  : 		_Tidy();
; 873  : 		if (_First != _Last)
; 874  : 			assign(&*_First, _Last - _First);
; 875  : 		}
; 876  : 
; 877  : 	basic_string(const_pointer _First, const_pointer _Last,
; 878  : 		const _Alloc& _Al)
; 879  : 		: _Mybase(_Al)
; 880  : 		{	// construct from [_First, _Last), const pointers
; 881  : 		_DEBUG_RANGE(_First, _Last);
; 882  : 		_Tidy();
; 883  : 		if (_First != _Last)
; 884  : 			assign(&*_First, _Last - _First);
; 885  : 		}
; 886  : 
; 887  : 	basic_string(const_iterator _First, const_iterator _Last)
; 888  : 		: _Mybase()
; 889  : 		{	// construct from [_First, _Last), const_iterators
; 890  : 		_DEBUG_RANGE(_First, _Last);
; 891  : 		_Tidy();
; 892  : 		if (_First != _Last)
; 893  : 			assign(&*_First, _Last - _First);
; 894  : 		}
; 895  : 
; 896  : 	basic_string(_Myt&& _Right) _NOEXCEPT
; 897  : 		: _Mybase(_Right._Getal())
; 898  : 		{	// construct by moving _Right
; 899  : 		_Tidy();
; 900  : 		_Assign_rv(_STD forward<_Myt>(_Right));
; 901  : 		}
; 902  : 
; 903  : 	basic_string(_Myt&& _Right, const _Alloc& _Al)
; 904  : 		: _Mybase(_Al)
; 905  : 		{	// construct by moving _Right, allocator
; 906  : 		if (this->_Getal() != _Right._Getal())
; 907  : 			assign(_Right.begin(), _Right.end());
; 908  : 		else
; 909  : 			_Assign_rv(_STD forward<_Myt>(_Right));
; 910  : 		}
; 911  : 
; 912  : 	_Myt& operator=(_Myt&& _Right) _NOEXCEPT
; 913  : 		{	// assign by moving _Right
; 914  : 		if (this != &_Right)
; 915  : 			{	// different, assign it
; 916  : 			_Tidy(true);
; 917  : 
; 918  :  #if _HAS_CPP0X
; 919  : 			if (this->_Getal() != _Right._Getal()
; 920  : 				&& _Alty::propagate_on_container_move_assignment::value)
; 921  : 				this->_Change_alloc(_Right._Getal());
; 922  :  #endif /* _HAS_CPP0X */
; 923  : 
; 924  : 			if (this->_Getal() != _Right._Getal())
; 925  : 				assign(_Right.begin(), _Right.end());
; 926  : 			else
; 927  : 				_Assign_rv(_STD forward<_Myt>(_Right));
; 928  : 			}
; 929  : 		return (*this);
; 930  : 		}
; 931  : 
; 932  : 	_Myt& assign(_Myt&& _Right) _NOEXCEPT
; 933  : 		{	// assign by moving _Right
; 934  : 		if (this == &_Right)
; 935  : 			;
; 936  : 		else if (get_allocator() != _Right.get_allocator()
; 937  : 			&& this->_BUF_SIZE <= _Right._Myres)
; 938  : 			*this = _Right;
; 939  : 		else
; 940  : 			{	// not same, clear this and steal from _Right
; 941  : 			_Tidy(true);
; 942  : 			_Assign_rv(_STD forward<_Myt>(_Right));
; 943  : 			}
; 944  : 		return (*this);
; 945  : 		}
; 946  : 
; 947  : 	void _Assign_rv(_Myt&& _Right)
; 948  : 		{	// assign by moving _Right
; 949  : 		if (_Right._Myres < this->_BUF_SIZE)
; 950  : 			_Traits::move(this->_Bx._Buf, _Right._Bx._Buf,
; 951  : 				_Right._Mysize + 1);
; 952  : 		else
; 953  : 			{	// copy pointer
; 954  : 			this->_Getal().construct(&this->_Bx._Ptr, _Right._Bx._Ptr);
; 955  : 			_Right._Bx._Ptr = pointer();
; 956  : 			}
; 957  : 		this->_Mysize = _Right._Mysize;
; 958  : 		this->_Myres = _Right._Myres;
; 959  : 		_Right._Tidy();
; 960  : 		}
; 961  : 
; 962  : 	~basic_string() _NOEXCEPT
; 963  : 		{	// destroy the string
; 964  : 		_Tidy(true);
; 965  : 		}
; 966  : 
; 967  : 	_PGLOBAL static const size_type npos;	// bad/missing length/position
; 968  : 
; 969  : 	_Myt& operator=(const _Myt& _Right)
; 970  : 		{	// assign _Right
; 971  : 		if (this != &_Right)
; 972  : 			{	// different, assign it
; 973  :  #if _HAS_CPP0X
; 974  : 			if (this->_Getal() != _Right._Getal()
; 975  : 				&& _Alty::propagate_on_container_copy_assignment::value)
; 976  : 				{	// change allocator before copying
; 977  : 				_Tidy(true);
; 978  : 				this->_Change_alloc(_Right._Getal());
; 979  : 				}
; 980  :  #endif /* _HAS_CPP0X */
; 981  : 
; 982  : 			assign(_Right);
; 983  : 			}
; 984  : 		return (*this);
; 985  : 		}
; 986  : 
; 987  : 	_Myt& operator=(const _Elem *_Ptr)
; 988  : 		{	// assign [_Ptr, <null>)
; 989  : 		return (assign(_Ptr));
; 990  : 		}
; 991  : 
; 992  : 	_Myt& operator=(_Elem _Ch)
; 993  : 		{	// assign 1 * _Ch
; 994  : 		return (assign(1, _Ch));
; 995  : 		}
; 996  : 
; 997  : 	_Myt& operator+=(const _Myt& _Right)
; 998  : 		{	// append _Right
; 999  : 		return (append(_Right));
; 1000 : 		}
; 1001 : 
; 1002 : 	_Myt& operator+=(const _Elem *_Ptr)
; 1003 : 		{	// append [_Ptr, <null>)
; 1004 : 		return (append(_Ptr));
; 1005 : 		}
; 1006 : 
; 1007 : 	_Myt& operator+=(_Elem _Ch)
; 1008 : 		{	// append 1 * _Ch
; 1009 : 		return (append((size_type)1, _Ch));
; 1010 : 		}
; 1011 : 
; 1012 : 	_Myt& append(const _Myt& _Right)
; 1013 : 		{	// append _Right
; 1014 : 		return (append(_Right, 0, npos));
; 1015 : 		}
; 1016 : 
; 1017 : 	_Myt& append(const _Myt& _Right,
; 1018 : 		size_type _Roff, size_type _Count)
; 1019 : 		{	// append _Right [_Roff, _Roff + _Count)
; 1020 : 		if (_Right.size() < _Roff)
; 1021 : 			_Xran();	// _Roff off end
; 1022 : 		size_type _Num = _Right.size() - _Roff;
; 1023 : 		if (_Num < _Count)
; 1024 : 			_Count = _Num;	// trim _Count to size
; 1025 : 		if (npos - this->_Mysize <= _Count)
; 1026 : 			_Xlen();	// result too long
; 1027 : 
; 1028 : 		if (0 < _Count && _Grow(_Num = this->_Mysize + _Count))
; 1029 : 			{	// make room and append new stuff
; 1030 : 			_Traits::copy(this->_Myptr() + this->_Mysize,
; 1031 : 				_Right._Myptr() + _Roff, _Count);
; 1032 : 			_Eos(_Num);
; 1033 : 			}
; 1034 : 		return (*this);
; 1035 : 		}
; 1036 : 
; 1037 : 	_Myt& append(const _Elem *_Ptr, size_type _Count)
; 1038 : 		{	// append [_Ptr, _Ptr + _Count)
; 1039 :  #if _ITERATOR_DEBUG_LEVEL == 2
; 1040 : 		if (_Count != 0)
; 1041 : 			_DEBUG_POINTER(_Ptr);
; 1042 :  #endif /* _ITERATOR_DEBUG_LEVEL == 2 */
; 1043 : 
; 1044 : 		if (_Inside(_Ptr))
; 1045 : 			return (append(*this,
; 1046 : 				_Ptr - this->_Myptr(), _Count));	// substring
; 1047 : 		if (npos - this->_Mysize <= _Count)
; 1048 : 			_Xlen();	// result too long
; 1049 : 
; 1050 : 		size_type _Num;
; 1051 : 		if (0 < _Count && _Grow(_Num = this->_Mysize + _Count))
; 1052 : 			{	// make room and append new stuff
; 1053 : 			_Traits::copy(this->_Myptr() + this->_Mysize, _Ptr, _Count);
; 1054 : 			_Eos(_Num);
; 1055 : 			}
; 1056 : 		return (*this);
; 1057 : 		}
; 1058 : 
; 1059 : 	_Myt& append(const _Elem *_Ptr)
; 1060 : 		{	// append [_Ptr, <null>)
; 1061 : 		_DEBUG_POINTER(_Ptr);
; 1062 : 		return (append(_Ptr, _Traits::length(_Ptr)));
; 1063 : 		}
; 1064 : 
; 1065 : 	_Myt& append(size_type _Count, _Elem _Ch)
; 1066 : 		{	// append _Count * _Ch
; 1067 : 		if (npos - this->_Mysize <= _Count)
; 1068 : 			_Xlen();	// result too long
; 1069 : 
; 1070 : 		size_type _Num;
; 1071 : 		if (0 < _Count && _Grow(_Num = this->_Mysize + _Count))
; 1072 : 			{	// make room and append new stuff using assign
; 1073 : 			_Chassign(this->_Mysize, _Count, _Ch);
; 1074 : 			_Eos(_Num);
; 1075 : 			}
; 1076 : 		return (*this);
; 1077 : 		}
; 1078 : 
; 1079 : 	template<class _Iter>
; 1080 : 		typename enable_if<_Is_iterator<_Iter>::value,
; 1081 : 			_Myt&>::type
; 1082 : 		append(_Iter _First, _Iter _Last)
; 1083 : 		{	// append [_First, _Last), input iterators
; 1084 : 		return (replace(end(), end(), _First, _Last));
; 1085 : 		}
; 1086 : 
; 1087 : 	_Myt& append(const_pointer _First, const_pointer _Last)
; 1088 : 		{	// append [_First, _Last), const pointers
; 1089 : 		return (replace(end(), end(), _First, _Last));
; 1090 : 		}
; 1091 : 
; 1092 : 	_Myt& append(const_iterator _First, const_iterator _Last)
; 1093 : 		{	// append [_First, _Last), const_iterators
; 1094 : 		return (replace(end(), end(), _First, _Last));
; 1095 : 		}
; 1096 : 
; 1097 : 	_Myt& assign(const _Myt& _Right)
; 1098 : 		{	// assign _Right
; 1099 : 		return (assign(_Right, 0, npos));
; 1100 : 		}
; 1101 : 
; 1102 : 	_Myt& assign(const _Myt& _Right,
; 1103 : 		size_type _Roff, size_type _Count)
; 1104 : 		{	// assign _Right [_Roff, _Roff + _Count)
; 1105 : 		if (_Right.size() < _Roff)
; 1106 : 			_Xran();	// _Roff off end
; 1107 : 		size_type _Num = _Right.size() - _Roff;
; 1108 : 		if (_Count < _Num)
; 1109 : 			_Num = _Count;	// trim _Num to size
; 1110 : 
; 1111 : 		if (this == &_Right)
; 1112 : 			erase((size_type)(_Roff + _Num)), erase(0, _Roff);	// substring
; 1113 : 		else if (_Grow(_Num))
; 1114 : 			{	// make room and assign new stuff
; 1115 : 			_Traits::copy(this->_Myptr(),
; 1116 : 				_Right._Myptr() + _Roff, _Num);
; 1117 : 			_Eos(_Num);
; 1118 : 			}
; 1119 : 		return (*this);
; 1120 : 		}
; 1121 : 
; 1122 : 	_Myt& assign(const _Elem *_Ptr, size_type _Count)
; 1123 : 		{	// assign [_Ptr, _Ptr + _Count)
; 1124 :  #if _ITERATOR_DEBUG_LEVEL == 2
; 1125 : 		if (_Count != 0)
; 1126 : 			_DEBUG_POINTER(_Ptr);
; 1127 :  #endif /* _ITERATOR_DEBUG_LEVEL == 2 */
; 1128 : 
; 1129 : 		if (_Inside(_Ptr))
; 1130 : 			return (assign(*this,
; 1131 : 				_Ptr - this->_Myptr(), _Count));	// substring
; 1132 : 
; 1133 : 		if (_Grow(_Count))
; 1134 : 			{	// make room and assign new stuff
; 1135 : 			_Traits::copy(this->_Myptr(), _Ptr, _Count);
; 1136 : 			_Eos(_Count);
; 1137 : 			}
; 1138 : 		return (*this);
; 1139 : 		}
; 1140 : 
; 1141 : 	_Myt& assign(const _Elem *_Ptr)
; 1142 : 		{	// assign [_Ptr, <null>)
; 1143 : 		_DEBUG_POINTER(_Ptr);
; 1144 : 		return (assign(_Ptr, _Traits::length(_Ptr)));
; 1145 : 		}
; 1146 : 
; 1147 : 	_Myt& assign(size_type _Count, _Elem _Ch)
; 1148 : 		{	// assign _Count * _Ch
; 1149 : 		if (_Count == npos)
; 1150 : 			_Xlen();	// result too long
; 1151 : 
; 1152 : 		if (_Grow(_Count))
; 1153 : 			{	// make room and assign new stuff
; 1154 : 			_Chassign(0, _Count, _Ch);
; 1155 : 			_Eos(_Count);
; 1156 : 			}
; 1157 : 		return (*this);
; 1158 : 		}
; 1159 : 
; 1160 : 	template<class _Iter>
; 1161 : 		typename enable_if<_Is_iterator<_Iter>::value,
; 1162 : 			_Myt&>::type
; 1163 : 		assign(_Iter _First, _Iter _Last)
; 1164 : 		{	// assign [First, _Last), input iterators
; 1165 : 		return (replace(begin(), end(), _First, _Last));
; 1166 : 		}
; 1167 : 
; 1168 : 	_Myt& assign(const_pointer _First, const_pointer _Last)
; 1169 : 		{	// assign [First, _Last), const pointers
; 1170 : 		return (replace(begin(), end(), _First, _Last));
; 1171 : 		}
; 1172 : 
; 1173 : 	_Myt& assign(const_iterator _First, const_iterator _Last)
; 1174 : 		{	// assign [First, _Last), const_iterators
; 1175 : 		return (replace(begin(), end(), _First, _Last));
; 1176 : 		}
; 1177 : 
; 1178 : 	_Myt& insert(size_type _Off, const _Myt& _Right)
; 1179 : 		{	// insert _Right at _Off
; 1180 : 		return (insert(_Off, _Right, 0, npos));
; 1181 : 		}
; 1182 : 
; 1183 : 	_Myt& insert(size_type _Off,
; 1184 : 		const _Myt& _Right, size_type _Roff, size_type _Count)
; 1185 : 		{	// insert _Right [_Roff, _Roff + _Count) at _Off
; 1186 : 		if (this->_Mysize < _Off || _Right.size() < _Roff)
; 1187 : 			_Xran();	// _Off or _Roff off end
; 1188 : 		size_type _Num = _Right.size() - _Roff;
; 1189 : 		if (_Num < _Count)
; 1190 : 			_Count = _Num;	// trim _Count to size
; 1191 : 		if (npos - this->_Mysize <= _Count)
; 1192 : 			_Xlen();	// result too long
; 1193 : 
; 1194 : 		if (0 < _Count && _Grow(_Num = this->_Mysize + _Count))
; 1195 : 			{	// make room and insert new stuff
; 1196 : 			_Traits::move(this->_Myptr() + _Off + _Count,
; 1197 : 				this->_Myptr() + _Off,
; 1198 : 				this->_Mysize - _Off);	// empty out hole
; 1199 : 			if (this == &_Right)
; 1200 : 				_Traits::move(this->_Myptr() + _Off,
; 1201 : 					this->_Myptr() + (_Off < _Roff ? _Roff + _Count : _Roff),
; 1202 : 						_Count);	// substring
; 1203 : 			else
; 1204 : 				_Traits::copy(this->_Myptr() + _Off,
; 1205 : 					_Right._Myptr() + _Roff, _Count);	// fill hole
; 1206 : 			_Eos(_Num);
; 1207 : 			}
; 1208 : 		return (*this);
; 1209 : 		}
; 1210 : 
; 1211 : 	_Myt& insert(size_type _Off,
; 1212 : 		const _Elem *_Ptr, size_type _Count)
; 1213 : 		{	// insert [_Ptr, _Ptr + _Count) at _Off
; 1214 :  #if _ITERATOR_DEBUG_LEVEL == 2
; 1215 : 		if (_Count != 0)
; 1216 : 			_DEBUG_POINTER(_Ptr);
; 1217 :  #endif /* _ITERATOR_DEBUG_LEVEL == 2 */
; 1218 : 
; 1219 : 		if (_Inside(_Ptr))
; 1220 : 			return (insert(_Off, *this,
; 1221 : 				_Ptr - this->_Myptr(), _Count));	// substring
; 1222 : 		if (this->_Mysize < _Off)
; 1223 : 			_Xran();	// _Off off end
; 1224 : 		if (npos - this->_Mysize <= _Count)
; 1225 : 			_Xlen();	// result too long
; 1226 : 		size_type _Num;
; 1227 : 		if (0 < _Count && _Grow(_Num = this->_Mysize + _Count))
; 1228 : 			{	// make room and insert new stuff
; 1229 : 			_Traits::move(this->_Myptr() + _Off + _Count,
; 1230 : 				this->_Myptr() + _Off,
; 1231 : 				this->_Mysize - _Off);	// empty out hole
; 1232 : 			_Traits::copy(this->_Myptr() + _Off, _Ptr, _Count);	// fill hole
; 1233 : 			_Eos(_Num);
; 1234 : 			}
; 1235 : 		return (*this);
; 1236 : 		}
; 1237 : 
; 1238 : 	_Myt& insert(size_type _Off, const _Elem *_Ptr)
; 1239 : 		{	// insert [_Ptr, <null>) at _Off
; 1240 : 		_DEBUG_POINTER(_Ptr);
; 1241 : 		return (insert(_Off, _Ptr, _Traits::length(_Ptr)));
; 1242 : 		}
; 1243 : 
; 1244 : 	_Myt& insert(size_type _Off,
; 1245 : 		size_type _Count, _Elem _Ch)
; 1246 : 		{	// insert _Count * _Ch at _Off
; 1247 : 		if (this->_Mysize < _Off)
; 1248 : 			_Xran();	// _Off off end
; 1249 : 		if (npos - this->_Mysize <= _Count)
; 1250 : 			_Xlen();	// result too long
; 1251 : 		size_type _Num;
; 1252 : 		if (0 < _Count && _Grow(_Num = this->_Mysize + _Count))
; 1253 : 			{	// make room and insert new stuff
; 1254 : 			_Traits::move(this->_Myptr() + _Off + _Count,
; 1255 : 				this->_Myptr() + _Off,
; 1256 : 				this->_Mysize - _Off);	// empty out hole
; 1257 : 			_Chassign(_Off, _Count, _Ch);	// fill hole
; 1258 : 			_Eos(_Num);
; 1259 : 			}
; 1260 : 		return (*this);
; 1261 : 		}
; 1262 : 
; 1263 : 	iterator insert(const_iterator _Where)
; 1264 : 		{	// insert <null> at _Where
; 1265 : 		return (insert(_Where, _Elem()));
; 1266 : 		}
; 1267 : 
; 1268 : 	iterator insert(const_iterator _Where, _Elem _Ch)
; 1269 : 		{	// insert _Ch at _Where
; 1270 : 		size_type _Off = _Pdif(_Where, begin());
; 1271 : 		insert(_Off, 1, _Ch);
; 1272 : 		return (begin() + _Off);
; 1273 : 		}
; 1274 : 
; 1275 : 	iterator insert(const_iterator _Where, size_type _Count, _Elem _Ch)
; 1276 : 		{	// insert _Count * _Elem at _Where
; 1277 : 		size_type _Off = _Pdif(_Where, begin());
; 1278 : 		insert(_Off, _Count, _Ch);
; 1279 : 		return (begin() + _Off);
; 1280 : 		}
; 1281 : 
; 1282 : 	template<class _Iter>
; 1283 : 		typename enable_if<_Is_iterator<_Iter>::value,
; 1284 : 			iterator>::type
; 1285 : 		insert(const_iterator _Where, _Iter _First, _Iter _Last)
; 1286 : 		{	// insert [_First, _Last) at _Where, input iterators
; 1287 : 		size_type _Off = _Pdif(_Where, begin());
; 1288 : 		replace(_Where, _Where, _First, _Last);
; 1289 : 		return (begin() + _Off);
; 1290 : 		}
; 1291 : 
; 1292 : 	iterator insert(const_iterator _Where,
; 1293 : 		const_pointer _First, const_pointer _Last)
; 1294 : 		{	// insert [_First, _Last) at _Where, const pointers
; 1295 : 		size_type _Off = _Pdif(_Where, begin());
; 1296 : 		replace(_Where, _Where, _First, _Last);
; 1297 : 		return (begin() + _Off);
; 1298 : 		}
; 1299 : 
; 1300 : 	iterator insert(const_iterator _Where,
; 1301 : 		const_iterator _First, const_iterator _Last)
; 1302 : 		{	// insert [_First, _Last) at _Where, const_iterators
; 1303 : 		size_type _Off = _Pdif(_Where, begin());
; 1304 : 		replace(_Where, _Where, _First, _Last);
; 1305 : 		return (begin() + _Off);
; 1306 : 		}
; 1307 : 
; 1308 : 	_Myt& erase(size_type _Off = 0)
; 1309 : 		{	// erase elements [_Off, ...)
; 1310 : 		if (this->_Mysize < _Off)
; 1311 : 			_Xran();	// _Off off end
; 1312 : 		_Eos(_Off);
; 1313 : 		return (*this);
; 1314 : 		}
; 1315 : 
; 1316 : 	_Myt& erase(size_type _Off, size_type _Count)
; 1317 : 		{	// erase elements [_Off, _Off + _Count)
; 1318 : 		if (this->_Mysize < _Off)
; 1319 : 			_Xran();	// _Off off end
; 1320 : 		if (this->_Mysize - _Off <= _Count)
; 1321 : 			_Eos(_Off);	// erase elements [_Off, ...)
; 1322 : 		else if (0 < _Count)
; 1323 : 			{	// move elements down
; 1324 : 			value_type *_Ptr = this->_Myptr() + _Off;
; 1325 : 			size_type _Newsize = this->_Mysize - _Count;
; 1326 : 			_Traits::move(_Ptr, _Ptr + _Count, _Newsize - _Off);
; 1327 : 			_Eos(_Newsize);
; 1328 : 			}
; 1329 : 		return (*this);
; 1330 : 		}
; 1331 : 
; 1332 : 	iterator erase(const_iterator _Where)
; 1333 : 		{	// erase element at _Where
; 1334 : 		size_type _Count = _Pdif(_Where, begin());
; 1335 : 		erase(_Count, 1);
; 1336 : 		return (_STRING_ITERATOR(this->_Myptr() + _Count));
; 1337 : 		}
; 1338 : 
; 1339 : 	iterator erase(const_iterator _First, const_iterator _Last)
; 1340 : 		{	// erase substring [_First, _Last)
; 1341 : 		_DEBUG_RANGE(_First, _Last);
; 1342 : 		size_type _Count = _Pdif(_First, begin());
; 1343 : 		erase(_Count, _Pdif(_Last, _First));
; 1344 : 		return (_STRING_ITERATOR(this->_Myptr() + _Count));
; 1345 : 		}
; 1346 : 
; 1347 : 	void clear() _NOEXCEPT
; 1348 : 		{	// erase all
; 1349 : 		_Eos(0);
; 1350 : 		}
; 1351 : 
; 1352 : 	_Myt& replace(size_type _Off, size_type _N0, const _Myt& _Right)
; 1353 : 		{	// replace [_Off, _Off + _N0) with _Right
; 1354 : 		return (replace(_Off, _N0, _Right, 0, npos));
; 1355 : 		}
; 1356 : 
; 1357 : 	_Myt& replace(size_type _Off,
; 1358 : 		size_type _N0, const _Myt& _Right, size_type _Roff, size_type _Count)
; 1359 : 		{	// replace [_Off, _Off + _N0) with _Right [_Roff, _Roff + _Count)
; 1360 : 		if (this->_Mysize < _Off || _Right.size() < _Roff)
; 1361 : 			_Xran();	// _Off or _Roff off end
; 1362 : 		if (this->_Mysize - _Off < _N0)
; 1363 : 			_N0 = this->_Mysize - _Off;	// trim _N0 to size
; 1364 : 		size_type _Num = _Right.size() - _Roff;
; 1365 : 		if (_Num < _Count)
; 1366 : 			_Count = _Num;	// trim _Count to size
; 1367 : 		if (npos - _Count <= this->_Mysize - _N0)
; 1368 : 			_Xlen();	// result too long
; 1369 : 
; 1370 : 		size_type _Nm = this->_Mysize - _N0 - _Off;	// length of kept tail
; 1371 : 		size_type _Newsize = this->_Mysize + _Count - _N0;
; 1372 : 		if (this->_Mysize < _Newsize)
; 1373 : 			_Grow(_Newsize);
; 1374 : 
; 1375 : 		if (this != &_Right)
; 1376 : 			{	// no overlap, just move down and copy in new stuff
; 1377 : 			_Traits::move(this->_Myptr() + _Off + _Count,
; 1378 : 				this->_Myptr() + _Off + _N0, _Nm);	// empty hole
; 1379 : 			_Traits::copy(this->_Myptr() + _Off,
; 1380 : 				_Right._Myptr() + _Roff, _Count);	// fill hole
; 1381 : 			}
; 1382 : 		else if (_Count <= _N0)
; 1383 : 			{	// hole doesn't get larger, just copy in substring
; 1384 : 			_Traits::move(this->_Myptr() + _Off,
; 1385 : 				this->_Myptr() + _Roff, _Count);	// fill hole
; 1386 : 			_Traits::move(this->_Myptr() + _Off + _Count,
; 1387 : 				this->_Myptr() + _Off + _N0, _Nm);	// move tail down
; 1388 : 			}
; 1389 : 		else if (_Roff <= _Off)
; 1390 : 			{	// hole gets larger, substring begins before hole
; 1391 : 			_Traits::move(this->_Myptr() + _Off + _Count,
; 1392 : 				this->_Myptr() + _Off + _N0, _Nm);	// move tail down
; 1393 : 			_Traits::move(this->_Myptr() + _Off,
; 1394 : 				this->_Myptr() + _Roff, _Count);	// fill hole
; 1395 : 			}
; 1396 : 		else if (_Off + _N0 <= _Roff)
; 1397 : 			{	// hole gets larger, substring begins after hole
; 1398 : 			_Traits::move(this->_Myptr() + _Off + _Count,
; 1399 : 				this->_Myptr() + _Off + _N0, _Nm);	// move tail down
; 1400 : 			_Traits::move(this->_Myptr() + _Off,
; 1401 : 				this->_Myptr() + (_Roff + _Count - _N0),
; 1402 : 				_Count);	// fill hole
; 1403 : 			}
; 1404 : 		else
; 1405 : 			{	// hole gets larger, substring begins in hole
; 1406 : 			_Traits::move(this->_Myptr() + _Off,
; 1407 : 				this->_Myptr() + _Roff, _N0);	// fill old hole
; 1408 : 			_Traits::move(this->_Myptr() + _Off + _Count,
; 1409 : 				this->_Myptr() + _Off + _N0, _Nm);	// move tail down
; 1410 : 			_Traits::move(this->_Myptr() + _Off + _N0,
; 1411 : 				this->_Myptr() + _Roff + _Count,
; 1412 : 				_Count - _N0);	// fill rest of new hole
; 1413 : 			}
; 1414 : 
; 1415 : 		_Eos(_Newsize);
; 1416 : 		return (*this);
; 1417 : 		}
; 1418 : 
; 1419 : 	_Myt& replace(size_type _Off,
; 1420 : 		size_type _N0, const _Elem *_Ptr, size_type _Count)
; 1421 : 		{	// replace [_Off, _Off + _N0) with [_Ptr, _Ptr + _Count)
; 1422 :  #if _ITERATOR_DEBUG_LEVEL == 2
; 1423 : 		if (_Count != 0)
; 1424 : 			_DEBUG_POINTER(_Ptr);
; 1425 :  #endif /* _ITERATOR_DEBUG_LEVEL == 2 */
; 1426 : 
; 1427 : 		if (_Inside(_Ptr))
; 1428 : 			return (replace(_Off, _N0, *this,
; 1429 : 				_Ptr - this->_Myptr(),
; 1430 : 				_Count));	// substring, replace carefully
; 1431 : 		if (this->_Mysize < _Off)
; 1432 : 			_Xran();	// _Off off end
; 1433 : 		if (this->_Mysize - _Off < _N0)
; 1434 : 			_N0 = this->_Mysize - _Off;	// trim _N0 to size
; 1435 : 		if (npos - _Count <= this->_Mysize - _N0)
; 1436 : 			_Xlen();	// result too long
; 1437 : 		size_type _Nm = this->_Mysize - _N0 - _Off;
; 1438 : 
; 1439 : 		if (_Count < _N0)
; 1440 : 			_Traits::move(this->_Myptr() + _Off + _Count,
; 1441 : 				this->_Myptr() + _Off + _N0,
; 1442 : 				_Nm);	// smaller hole, move tail up
; 1443 : 		size_type _Num;
; 1444 : 		if ((0 < _Count || 0 < _N0)
; 1445 : 			&& _Grow(_Num = this->_Mysize + _Count - _N0))
; 1446 : 			{	// make room and rearrange
; 1447 : 			if (_N0 < _Count)
; 1448 : 				_Traits::move(this->_Myptr() + _Off + _Count,
; 1449 : 					this->_Myptr() + _Off + _N0, _Nm);	// move tail down
; 1450 : 			_Traits::copy(this->_Myptr() + _Off, _Ptr, _Count);	// fill hole
; 1451 : 			_Eos(_Num);
; 1452 : 			}
; 1453 : 		return (*this);
; 1454 : 		}
; 1455 : 
; 1456 : 	_Myt& replace(size_type _Off, size_type _N0, const _Elem *_Ptr)
; 1457 : 		{	// replace [_Off, _Off + _N0) with [_Ptr, <null>)
; 1458 : 		_DEBUG_POINTER(_Ptr);
; 1459 : 		return (replace(_Off, _N0, _Ptr, _Traits::length(_Ptr)));
; 1460 : 		}
; 1461 : 
; 1462 : 	_Myt& replace(size_type _Off,
; 1463 : 		size_type _N0, size_type _Count, _Elem _Ch)
; 1464 : 		{	// replace [_Off, _Off + _N0) with _Count * _Ch
; 1465 : 		if (this->_Mysize < _Off)
; 1466 : 			_Xran();	// _Off off end
; 1467 : 		if (this->_Mysize - _Off < _N0)
; 1468 : 			_N0 = this->_Mysize - _Off;	// trim _N0 to size
; 1469 : 		if (npos - _Count <= this->_Mysize - _N0)
; 1470 : 			_Xlen();	// result too long
; 1471 : 		size_type _Nm = this->_Mysize - _N0 - _Off;
; 1472 : 
; 1473 : 		if (_Count < _N0)
; 1474 : 			_Traits::move(this->_Myptr() + _Off + _Count,
; 1475 : 				this->_Myptr() + _Off + _N0,
; 1476 : 				_Nm);	// smaller hole, move tail up
; 1477 : 		size_type _Num;
; 1478 : 		if ((0 < _Count || 0 < _N0)
; 1479 : 			&& _Grow(_Num = this->_Mysize + _Count - _N0))
; 1480 : 			{	// make room and rearrange
; 1481 : 			if (_N0 < _Count)
; 1482 : 				_Traits::move(this->_Myptr() + _Off + _Count,
; 1483 : 					this->_Myptr() + _Off + _N0, _Nm);	// move tail down
; 1484 : 			_Chassign(_Off, _Count, _Ch);	// fill hole
; 1485 : 			_Eos(_Num);
; 1486 : 			}
; 1487 : 		return (*this);
; 1488 : 		}
; 1489 : 
; 1490 : 	_Myt& replace(const_iterator _First, const_iterator _Last,
; 1491 : 		const _Myt& _Right)
; 1492 : 		{	// replace [_First, _Last) with _Right
; 1493 : 		return (replace(
; 1494 : 			_Pdif(_First, begin()), _Pdif(_Last, _First), _Right));
; 1495 : 		}
; 1496 : 
; 1497 : 	_Myt& replace(const_iterator _First, const_iterator _Last,
; 1498 : 		const _Elem *_Ptr, size_type _Count)
; 1499 : 		{	// replace [_First, _Last) with [_Ptr, _Ptr + _Count)
; 1500 : 		return (replace(
; 1501 : 			_Pdif(_First, begin()), _Pdif(_Last, _First), _Ptr, _Count));
; 1502 : 		}
; 1503 : 
; 1504 : 	_Myt& replace(const_iterator _First, const_iterator _Last,
; 1505 : 		const _Elem *_Ptr)
; 1506 : 		{	// replace [_First, _Last) with [_Ptr, <null>)
; 1507 : 		return (replace(
; 1508 : 			_Pdif(_First, begin()), _Pdif(_Last, _First), _Ptr));
; 1509 : 		}
; 1510 : 
; 1511 : 	_Myt& replace(const_iterator _First, const_iterator _Last,
; 1512 : 		size_type _Count, _Elem _Ch)
; 1513 : 		{	// replace [_First, _Last) with _Count * _Ch
; 1514 : 		return (replace(
; 1515 : 			_Pdif(_First, begin()), _Pdif(_Last, _First), _Count, _Ch));
; 1516 : 		}
; 1517 : 
; 1518 : 	template<class _Iter>
; 1519 : 		typename enable_if<_Is_iterator<_Iter>::value,
; 1520 : 			_Myt&>::type
; 1521 : 		replace(const_iterator _First, const_iterator _Last,
; 1522 : 			_Iter _First2, _Iter _Last2)
; 1523 : 		{	// replace [_First, _Last) with [_First2, _Last2), input iterators
; 1524 : 		_Myt _Right(_First2, _Last2);
; 1525 : 		replace(_First, _Last, _Right);
; 1526 : 		return (*this);
; 1527 : 		}
; 1528 : 
; 1529 : 	_Myt& replace(const_iterator _First, const_iterator _Last,
; 1530 : 		const_pointer _First2, const_pointer _Last2)
; 1531 : 		{	// replace [_First, _Last) with [_First2, _Last2), const pointers
; 1532 : 		if (_First2 == _Last2)
; 1533 : 			erase(_Pdif(_First, begin()), _Pdif(_Last, _First));
; 1534 : 		else
; 1535 : 			replace(_Pdif(_First, begin()), _Pdif(_Last, _First),
; 1536 : 				&*_First2, _Last2 - _First2);
; 1537 : 		return (*this);
; 1538 : 		}
; 1539 : 
; 1540 : 	_Myt& replace(const_iterator _First, const_iterator _Last,
; 1541 : 		pointer _First2, pointer _Last2)
; 1542 : 		{	// replace [_First, _Last) with [_First2, _Last2), const pointers
; 1543 : 		if (_First2 == _Last2)
; 1544 : 			erase(_Pdif(_First, begin()), _Pdif(_Last, _First));
; 1545 : 		else
; 1546 : 			replace(_Pdif(_First, begin()), _Pdif(_Last, _First),
; 1547 : 				&*_First2, _Last2 - _First2);
; 1548 : 		return (*this);
; 1549 : 		}
; 1550 : 
; 1551 : 	_Myt& replace(const_iterator _First, const_iterator _Last,
; 1552 : 		const_iterator _First2, const_iterator _Last2)
; 1553 : 		{	// replace [_First, _Last) with [_First2, _Last2), const_iterators
; 1554 : 		if (_First2 == _Last2)
; 1555 : 			erase(_Pdif(_First, begin()), _Pdif(_Last, _First));
; 1556 : 		else
; 1557 : 			replace(_Pdif(_First, begin()), _Pdif(_Last, _First),
; 1558 : 				&*_First2, _Last2 - _First2);
; 1559 : 		return (*this);
; 1560 : 		}
; 1561 : 
; 1562 : 	_Myt& replace(const_iterator _First, const_iterator _Last,
; 1563 : 		iterator _First2, iterator _Last2)
; 1564 : 		{	// replace [_First, _Last) with [_First2, _Last2), const_iterators
; 1565 : 		if (_First2 == _Last2)
; 1566 : 			erase(_Pdif(_First, begin()), _Pdif(_Last, _First));
; 1567 : 		else
; 1568 : 			replace(_Pdif(_First, begin()), _Pdif(_Last, _First),
; 1569 : 				&*_First2, _Last2 - _First2);
; 1570 : 		return (*this);
; 1571 : 		}
; 1572 : 
; 1573 : 	iterator begin() _NOEXCEPT
; 1574 : 		{	// return iterator for beginning of mutable sequence
; 1575 : 		return (_STRING_ITERATOR(this->_Myptr()));
; 1576 : 		}
; 1577 : 
; 1578 : 	const_iterator begin() const _NOEXCEPT
; 1579 : 		{	// return iterator for beginning of nonmutable sequence
; 1580 : 		return (_STRING_CONST_ITERATOR(this->_Myptr()));
; 1581 : 		}
; 1582 : 
; 1583 : 	iterator end() _NOEXCEPT
; 1584 : 		{	// return iterator for end of mutable sequence
; 1585 : 		return (_STRING_ITERATOR(this->_Myptr() + this->_Mysize));
; 1586 : 		}
; 1587 : 
; 1588 : 	const_iterator end() const _NOEXCEPT
; 1589 : 		{	// return iterator for end of nonmutable sequence
; 1590 : 		return (_STRING_CONST_ITERATOR(this->_Myptr() + this->_Mysize));
; 1591 : 		}
; 1592 : 
; 1593 : 	reverse_iterator rbegin() _NOEXCEPT
; 1594 : 		{	// return iterator for beginning of reversed mutable sequence
; 1595 : 		return (reverse_iterator(end()));
; 1596 : 		}
; 1597 : 
; 1598 : 	const_reverse_iterator rbegin() const _NOEXCEPT
; 1599 : 		{	// return iterator for beginning of reversed nonmutable sequence
; 1600 : 		return (const_reverse_iterator(end()));
; 1601 : 		}
; 1602 : 
; 1603 : 	reverse_iterator rend() _NOEXCEPT
; 1604 : 		{	// return iterator for end of reversed mutable sequence
; 1605 : 		return (reverse_iterator(begin()));
; 1606 : 		}
; 1607 : 
; 1608 : 	const_reverse_iterator rend() const _NOEXCEPT
; 1609 : 		{	// return iterator for end of reversed nonmutable sequence
; 1610 : 		return (const_reverse_iterator(begin()));
; 1611 : 		}
; 1612 : 
; 1613 :  #if _HAS_CPP0X
; 1614 : 	const_iterator cbegin() const _NOEXCEPT
; 1615 : 		{	// return iterator for beginning of nonmutable sequence
; 1616 : 		return (((const _Myt *)this)->begin());
; 1617 : 		}
; 1618 : 
; 1619 : 	const_iterator cend() const _NOEXCEPT
; 1620 : 		{	// return iterator for end of nonmutable sequence
; 1621 : 		return (((const _Myt *)this)->end());
; 1622 : 		}
; 1623 : 
; 1624 : 	const_reverse_iterator crbegin() const _NOEXCEPT
; 1625 : 		{	// return iterator for beginning of reversed nonmutable sequence
; 1626 : 		return (((const _Myt *)this)->rbegin());
; 1627 : 		}
; 1628 : 
; 1629 : 	const_reverse_iterator crend() const _NOEXCEPT
; 1630 : 		{	// return iterator for end of reversed nonmutable sequence
; 1631 : 		return (((const _Myt *)this)->rend());
; 1632 : 		}
; 1633 : 
; 1634 : 	void shrink_to_fit()
; 1635 : 		{	// reduce capacity
; 1636 : 		if ((size() | this->_ALLOC_MASK) < capacity())
; 1637 : 			{	// worth shrinking, do it
; 1638 : 			_Myt _Tmp(*this);
; 1639 : 			swap(_Tmp);
; 1640 : 			}
; 1641 : 		}
; 1642 :  #endif /* _HAS_CPP0X */
; 1643 : 
; 1644 : 	reference at(size_type _Off)
; 1645 : 		{	// subscript mutable sequence with checking
; 1646 : 		if (this->_Mysize <= _Off)
; 1647 : 			_Xran();	// _Off off end
; 1648 : 		return (this->_Myptr()[_Off]);
; 1649 : 		}
; 1650 : 
; 1651 : 	const_reference at(size_type _Off) const
; 1652 : 		{	// subscript nonmutable sequence with checking
; 1653 : 		if (this->_Mysize <= _Off)
; 1654 : 			_Xran();	// _Off off end
; 1655 : 		return (this->_Myptr()[_Off]);
; 1656 : 		}
; 1657 : 
; 1658 : 	reference operator[](size_type _Off)
; 1659 : 		{	// subscript mutable sequence
; 1660 :  #if _ITERATOR_DEBUG_LEVEL == 2
; 1661 : 		if (this->_Mysize < _Off)	// sic
; 1662 : 			_DEBUG_ERROR("string subscript out of range");
; 1663 : 
; 1664 :  #elif _ITERATOR_DEBUG_LEVEL == 1
; 1665 : 		_SCL_SECURE_VALIDATE_RANGE(_Off <= this->_Mysize);	// sic
; 1666 :  #endif /* _ITERATOR_DEBUG_LEVEL == 2 */
; 1667 : 
; 1668 : 		return (this->_Myptr()[_Off]);
; 1669 : 		}
; 1670 : 
; 1671 : 	const_reference operator[](size_type _Off) const
; 1672 : 		{	// subscript nonmutable sequence
; 1673 :  #if _ITERATOR_DEBUG_LEVEL == 2
; 1674 : 		if (this->_Mysize < _Off)	// sic
; 1675 : 			_DEBUG_ERROR("string subscript out of range");
; 1676 : 
; 1677 :  #elif _ITERATOR_DEBUG_LEVEL == 1
; 1678 : 		_SCL_SECURE_VALIDATE_RANGE(_Off <= this->_Mysize);	// sic
; 1679 :  #endif /* _ITERATOR_DEBUG_LEVEL == 2 */
; 1680 : 
; 1681 : 		return (this->_Myptr()[_Off]);
; 1682 : 		}
; 1683 : 
; 1684 : 	void push_back(_Elem _Ch)
; 1685 : 		{	// insert element at end
; 1686 : 		insert(end(), _Ch);
; 1687 : 		}
; 1688 : 
; 1689 :  #if _HAS_CPP0X
; 1690 : 	void pop_back()
; 1691 : 		{	// erase element at end
; 1692 : 		erase(this->_Mysize - 1);	// throws if _Mysize == 0
; 1693 : 		}
; 1694 : 
; 1695 : 	reference front()
; 1696 : 		{	// return first element of mutable sequence
; 1697 : 		return (*begin());
; 1698 : 		}
; 1699 : 
; 1700 : 	const_reference front() const
; 1701 : 		{	// return first element of nonmutable sequence
; 1702 : 		return (*begin());
; 1703 : 		}
; 1704 : 
; 1705 : 	reference back()
; 1706 : 		{	// return last element of mutable sequence
; 1707 : 		return (*(end() - 1));
; 1708 : 		}
; 1709 : 
; 1710 : 	const_reference back() const
; 1711 : 		{	// return last element of nonmutable sequence
; 1712 : 		return (*(end() - 1));
; 1713 : 		}
; 1714 :  #endif /* _HAS_CPP0X */
; 1715 : 
; 1716 : 	const _Elem *c_str() const _NOEXCEPT
; 1717 : 		{	// return pointer to null-terminated nonmutable array
; 1718 : 		return (this->_Myptr());
; 1719 : 		}
; 1720 : 
; 1721 : 	const _Elem *data() const _NOEXCEPT
; 1722 : 		{	// return pointer to nonmutable array
; 1723 : 		return (c_str());
; 1724 : 		}
; 1725 : 
; 1726 : 	size_type length() const _NOEXCEPT
; 1727 : 		{	// return length of sequence
; 1728 : 		return (this->_Mysize);
; 1729 : 		}
; 1730 : 
; 1731 : 	size_type size() const _NOEXCEPT
; 1732 : 		{	// return length of sequence
; 1733 : 		return (this->_Mysize);
; 1734 : 		}
; 1735 : 
; 1736 : 	size_type max_size() const _NOEXCEPT
; 1737 : 		{	// return maximum possible length of sequence
; 1738 : 		size_type _Num = this->_Getal().max_size();
; 1739 : 		return (_Num <= 1 ? 1 : _Num - 1);
; 1740 : 		}
; 1741 : 
; 1742 : 	void resize(size_type _Newsize)
; 1743 : 		{	// determine new length, padding with null elements as needed
; 1744 : 		resize(_Newsize, _Elem());
; 1745 : 		}
; 1746 : 
; 1747 : 	void resize(size_type _Newsize, _Elem _Ch)
; 1748 : 		{	// determine new length, padding with _Ch elements as needed
; 1749 : 		if (_Newsize <= this->_Mysize)
; 1750 : 			_Eos(_Newsize);
; 1751 : 		else
; 1752 : 			append(_Newsize - this->_Mysize, _Ch);
; 1753 : 		}
; 1754 : 
; 1755 : 	size_type capacity() const _NOEXCEPT
; 1756 : 		{	// return current length of allocated storage
; 1757 : 		return (this->_Myres);
; 1758 : 		}
; 1759 : 
; 1760 : 	void reserve(size_type _Newcap = 0)
; 1761 : 		{	// determine new minimum length of allocated storage
; 1762 : 		if (this->_Mysize <= _Newcap && this->_Myres != _Newcap)
; 1763 : 			{	// change reservation
; 1764 : 			size_type _Size = this->_Mysize;
; 1765 : 			if (_Grow(_Newcap, true))
; 1766 : 				_Eos(_Size);
; 1767 : 			}
; 1768 : 		}
; 1769 : 
; 1770 : 	bool empty() const _NOEXCEPT
; 1771 : 		{	// test if sequence is empty
; 1772 : 		return (this->_Mysize == 0);
; 1773 : 		}
; 1774 : 
; 1775 : 	_SCL_INSECURE_DEPRECATE
; 1776 : 
; 1777 : 	size_type copy(_Elem *_Ptr,
; 1778 : 		size_type _Count, size_type _Off = 0) const
; 1779 : 		{	// copy [_Off, _Off + _Count) to [_Ptr, _Ptr + _Count)
; 1780 :  #if _ITERATOR_DEBUG_LEVEL == 2
; 1781 : 		if (_Count != 0)
; 1782 : 			_DEBUG_POINTER(_Ptr);
; 1783 :  #endif /* _ITERATOR_DEBUG_LEVEL == 2 */
; 1784 : 
; 1785 : 		if (this->_Mysize < _Off)
; 1786 : 			_Xran();	// _Off off end
; 1787 : 		if (this->_Mysize - _Off < _Count)
; 1788 : 			_Count = this->_Mysize - _Off;
; 1789 : 		_Traits::copy(_Ptr, this->_Myptr() + _Off, _Count);
; 1790 : 		return (_Count);
; 1791 : 		}
; 1792 : 
; 1793 : 	size_type _Copy_s(_Elem *_Dest, size_type _Dest_size,
; 1794 : 		size_type _Count, size_type _Off = 0) const
; 1795 : 		{	// copy [_Off, _Off + _Count) to [_Dest, _Dest + _Count)
; 1796 :  #if _ITERATOR_DEBUG_LEVEL == 2
; 1797 : 		if (_Count != 0)
; 1798 : 			_DEBUG_POINTER(_Dest);
; 1799 :  #endif /* _ITERATOR_DEBUG_LEVEL == 2 */
; 1800 : 
; 1801 : 		if (this->_Mysize < _Off)
; 1802 : 			_Xran();	// _Off off end
; 1803 : 		if (this->_Mysize - _Off < _Count)
; 1804 : 			_Count = this->_Mysize - _Off;
; 1805 : 		_Traits::_Copy_s(_Dest, _Dest_size, this->_Myptr() + _Off, _Count);
; 1806 : 		return (_Count);
; 1807 : 		}
; 1808 : 
; 1809 : 	void _Swap_bx(_Myt& _Right)
; 1810 : 		{	// exchange _Bx with _Right._Bx
; 1811 : 		if (this->_BUF_SIZE <= this->_Myres)
; 1812 : 			if (this->_BUF_SIZE <= _Right._Myres)
; 1813 : 				_Swap_adl(this->_Bx._Ptr, _Right._Bx._Ptr);
; 1814 : 			else
; 1815 : 				{	// swap large with small
; 1816 : 				pointer _Ptr = this->_Bx._Ptr;
; 1817 : 				this->_Getal().destroy(&this->_Bx._Ptr);
; 1818 : 				_Traits::copy(this->_Bx._Buf,
; 1819 : 					_Right._Bx._Buf, _Right._Mysize + 1);
; 1820 : 				this->_Getal().construct(&_Right._Bx._Ptr, _Ptr);
; 1821 : 				}
; 1822 : 		else
; 1823 : 			if (_Right._Myres < this->_BUF_SIZE)
; 1824 : 				_STD swap(this->_Bx._Buf, _Right._Bx._Buf);
; 1825 : 			else
; 1826 : 				{	// swap small with large
; 1827 : 				pointer _Ptr = _Right._Bx._Ptr;
; 1828 : 				this->_Getal().destroy(&_Right._Bx._Ptr);
; 1829 : 				_Traits::copy(_Right._Bx._Buf,
; 1830 : 					this->_Bx._Buf, this->_Mysize + 1);
; 1831 : 				this->_Getal().construct(&this->_Bx._Ptr, _Ptr);
; 1832 : 				}
; 1833 : 		}
; 1834 : 
; 1835 : 	void swap(_Myt& _Right)
; 1836 : 		{	// exchange contents with _Right
; 1837 : 		if (this == &_Right)
; 1838 : 			;	// same object, do nothing
; 1839 : 		else if (this->_Getal() == _Right._Getal())
; 1840 : 			{	// same allocator, swap control information
; 1841 : 			this->_Swap_all(_Right);
; 1842 : 			_Swap_bx(_Right);
; 1843 : 			_STD swap(this->_Mysize, _Right._Mysize);
; 1844 : 			_STD swap(this->_Myres, _Right._Myres);
; 1845 : 			}
; 1846 : 
; 1847 :  #if _HAS_CPP0X
; 1848 : 		else if (_Alty::propagate_on_container_swap::value)
; 1849 : 			{	// swap allocators and control information
; 1850 : 			this->_Swap_alloc(_Right);
; 1851 : 			_Swap_bx(_Right);
; 1852 : 			_STD swap(this->_Bx, _Right._Bx);	// pointer bitwise copyable?
; 1853 : 			_STD swap(this->_Mysize, _Right._Mysize);
; 1854 : 			_STD swap(this->_Myres, _Right._Myres);
; 1855 : 			}
; 1856 :  #endif /* _HAS_CPP0X */
; 1857 : 
; 1858 : 		else
; 1859 : 			{	// different allocator, do multiple assigns
; 1860 : 			_Myt _Tmp = *this;
; 1861 : 
; 1862 : 			*this = _Right;
; 1863 : 			_Right = _Tmp;
; 1864 : 			}
; 1865 : 		}
; 1866 : 
; 1867 : 	size_type find(const _Myt& _Right, size_type _Off = 0) const _NOEXCEPT
; 1868 : 		{	// look for _Right beginning at or after _Off
; 1869 : 		return (find(_Right._Myptr(), _Off, _Right.size()));
; 1870 : 		}
; 1871 : 
; 1872 : 	size_type find(const _Elem *_Ptr,
; 1873 : 		size_type _Off, size_type _Count) const
; 1874 : 		{	// look for [_Ptr, _Ptr + _Count) beginning at or after _Off
; 1875 :  #if _ITERATOR_DEBUG_LEVEL == 2
; 1876 : 		if (_Count != 0)
; 1877 : 			_DEBUG_POINTER(_Ptr);
; 1878 :  #endif /* _ITERATOR_DEBUG_LEVEL == 2 */
; 1879 : 
; 1880 : 		if (_Count == 0 && _Off <= this->_Mysize)
; 1881 : 			return (_Off);	// null string always matches (if inside string)
; 1882 : 
; 1883 : 		size_type _Nm;
; 1884 : 		if (_Off < this->_Mysize && _Count <= (_Nm = this->_Mysize - _Off))
; 1885 : 			{	// room for match, look for it
; 1886 : 			const _Elem *_Uptr, *_Vptr;
; 1887 : 			for (_Nm -= _Count - 1, _Vptr = this->_Myptr() + _Off;
; 1888 : 				(_Uptr = _Traits::find(_Vptr, _Nm, *_Ptr)) != 0;
; 1889 : 				_Nm -= _Uptr - _Vptr + 1, _Vptr = _Uptr + 1)
; 1890 : 				if (_Traits::compare(_Uptr, _Ptr, _Count) == 0)
; 1891 : 					return (_Uptr - this->_Myptr());	// found a match
; 1892 : 			}
; 1893 : 
; 1894 : 		return (npos);	// no match
; 1895 : 		}
; 1896 : 
; 1897 : 	size_type find(const _Elem *_Ptr, size_type _Off = 0) const
; 1898 : 		{	// look for [_Ptr, <null>) beginning at or after _Off
; 1899 : 		_DEBUG_POINTER(_Ptr);
; 1900 : 		return (find(_Ptr, _Off, _Traits::length(_Ptr)));
; 1901 : 		}
; 1902 : 
; 1903 : 	size_type find(_Elem _Ch, size_type _Off = 0) const
; 1904 : 		{	// look for _Ch at or after _Off
; 1905 : 		return (find((const _Elem *)&_Ch, _Off, 1));
; 1906 : 		}
; 1907 : 
; 1908 : 	size_type rfind(const _Myt& _Right, size_type _Off = npos) const _NOEXCEPT
; 1909 : 		{	// look for _Right beginning before _Off
; 1910 : 		return (rfind(_Right._Myptr(), _Off, _Right.size()));
; 1911 : 		}
; 1912 : 
; 1913 : 	size_type rfind(const _Elem *_Ptr,
; 1914 : 		size_type _Off, size_type _Count) const
; 1915 : 		{	// look for [_Ptr, _Ptr + _Count) beginning before _Off
; 1916 :  #if _ITERATOR_DEBUG_LEVEL == 2
; 1917 : 		if (_Count != 0)
; 1918 : 			_DEBUG_POINTER(_Ptr);
; 1919 :  #endif /* _ITERATOR_DEBUG_LEVEL == 2 */
; 1920 : 
; 1921 : 		if (_Count == 0)
; 1922 : 			return (_Off < this->_Mysize ? _Off
; 1923 : 				: this->_Mysize);	// null always matches
; 1924 : 		if (_Count <= this->_Mysize)
; 1925 : 			{	// room for match, look for it
; 1926 : 			const _Elem *_Uptr = this->_Myptr() +
; 1927 : 				(_Off < this->_Mysize - _Count ? _Off
; 1928 : 					: this->_Mysize - _Count);
; 1929 : 			for (; ; --_Uptr)
; 1930 : 				if (_Traits::eq(*_Uptr, *_Ptr)
; 1931 : 					&& _Traits::compare(_Uptr, _Ptr, _Count) == 0)
; 1932 : 					return (_Uptr - this->_Myptr());	// found a match
; 1933 : 				else if (_Uptr == this->_Myptr())
; 1934 : 					break;	// at beginning, no more chance for match
; 1935 : 			}
; 1936 : 
; 1937 : 		return (npos);	// no match
; 1938 : 		}
; 1939 : 
; 1940 : 	size_type rfind(const _Elem *_Ptr, size_type _Off = npos) const
; 1941 : 		{	// look for [_Ptr, <null>) beginning before _Off
; 1942 : 		_DEBUG_POINTER(_Ptr);
; 1943 : 		return (rfind(_Ptr, _Off, _Traits::length(_Ptr)));
; 1944 : 		}
; 1945 : 
; 1946 : 	size_type rfind(_Elem _Ch, size_type _Off = npos) const
; 1947 : 		{	// look for _Ch before _Off
; 1948 : 		return (rfind((const _Elem *)&_Ch, _Off, 1));
; 1949 : 		}
; 1950 : 
; 1951 : 	size_type find_first_of(const _Myt& _Right,
; 1952 : 		size_type _Off = 0) const _NOEXCEPT
; 1953 : 		{	// look for one of _Right at or after _Off
; 1954 : 		return (find_first_of(_Right._Myptr(), _Off, _Right.size()));
; 1955 : 		}
; 1956 : 
; 1957 : 	size_type find_first_of(const _Elem *_Ptr,
; 1958 : 		size_type _Off, size_type _Count) const
; 1959 : 		{	// look for one of [_Ptr, _Ptr + _Count) at or after _Off
; 1960 :  #if _ITERATOR_DEBUG_LEVEL == 2
; 1961 : 		if (_Count != 0)
; 1962 : 			_DEBUG_POINTER(_Ptr);
; 1963 :  #endif /* _ITERATOR_DEBUG_LEVEL == 2 */
; 1964 : 
; 1965 : 		if (0 < _Count && _Off < this->_Mysize)
; 1966 : 			{	// room for match, look for it
; 1967 : 			const _Elem *const _Vptr = this->_Myptr() + this->_Mysize;
; 1968 : 			for (const _Elem *_Uptr = this->_Myptr() + _Off;
; 1969 : 				_Uptr < _Vptr; ++_Uptr)
; 1970 : 				if (_Traits::find(_Ptr, _Count, *_Uptr) != 0)
; 1971 : 					return (_Uptr - this->_Myptr());	// found a match
; 1972 : 			}
; 1973 : 
; 1974 : 		return (npos);	// no match
; 1975 : 		}
; 1976 : 
; 1977 : 	size_type find_first_of(const _Elem *_Ptr,
; 1978 : 		size_type _Off = 0) const
; 1979 : 		{	// look for one of [_Ptr, <null>) at or after _Off
; 1980 : 		_DEBUG_POINTER(_Ptr);
; 1981 : 		return (find_first_of(_Ptr, _Off, _Traits::length(_Ptr)));
; 1982 : 		}
; 1983 : 
; 1984 : 	size_type find_first_of(_Elem _Ch,
; 1985 : 		size_type _Off = 0) const
; 1986 : 		{	// look for _Ch at or after _Off
; 1987 : 		return (find((const _Elem *)&_Ch, _Off, 1));
; 1988 : 		}
; 1989 : 
; 1990 : 	size_type find_last_of(const _Myt& _Right,
; 1991 : 		size_type _Off = npos) const _NOEXCEPT
; 1992 : 		{	// look for one of _Right before _Off
; 1993 : 		return (find_last_of(_Right._Myptr(), _Off, _Right.size()));
; 1994 : 		}
; 1995 : 
; 1996 : 	size_type find_last_of(const _Elem *_Ptr,
; 1997 : 		size_type _Off, size_type _Count) const
; 1998 : 		{	// look for one of [_Ptr, _Ptr + _Count) before _Off
; 1999 :  #if _ITERATOR_DEBUG_LEVEL == 2
; 2000 : 		if (_Count != 0)
; 2001 : 			_DEBUG_POINTER(_Ptr);
; 2002 :  #endif /* _ITERATOR_DEBUG_LEVEL == 2 */
; 2003 : 
; 2004 : 		if (0 < _Count && 0 < this->_Mysize)
; 2005 : 			{	// worth searching, do it
; 2006 : 			const _Elem *_Uptr = this->_Myptr()
; 2007 : 				+ (_Off < this->_Mysize ? _Off : this->_Mysize - 1);
; 2008 : 			for (; ; --_Uptr)
; 2009 : 				if (_Traits::find(_Ptr, _Count, *_Uptr) != 0)
; 2010 : 					return (_Uptr - this->_Myptr());	// found a match
; 2011 : 				else if (_Uptr == this->_Myptr())
; 2012 : 					break;	// at beginning, no more chance for match
; 2013 : 			}
; 2014 : 
; 2015 : 		return (npos);	// no match
; 2016 : 		}
; 2017 : 
; 2018 : 	size_type find_last_of(const _Elem *_Ptr,
; 2019 : 		size_type _Off = npos) const
; 2020 : 		{	// look for one of [_Ptr, <null>) before _Off
; 2021 : 		_DEBUG_POINTER(_Ptr);
; 2022 : 		return (find_last_of(_Ptr, _Off, _Traits::length(_Ptr)));
; 2023 : 		}
; 2024 : 
; 2025 : 	size_type find_last_of(_Elem _Ch,
; 2026 : 		size_type _Off = npos) const
; 2027 : 		{	// look for _Ch before _Off
; 2028 : 		return (rfind((const _Elem *)&_Ch, _Off, 1));
; 2029 : 		}
; 2030 : 
; 2031 : 	size_type find_first_not_of(const _Myt& _Right,
; 2032 : 		size_type _Off = 0) const _NOEXCEPT
; 2033 : 		{	// look for none of _Right at or after _Off
; 2034 : 		return (find_first_not_of(_Right._Myptr(), _Off,
; 2035 : 			_Right.size()));
; 2036 : 		}
; 2037 : 
; 2038 : 	size_type find_first_not_of(const _Elem *_Ptr,
; 2039 : 		size_type _Off, size_type _Count) const
; 2040 : 		{	// look for none of [_Ptr, _Ptr + _Count) at or after _Off
; 2041 :  #if _ITERATOR_DEBUG_LEVEL == 2
; 2042 : 		if (_Count != 0)
; 2043 : 			_DEBUG_POINTER(_Ptr);
; 2044 :  #endif /* _ITERATOR_DEBUG_LEVEL == 2 */
; 2045 : 
; 2046 : 		if (_Off < this->_Mysize)
; 2047 : 			{	// room for match, look for it
; 2048 : 			const _Elem *const _Vptr = this->_Myptr() + this->_Mysize;
; 2049 : 			for (const _Elem *_Uptr = this->_Myptr() + _Off;
; 2050 : 				_Uptr < _Vptr; ++_Uptr)
; 2051 : 				if (_Traits::find(_Ptr, _Count, *_Uptr) == 0)
; 2052 : 					return (_Uptr - this->_Myptr());
; 2053 : 			}
; 2054 : 		return (npos);
; 2055 : 		}
; 2056 : 
; 2057 : 	size_type find_first_not_of(const _Elem *_Ptr,
; 2058 : 		size_type _Off = 0) const
; 2059 : 		{	// look for one of [_Ptr, <null>) at or after _Off
; 2060 : 		_DEBUG_POINTER(_Ptr);
; 2061 : 		return (find_first_not_of(_Ptr, _Off, _Traits::length(_Ptr)));
; 2062 : 		}
; 2063 : 
; 2064 : 	size_type find_first_not_of(_Elem _Ch,
; 2065 : 		size_type _Off = 0) const
; 2066 : 		{	// look for non _Ch at or after _Off
; 2067 : 		return (find_first_not_of((const _Elem *)&_Ch, _Off, 1));
; 2068 : 		}
; 2069 : 
; 2070 : 	size_type find_last_not_of(const _Myt& _Right,
; 2071 : 		size_type _Off = npos) const _NOEXCEPT
; 2072 : 		{	// look for none of _Right before _Off
; 2073 : 		return (find_last_not_of(_Right._Myptr(), _Off, _Right.size()));
; 2074 : 		}
; 2075 : 
; 2076 : 	size_type find_last_not_of(const _Elem *_Ptr,
; 2077 : 		size_type _Off, size_type _Count) const
; 2078 : 		{	// look for none of [_Ptr, _Ptr + _Count) before _Off
; 2079 :  #if _ITERATOR_DEBUG_LEVEL == 2
; 2080 : 		if (_Count != 0)
; 2081 : 			_DEBUG_POINTER(_Ptr);
; 2082 :  #endif /* _ITERATOR_DEBUG_LEVEL == 2 */
; 2083 : 
; 2084 : 		if (0 < this->_Mysize)
; 2085 : 			{	// worth searching, do it
; 2086 : 			const _Elem *_Uptr = this->_Myptr()
; 2087 : 				+ (_Off < this->_Mysize ? _Off : this->_Mysize - 1);
; 2088 : 			for (; ; --_Uptr)
; 2089 : 				if (_Traits::find(_Ptr, _Count, *_Uptr) == 0)
; 2090 : 					return (_Uptr - this->_Myptr());
; 2091 : 				else if (_Uptr == this->_Myptr())
; 2092 : 					break;
; 2093 : 			}
; 2094 : 		return (npos);
; 2095 : 		}
; 2096 : 
; 2097 : 	size_type find_last_not_of(const _Elem *_Ptr,
; 2098 : 		size_type _Off = npos) const
; 2099 : 		{	// look for none of [_Ptr, <null>) before _Off
; 2100 : 		_DEBUG_POINTER(_Ptr);
; 2101 : 		return (find_last_not_of(_Ptr, _Off, _Traits::length(_Ptr)));
; 2102 : 		}
; 2103 : 
; 2104 : 	size_type find_last_not_of(_Elem _Ch,
; 2105 : 		size_type _Off = npos) const
; 2106 : 		{	// look for non _Ch before _Off
; 2107 : 		return (find_last_not_of((const _Elem *)&_Ch, _Off, 1));
; 2108 : 		}
; 2109 : 
; 2110 : 	_Myt substr(size_type _Off = 0, size_type _Count = npos) const
; 2111 : 		{	// return [_Off, _Off + _Count) as new string
; 2112 : 		return (_Myt(*this, _Off, _Count, get_allocator()));
; 2113 : 		}
; 2114 : 
; 2115 : 	int compare(const _Myt& _Right) const _NOEXCEPT
; 2116 : 		{	// compare [0, _Mysize) with _Right
; 2117 : 		return (compare(0, this->_Mysize, _Right._Myptr(), _Right.size()));
; 2118 : 		}
; 2119 : 
; 2120 : 	int compare(size_type _Off, size_type _N0,
; 2121 : 		const _Myt& _Right) const
; 2122 : 		{	// compare [_Off, _Off + _N0) with _Right
; 2123 : 		return (compare(_Off, _N0, _Right, 0, npos));
; 2124 : 		}
; 2125 : 
; 2126 : 	int compare(size_type _Off,
; 2127 : 		size_type _N0, const _Myt& _Right,
; 2128 : 		size_type _Roff, size_type _Count) const
; 2129 : 		{	// compare [_Off, _Off + _N0) with _Right [_Roff, _Roff + _Count)
; 2130 : 		if (_Right.size() < _Roff)
; 2131 : 			_Xran();	// _Off off end
; 2132 : 		if (_Right._Mysize - _Roff < _Count)
; 2133 : 			_Count = _Right._Mysize - _Roff;	// trim _Count to size
; 2134 : 		return (compare(_Off, _N0, _Right._Myptr() + _Roff, _Count));
; 2135 : 		}
; 2136 : 
; 2137 : 	int compare(const _Elem *_Ptr) const
; 2138 : 		{	// compare [0, _Mysize) with [_Ptr, <null>)
; 2139 : 		_DEBUG_POINTER(_Ptr);
; 2140 : 		return (compare(0, this->_Mysize, _Ptr, _Traits::length(_Ptr)));
; 2141 : 		}
; 2142 : 
; 2143 : 	int compare(size_type _Off, size_type _N0, const _Elem *_Ptr) const
; 2144 : 		{	// compare [_Off, _Off + _N0) with [_Ptr, <null>)
; 2145 : 		_DEBUG_POINTER(_Ptr);
; 2146 : 		return (compare(_Off, _N0, _Ptr, _Traits::length(_Ptr)));
; 2147 : 		}
; 2148 : 
; 2149 : 	int compare(size_type _Off,
; 2150 : 		size_type _N0, const _Elem *_Ptr, size_type _Count) const
; 2151 : 		{	// compare [_Off, _Off + _N0) with [_Ptr, _Ptr + _Count)
; 2152 :  #if _ITERATOR_DEBUG_LEVEL == 2
; 2153 : 		if (_Count != 0)
; 2154 : 			_DEBUG_POINTER(_Ptr);
; 2155 :  #endif /* _ITERATOR_DEBUG_LEVEL == 2 */
; 2156 : 
; 2157 : 		if (this->_Mysize < _Off)
; 2158 : 			_Xran();	// _Off off end
; 2159 : 		if (this->_Mysize - _Off < _N0)
; 2160 : 			_N0 = this->_Mysize - _Off;	// trim _N0 to size
; 2161 : 
; 2162 : 		size_type _Ans = _Traits::compare(this->_Myptr() + _Off, _Ptr,
; 2163 : 			_N0 < _Count ? _N0 : _Count);
; 2164 : 		return (_Ans != 0 ? (int)_Ans : _N0 < _Count ? -1
; 2165 : 			: _N0 == _Count ? 0 : +1);
; 2166 : 		}
; 2167 : 
; 2168 : 	allocator_type get_allocator() const _NOEXCEPT
; 2169 : 		{	// return allocator object for values
; 2170 : 		return (this->_Getal());
; 2171 : 		}
; 2172 : 
; 2173 : 	void _Chassign(size_type _Off, size_type _Count, _Elem _Ch)
; 2174 : 		{	// assign _Count copies of _Ch beginning at _Off
; 2175 : 		if (_Count == 1)
; 2176 : 			_Traits::assign(*(this->_Myptr() + _Off), _Ch);
; 2177 : 		else
; 2178 : 			_Traits::assign(this->_Myptr() + _Off, _Count, _Ch);
; 2179 : 		}
; 2180 : 
; 2181 : 	void _Copy(size_type _Newsize, size_type _Oldlen)
; 2182 : 		{	// copy _Oldlen elements to newly allocated buffer
; 2183 : 		size_type _Newres = _Newsize | this->_ALLOC_MASK;
; 2184 : 		if (max_size() < _Newres)
; 2185 : 			_Newres = _Newsize;	// undo roundup if too big
; 2186 : 		else if (this->_Myres / 2 <= _Newres / 3)
; 2187 : 			;
; 2188 : 		else if (this->_Myres <= max_size() - this->_Myres / 2)
; 2189 : 			_Newres = this->_Myres
; 2190 : 				+ this->_Myres / 2;	// grow exponentially if possible
; 2191 : 		else
; 2192 : 			_Newres = max_size();	// settle for max_size()
; 2193 : 
; 2194 : 		_Elem *_Ptr;
; 2195 : 		_TRY_BEGIN
; 2196 : 			_Ptr = this->_Getal().allocate(_Newres + 1);
; 2197 : 		_CATCH_ALL
; 2198 : 			_Newres = _Newsize;	// allocation failed, undo roundup and retry
; 2199 : 			_TRY_BEGIN
; 2200 : 				_Ptr = this->_Getal().allocate(_Newres + 1);
; 2201 : 			_CATCH_ALL
; 2202 : 			_Tidy(true);	// failed again, discard storage and reraise
; 2203 : 			_RERAISE;
; 2204 : 			_CATCH_END
; 2205 : 		_CATCH_END
; 2206 : 
; 2207 : 		if (0 < _Oldlen)
; 2208 : 			_Traits::copy(_Ptr, this->_Myptr(),
; 2209 : 				_Oldlen);	// copy existing elements
; 2210 : 		_Tidy(true);
; 2211 : 		this->_Getal().construct(&this->_Bx._Ptr, _Ptr);
; 2212 : 		this->_Myres = _Newres;
; 2213 : 		_Eos(_Oldlen);
; 2214 : 		}
; 2215 : 
; 2216 : 	void _Eos(size_type _Newsize)
; 2217 : 		{	// set new length and null terminator
; 2218 : 		_Traits::assign(this->_Myptr()[this->_Mysize = _Newsize], _Elem());

  00000	33 c0		 xor	 eax, eax

; 2219 : 		}
; 2220 : 
; 2221 : 	bool _Grow(size_type _Newsize,
; 2222 : 		bool _Trim = false)
; 2223 : 		{	// ensure buffer is big enough, trim to size if _Trim is true
; 2224 : 		if (max_size() < _Newsize)
; 2225 : 			_Xlen();	// result too long
; 2226 : 		if (this->_Myres < _Newsize)
; 2227 : 			_Copy(_Newsize, this->_Mysize);	// reallocate to grow
; 2228 : 		else if (_Trim && _Newsize < this->_BUF_SIZE)
; 2229 : 			_Tidy(true,	// copy and deallocate if trimming to small string
; 2230 : 				_Newsize < this->_Mysize ? _Newsize : this->_Mysize);
; 2231 : 		else if (_Newsize == 0)
; 2232 : 			_Eos(0);	// new size is zero, just null terminate
; 2233 : 		return (0 < _Newsize);	// return true only if more work to do
; 2234 : 		}
; 2235 : 
; 2236 : 	bool _Inside(const _Elem *_Ptr)
; 2237 : 		{	// test if _Ptr points inside string
; 2238 : 		if (_Ptr == 0 || _Ptr < this->_Myptr()
; 2239 : 			|| this->_Myptr() + this->_Mysize <= _Ptr)
; 2240 : 			return (false);	// don't ask
; 2241 : 		else
; 2242 : 			return (true);
; 2243 : 		}
; 2244 : 
; 2245 : 	static size_type _Pdif(const_iterator _P2,
; 2246 : 		const_iterator _P1)
; 2247 : 		{	// compute safe iterator difference
; 2248 : 		return (_STRING_ITER_BASE(_P2) == 0 ? 0 : _P2 - _P1);
; 2249 : 		}
; 2250 : 
; 2251 : 	void _Tidy(bool _Built = false,
; 2252 : 		size_type _Newsize = 0)
; 2253 : 		{	// initialize buffer, deallocating any storage
; 2254 : 		if (!_Built)
; 2255 : 			;
; 2256 : 		else if (this->_BUF_SIZE <= this->_Myres)
; 2257 : 			{	// copy any leftovers to small buffer and deallocate
; 2258 : 			pointer _Ptr = this->_Bx._Ptr;
; 2259 : 			this->_Getal().destroy(&this->_Bx._Ptr);
; 2260 : 			if (0 < _Newsize)
; 2261 : 				_Traits::copy(this->_Bx._Buf,
; 2262 : 					_STD addressof(*_Ptr), _Newsize);
; 2263 : 			this->_Getal().deallocate(_Ptr, this->_Myres + 1);
; 2264 : 			}
; 2265 : 		this->_Myres = this->_BUF_SIZE - 1;

  00002	48 c7 41 18 07
	00 00 00	 mov	 QWORD PTR [rcx+24], 7

; 752  : 
; 753  : 	explicit basic_string(const _Alloc& _Al)
; 754  : 		: _Mybase(_Al)
; 755  : 		{	// construct empty string with allocator
; 756  : 		_Tidy();
; 757  : 		}
; 758  : 
; 759  : 	basic_string(const _Myt& _Right, size_type _Roff,
; 760  : 		size_type _Count = npos)
; 761  : 		: _Mybase(_Right._Getal())
; 762  : 		{	// construct from _Right [_Roff, _Roff + _Count)
; 763  : 		_Tidy();
; 764  : 		assign(_Right, _Roff, _Count);
; 765  : 		}
; 766  : 
; 767  : 	basic_string(const _Myt& _Right, size_type _Roff, size_type _Count,
; 768  : 		const _Alloc& _Al)
; 769  : 		: _Mybase(_Al)
; 770  : 		{	// construct from _Right [_Roff, _Roff + _Count) with allocator
; 771  : 		_Tidy();
; 772  : 		assign(_Right, _Roff, _Count);
; 773  : 		}
; 774  : 
; 775  : 	basic_string(const _Elem *_Ptr, size_type _Count)
; 776  : 		: _Mybase()
; 777  : 		{	// construct from [_Ptr, _Ptr + _Count)
; 778  : 		_Tidy();
; 779  : 		assign(_Ptr, _Count);
; 780  : 		}
; 781  : 
; 782  : 	basic_string(const _Elem *_Ptr, size_type _Count, const _Alloc& _Al)
; 783  : 		: _Mybase(_Al)
; 784  : 		{	// construct from [_Ptr, _Ptr + _Count) with allocator
; 785  : 		_Tidy();
; 786  : 		assign(_Ptr, _Count);
; 787  : 		}
; 788  : 
; 789  : 	basic_string(const _Elem *_Ptr)
; 790  : 		: _Mybase()
; 791  : 		{	// construct from [_Ptr, <null>)
; 792  : 		_Tidy();
; 793  : 		assign(_Ptr);
; 794  : 		}
; 795  : 
; 796  : 	basic_string(const _Elem *_Ptr, const _Alloc& _Al)
; 797  : 		: _Mybase(_Al)
; 798  : 		{	// construct from [_Ptr, <null>) with allocator
; 799  : 		_Tidy();
; 800  : 		assign(_Ptr);
; 801  : 		}
; 802  : 
; 803  : 	basic_string(size_type _Count, _Elem _Ch)
; 804  : 		: _Mybase()
; 805  : 		{	// construct from _Count * _Ch
; 806  : 		_Tidy();
; 807  : 		assign(_Count, _Ch);
; 808  : 		}
; 809  : 
; 810  : 	basic_string(size_type _Count, _Elem _Ch, const _Alloc& _Al)
; 811  : 		: _Mybase(_Al)
; 812  : 		{	// construct from _Count * _Ch with allocator
; 813  : 		_Tidy();
; 814  : 		assign(_Count, _Ch);
; 815  : 		}
; 816  : 
; 817  : 	template<class _Iter>
; 818  : 		basic_string(_Iter _First, _Iter _Last,
; 819  : 			typename enable_if<_Is_iterator<_Iter>::value,
; 820  : 				void>::type ** = 0)
; 821  : 		: _Mybase()
; 822  : 		{	// construct from [_First, _Last)
; 823  : 		_Tidy();
; 824  : 		_Construct(_First, _Last, _Iter_cat(_First));
; 825  : 		}
; 826  : 
; 827  : 	template<class _Iter>
; 828  : 		basic_string(_Iter _First, _Iter _Last, const _Alloc& _Al,
; 829  : 			typename enable_if<_Is_iterator<_Iter>::value,
; 830  : 				void>::type ** = 0)
; 831  : 		: _Mybase(_Al)
; 832  : 		{	// construct from [_First, _Last) with allocator
; 833  : 		_Tidy();
; 834  : 		_Construct(_First, _Last, _Iter_cat(_First));
; 835  : 		}
; 836  : 
; 837  : 	template<class _Iter>
; 838  : 		void _Construct(_Iter _First,
; 839  : 			_Iter _Last, input_iterator_tag)
; 840  : 		{	// initialize from [_First, _Last), input iterators
; 841  : 		_TRY_BEGIN
; 842  : 		for (; _First != _Last; ++_First)
; 843  : 			append((size_type)1, (_Elem)*_First);
; 844  : 		_CATCH_ALL
; 845  : 		_Tidy(true);
; 846  : 		_RERAISE;
; 847  : 		_CATCH_END
; 848  : 		}
; 849  : 
; 850  : 	template<class _Iter>
; 851  : 		void _Construct(_Iter _First,
; 852  : 			_Iter _Last, forward_iterator_tag)
; 853  : 		{	// initialize from [_First, _Last), forward iterators
; 854  : 		_DEBUG_RANGE(_First, _Last);
; 855  : 		size_type _Count = 0;
; 856  : 		_Distance(_First, _Last, _Count);
; 857  : 		reserve(_Count);
; 858  : 
; 859  : 		_TRY_BEGIN
; 860  : 		for (; _First != _Last; ++_First)
; 861  : 			append((size_type)1, (_Elem)*_First);
; 862  : 		_CATCH_ALL
; 863  : 		_Tidy(true);
; 864  : 		_RERAISE;
; 865  : 		_CATCH_END
; 866  : 		}
; 867  : 
; 868  : 	basic_string(const_pointer _First, const_pointer _Last)
; 869  : 		: _Mybase()
; 870  : 		{	// construct from [_First, _Last), const pointers
; 871  : 		_DEBUG_RANGE(_First, _Last);
; 872  : 		_Tidy();
; 873  : 		if (_First != _Last)
; 874  : 			assign(&*_First, _Last - _First);
; 875  : 		}
; 876  : 
; 877  : 	basic_string(const_pointer _First, const_pointer _Last,
; 878  : 		const _Alloc& _Al)
; 879  : 		: _Mybase(_Al)
; 880  : 		{	// construct from [_First, _Last), const pointers
; 881  : 		_DEBUG_RANGE(_First, _Last);
; 882  : 		_Tidy();
; 883  : 		if (_First != _Last)
; 884  : 			assign(&*_First, _Last - _First);
; 885  : 		}
; 886  : 
; 887  : 	basic_string(const_iterator _First, const_iterator _Last)
; 888  : 		: _Mybase()
; 889  : 		{	// construct from [_First, _Last), const_iterators
; 890  : 		_DEBUG_RANGE(_First, _Last);
; 891  : 		_Tidy();
; 892  : 		if (_First != _Last)
; 893  : 			assign(&*_First, _Last - _First);
; 894  : 		}
; 895  : 
; 896  : 	basic_string(_Myt&& _Right) _NOEXCEPT
; 897  : 		: _Mybase(_Right._Getal())
; 898  : 		{	// construct by moving _Right
; 899  : 		_Tidy();
; 900  : 		_Assign_rv(_STD forward<_Myt>(_Right));
; 901  : 		}
; 902  : 
; 903  : 	basic_string(_Myt&& _Right, const _Alloc& _Al)
; 904  : 		: _Mybase(_Al)
; 905  : 		{	// construct by moving _Right, allocator
; 906  : 		if (this->_Getal() != _Right._Getal())
; 907  : 			assign(_Right.begin(), _Right.end());
; 908  : 		else
; 909  : 			_Assign_rv(_STD forward<_Myt>(_Right));
; 910  : 		}
; 911  : 
; 912  : 	_Myt& operator=(_Myt&& _Right) _NOEXCEPT
; 913  : 		{	// assign by moving _Right
; 914  : 		if (this != &_Right)
; 915  : 			{	// different, assign it
; 916  : 			_Tidy(true);
; 917  : 
; 918  :  #if _HAS_CPP0X
; 919  : 			if (this->_Getal() != _Right._Getal()
; 920  : 				&& _Alty::propagate_on_container_move_assignment::value)
; 921  : 				this->_Change_alloc(_Right._Getal());
; 922  :  #endif /* _HAS_CPP0X */
; 923  : 
; 924  : 			if (this->_Getal() != _Right._Getal())
; 925  : 				assign(_Right.begin(), _Right.end());
; 926  : 			else
; 927  : 				_Assign_rv(_STD forward<_Myt>(_Right));
; 928  : 			}
; 929  : 		return (*this);
; 930  : 		}
; 931  : 
; 932  : 	_Myt& assign(_Myt&& _Right) _NOEXCEPT
; 933  : 		{	// assign by moving _Right
; 934  : 		if (this == &_Right)
; 935  : 			;
; 936  : 		else if (get_allocator() != _Right.get_allocator()
; 937  : 			&& this->_BUF_SIZE <= _Right._Myres)
; 938  : 			*this = _Right;
; 939  : 		else
; 940  : 			{	// not same, clear this and steal from _Right
; 941  : 			_Tidy(true);
; 942  : 			_Assign_rv(_STD forward<_Myt>(_Right));
; 943  : 			}
; 944  : 		return (*this);
; 945  : 		}
; 946  : 
; 947  : 	void _Assign_rv(_Myt&& _Right)
; 948  : 		{	// assign by moving _Right
; 949  : 		if (_Right._Myres < this->_BUF_SIZE)
; 950  : 			_Traits::move(this->_Bx._Buf, _Right._Bx._Buf,
; 951  : 				_Right._Mysize + 1);
; 952  : 		else
; 953  : 			{	// copy pointer
; 954  : 			this->_Getal().construct(&this->_Bx._Ptr, _Right._Bx._Ptr);
; 955  : 			_Right._Bx._Ptr = pointer();
; 956  : 			}
; 957  : 		this->_Mysize = _Right._Mysize;
; 958  : 		this->_Myres = _Right._Myres;
; 959  : 		_Right._Tidy();
; 960  : 		}
; 961  : 
; 962  : 	~basic_string() _NOEXCEPT
; 963  : 		{	// destroy the string
; 964  : 		_Tidy(true);
; 965  : 		}
; 966  : 
; 967  : 	_PGLOBAL static const size_type npos;	// bad/missing length/position
; 968  : 
; 969  : 	_Myt& operator=(const _Myt& _Right)
; 970  : 		{	// assign _Right
; 971  : 		if (this != &_Right)
; 972  : 			{	// different, assign it
; 973  :  #if _HAS_CPP0X
; 974  : 			if (this->_Getal() != _Right._Getal()
; 975  : 				&& _Alty::propagate_on_container_copy_assignment::value)
; 976  : 				{	// change allocator before copying
; 977  : 				_Tidy(true);
; 978  : 				this->_Change_alloc(_Right._Getal());
; 979  : 				}
; 980  :  #endif /* _HAS_CPP0X */
; 981  : 
; 982  : 			assign(_Right);
; 983  : 			}
; 984  : 		return (*this);
; 985  : 		}
; 986  : 
; 987  : 	_Myt& operator=(const _Elem *_Ptr)
; 988  : 		{	// assign [_Ptr, <null>)
; 989  : 		return (assign(_Ptr));
; 990  : 		}
; 991  : 
; 992  : 	_Myt& operator=(_Elem _Ch)
; 993  : 		{	// assign 1 * _Ch
; 994  : 		return (assign(1, _Ch));
; 995  : 		}
; 996  : 
; 997  : 	_Myt& operator+=(const _Myt& _Right)
; 998  : 		{	// append _Right
; 999  : 		return (append(_Right));
; 1000 : 		}
; 1001 : 
; 1002 : 	_Myt& operator+=(const _Elem *_Ptr)
; 1003 : 		{	// append [_Ptr, <null>)
; 1004 : 		return (append(_Ptr));
; 1005 : 		}
; 1006 : 
; 1007 : 	_Myt& operator+=(_Elem _Ch)
; 1008 : 		{	// append 1 * _Ch
; 1009 : 		return (append((size_type)1, _Ch));
; 1010 : 		}
; 1011 : 
; 1012 : 	_Myt& append(const _Myt& _Right)
; 1013 : 		{	// append _Right
; 1014 : 		return (append(_Right, 0, npos));
; 1015 : 		}
; 1016 : 
; 1017 : 	_Myt& append(const _Myt& _Right,
; 1018 : 		size_type _Roff, size_type _Count)
; 1019 : 		{	// append _Right [_Roff, _Roff + _Count)
; 1020 : 		if (_Right.size() < _Roff)
; 1021 : 			_Xran();	// _Roff off end
; 1022 : 		size_type _Num = _Right.size() - _Roff;
; 1023 : 		if (_Num < _Count)
; 1024 : 			_Count = _Num;	// trim _Count to size
; 1025 : 		if (npos - this->_Mysize <= _Count)
; 1026 : 			_Xlen();	// result too long
; 1027 : 
; 1028 : 		if (0 < _Count && _Grow(_Num = this->_Mysize + _Count))
; 1029 : 			{	// make room and append new stuff
; 1030 : 			_Traits::copy(this->_Myptr() + this->_Mysize,
; 1031 : 				_Right._Myptr() + _Roff, _Count);
; 1032 : 			_Eos(_Num);
; 1033 : 			}
; 1034 : 		return (*this);
; 1035 : 		}
; 1036 : 
; 1037 : 	_Myt& append(const _Elem *_Ptr, size_type _Count)
; 1038 : 		{	// append [_Ptr, _Ptr + _Count)
; 1039 :  #if _ITERATOR_DEBUG_LEVEL == 2
; 1040 : 		if (_Count != 0)
; 1041 : 			_DEBUG_POINTER(_Ptr);
; 1042 :  #endif /* _ITERATOR_DEBUG_LEVEL == 2 */
; 1043 : 
; 1044 : 		if (_Inside(_Ptr))
; 1045 : 			return (append(*this,
; 1046 : 				_Ptr - this->_Myptr(), _Count));	// substring
; 1047 : 		if (npos - this->_Mysize <= _Count)
; 1048 : 			_Xlen();	// result too long
; 1049 : 
; 1050 : 		size_type _Num;
; 1051 : 		if (0 < _Count && _Grow(_Num = this->_Mysize + _Count))
; 1052 : 			{	// make room and append new stuff
; 1053 : 			_Traits::copy(this->_Myptr() + this->_Mysize, _Ptr, _Count);
; 1054 : 			_Eos(_Num);
; 1055 : 			}
; 1056 : 		return (*this);
; 1057 : 		}
; 1058 : 
; 1059 : 	_Myt& append(const _Elem *_Ptr)
; 1060 : 		{	// append [_Ptr, <null>)
; 1061 : 		_DEBUG_POINTER(_Ptr);
; 1062 : 		return (append(_Ptr, _Traits::length(_Ptr)));
; 1063 : 		}
; 1064 : 
; 1065 : 	_Myt& append(size_type _Count, _Elem _Ch)
; 1066 : 		{	// append _Count * _Ch
; 1067 : 		if (npos - this->_Mysize <= _Count)
; 1068 : 			_Xlen();	// result too long
; 1069 : 
; 1070 : 		size_type _Num;
; 1071 : 		if (0 < _Count && _Grow(_Num = this->_Mysize + _Count))
; 1072 : 			{	// make room and append new stuff using assign
; 1073 : 			_Chassign(this->_Mysize, _Count, _Ch);
; 1074 : 			_Eos(_Num);
; 1075 : 			}
; 1076 : 		return (*this);
; 1077 : 		}
; 1078 : 
; 1079 : 	template<class _Iter>
; 1080 : 		typename enable_if<_Is_iterator<_Iter>::value,
; 1081 : 			_Myt&>::type
; 1082 : 		append(_Iter _First, _Iter _Last)
; 1083 : 		{	// append [_First, _Last), input iterators
; 1084 : 		return (replace(end(), end(), _First, _Last));
; 1085 : 		}
; 1086 : 
; 1087 : 	_Myt& append(const_pointer _First, const_pointer _Last)
; 1088 : 		{	// append [_First, _Last), const pointers
; 1089 : 		return (replace(end(), end(), _First, _Last));
; 1090 : 		}
; 1091 : 
; 1092 : 	_Myt& append(const_iterator _First, const_iterator _Last)
; 1093 : 		{	// append [_First, _Last), const_iterators
; 1094 : 		return (replace(end(), end(), _First, _Last));
; 1095 : 		}
; 1096 : 
; 1097 : 	_Myt& assign(const _Myt& _Right)
; 1098 : 		{	// assign _Right
; 1099 : 		return (assign(_Right, 0, npos));
; 1100 : 		}
; 1101 : 
; 1102 : 	_Myt& assign(const _Myt& _Right,
; 1103 : 		size_type _Roff, size_type _Count)
; 1104 : 		{	// assign _Right [_Roff, _Roff + _Count)
; 1105 : 		if (_Right.size() < _Roff)
; 1106 : 			_Xran();	// _Roff off end
; 1107 : 		size_type _Num = _Right.size() - _Roff;
; 1108 : 		if (_Count < _Num)
; 1109 : 			_Num = _Count;	// trim _Num to size
; 1110 : 
; 1111 : 		if (this == &_Right)
; 1112 : 			erase((size_type)(_Roff + _Num)), erase(0, _Roff);	// substring
; 1113 : 		else if (_Grow(_Num))
; 1114 : 			{	// make room and assign new stuff
; 1115 : 			_Traits::copy(this->_Myptr(),
; 1116 : 				_Right._Myptr() + _Roff, _Num);
; 1117 : 			_Eos(_Num);
; 1118 : 			}
; 1119 : 		return (*this);
; 1120 : 		}
; 1121 : 
; 1122 : 	_Myt& assign(const _Elem *_Ptr, size_type _Count)
; 1123 : 		{	// assign [_Ptr, _Ptr + _Count)
; 1124 :  #if _ITERATOR_DEBUG_LEVEL == 2
; 1125 : 		if (_Count != 0)
; 1126 : 			_DEBUG_POINTER(_Ptr);
; 1127 :  #endif /* _ITERATOR_DEBUG_LEVEL == 2 */
; 1128 : 
; 1129 : 		if (_Inside(_Ptr))
; 1130 : 			return (assign(*this,
; 1131 : 				_Ptr - this->_Myptr(), _Count));	// substring
; 1132 : 
; 1133 : 		if (_Grow(_Count))
; 1134 : 			{	// make room and assign new stuff
; 1135 : 			_Traits::copy(this->_Myptr(), _Ptr, _Count);
; 1136 : 			_Eos(_Count);
; 1137 : 			}
; 1138 : 		return (*this);
; 1139 : 		}
; 1140 : 
; 1141 : 	_Myt& assign(const _Elem *_Ptr)
; 1142 : 		{	// assign [_Ptr, <null>)
