; Listing generated by Microsoft (R) Optimizing Compiler Version 17.00.61030.0 

include listing.inc

INCLUDELIB OLDNAMES

PUBLIC	??1MiniHeap@MemUtil@@QEAA@XZ			; MemUtil::MiniHeap::~MiniHeap
PUBLIC	??0MiniHeap@MemUtil@@QEAA@I@Z			; MemUtil::MiniHeap::MiniHeap
PUBLIC	?clear@MiniHeap@MemUtil@@QEAAXXZ		; MemUtil::MiniHeap::clear
;	COMDAT pdata
pdata	SEGMENT
$pdata$??0MiniHeap@MemUtil@@QEAA@I@Z DD imagerel $LN4
	DD	imagerel $LN4+38
	DD	imagerel $unwind$??0MiniHeap@MemUtil@@QEAA@I@Z
;	COMDAT xdata
xdata	SEGMENT
$unwind$??0MiniHeap@MemUtil@@QEAA@I@Z DD 020601H
	DD	030023206H
; Function compile flags: /Ogtp
; File c:\users\erlend\documents\github\wind\project\wind\wind\memutil.cpp
;	COMDAT ?clear@MiniHeap@MemUtil@@QEAAXXZ
_TEXT	SEGMENT
this$ = 8
?clear@MiniHeap@MemUtil@@QEAAXXZ PROC			; MemUtil::MiniHeap::clear, COMDAT

; 18   : 	pos = 0;

  00000	c7 41 0c 00 00
	00 00		 mov	 DWORD PTR [rcx+12], 0

; 19   : }

  00007	c3		 ret	 0
?clear@MiniHeap@MemUtil@@QEAAXXZ ENDP			; MemUtil::MiniHeap::clear
_TEXT	ENDS
; Function compile flags: /Ogtp
; File c:\users\erlend\documents\github\wind\project\wind\wind\memutil.cpp
;	COMDAT ??0MiniHeap@MemUtil@@QEAA@I@Z
_TEXT	SEGMENT
this$ = 48
size$dead$ = 56
??0MiniHeap@MemUtil@@QEAA@I@Z PROC			; MemUtil::MiniHeap::MiniHeap, COMDAT

; 7    : {

$LN4:
  00000	40 53		 push	 rbx
  00002	48 83 ec 20	 sub	 rsp, 32			; 00000020H
  00006	48 8b d9	 mov	 rbx, rcx
  00009	b9 02 10 00 00	 mov	 ecx, 4098		; 00001002H
  0000e	e8 00 00 00 00	 call	 ??2@YAPEAX_K@Z		; operator new
  00013	c7 43 08 02 10
	00 00		 mov	 DWORD PTR [rbx+8], 4098	; 00001002H
  0001a	48 89 03	 mov	 QWORD PTR [rbx], rax

; 8    : 
; 9    : }

  0001d	48 8b c3	 mov	 rax, rbx
  00020	48 83 c4 20	 add	 rsp, 32			; 00000020H
  00024	5b		 pop	 rbx
  00025	c3		 ret	 0
??0MiniHeap@MemUtil@@QEAA@I@Z ENDP			; MemUtil::MiniHeap::MiniHeap
_TEXT	ENDS
; Function compile flags: /Ogtp
; File c:\users\erlend\documents\github\wind\project\wind\wind\memutil.cpp
;	COMDAT ??1MiniHeap@MemUtil@@QEAA@XZ
_TEXT	SEGMENT
this$ = 8
??1MiniHeap@MemUtil@@QEAA@XZ PROC			; MemUtil::MiniHeap::~MiniHeap, COMDAT

; 13   : 	delete[] heap;

  00000	48 8b 09	 mov	 rcx, QWORD PTR [rcx]
  00003	e9 00 00 00 00	 jmp	 ??3@YAXPEAX@Z		; operator delete
??1MiniHeap@MemUtil@@QEAA@XZ ENDP			; MemUtil::MiniHeap::~MiniHeap
_TEXT	ENDS
END
