; Listing generated by Microsoft (R) Optimizing Compiler Version 17.00.61030.0 

include listing.inc

INCLUDELIB OLDNAMES

PUBLIC	?blocksTexture@RenderThread@@2PEAVTiledTexture@gfxu@@EA ; RenderThread::blocksTexture
PUBLIC	?normalShaderProgram@@3PEAVShaderProgram@gfxu@@EA ; normalShaderProgram
PUBLIC	?bGrid@@3PAY1BF@BF@_NA				; bGrid
PUBLIC	?normalFShader@@3PEAVFragmentShader@gfxu@@EA	; normalFShader
PUBLIC	?noTexFShader@@3PEAVFragmentShader@gfxu@@EA	; noTexFShader
PUBLIC	?noTexShaderProgram@@3PEAVShaderProgram@gfxu@@EA ; noTexShaderProgram
PUBLIC	?grid@@3PEAVVertexStream@gfxu@@EA		; grid
PUBLIC	?normalVShader@@3PEAVVertexShader@gfxu@@EA	; normalVShader
PUBLIC	?noTexVShader@@3PEAVVertexShader@gfxu@@EA	; noTexVShader
PUBLIC	?square@@3PEAVVertexStream@gfxu@@EA		; square
PUBLIC	?skipRender@RenderThread@@2_NA			; RenderThread::skipRender
EXTRN	__imp_glFlush:PROC
EXTRN	__imp_glEnable:PROC
EXTRN	__imp_glViewport:PROC
EXTRN	__imp_glBlendFunc:PROC
EXTRN	__imp_glDisable:PROC
EXTRN	__imp_glClearColor:PROC
EXTRN	__imp_glClear:PROC
EXTRN	__imp_glDepthFunc:PROC
?blocksTexture@RenderThread@@2PEAVTiledTexture@gfxu@@EA DQ 01H DUP (?) ; RenderThread::blocksTexture
?normalShaderProgram@@3PEAVShaderProgram@gfxu@@EA DQ 01H DUP (?) ; normalShaderProgram
?bGrid@@3PAY1BF@BF@_NA DB 0242dH DUP (?)		; bGrid
	ALIGN	8

?normalFShader@@3PEAVFragmentShader@gfxu@@EA DQ 01H DUP (?) ; normalFShader
?noTexFShader@@3PEAVFragmentShader@gfxu@@EA DQ 01H DUP (?) ; noTexFShader
?noTexShaderProgram@@3PEAVShaderProgram@gfxu@@EA DQ 01H DUP (?) ; noTexShaderProgram
?grid@@3PEAVVertexStream@gfxu@@EA DQ 01H DUP (?)	; grid
?normalVShader@@3PEAVVertexShader@gfxu@@EA DQ 01H DUP (?) ; normalVShader
?noTexVShader@@3PEAVVertexShader@gfxu@@EA DQ 01H DUP (?) ; noTexVShader
?square@@3PEAVVertexStream@gfxu@@EA DQ 01H DUP (?)	; square
_BSS	ENDS
?skipRender@RenderThread@@2_NA DB 01H			; RenderThread::skipRender
renderDistance DD 0aH
	ORG $+2
$SG4294945226 DB 'gridTransform', 00H
	ORG $+2
$SG4294945225 DB 'arrayInsideCheck', 00H
	ORG $+7
$SG4294945224 DB 'OpenGL error', 00H
	ORG $+3
$SG4294945223 DB 'Graphics thread loop error', 00H
	ORG $+5
$SG4294945222 DB '\', 00H, 'p', 00H, 'r', 00H, 'o', 00H, 'g', 00H, 'r', 00H
	DB	'a', 00H, 'm', 00H, 's', 00H, '\', 00H, 'f', 00H, 'r', 00H, 'u'
	DB	00H, 's', 00H, 't', 00H, 'u', 00H, 'm', 00H, 'c', 00H, 'l', 00H
	DB	'i', 00H, 'p', 00H, '.', 00H, 'c', 00H, 'l', 00H, 00H, 00H
	ORG $+6
$SG4294945221 DB '\', 00H, 's', 00H, 'h', 00H, 'a', 00H, 'd', 00H, 'e', 00H
	DB	'r', 00H, 's', 00H, '\', 00H, 'n', 00H, 'o', 00H, 'r', 00H, 'm'
	DB	00H, 'a', 00H, 'l', 00H, '.', 00H, 'v', 00H, 'e', 00H, 'r', 00H
	DB	't', 00H, 00H, 00H
	ORG $+6
$SG4294945220 DB '\', 00H, 's', 00H, 'h', 00H, 'a', 00H, 'd', 00H, 'e', 00H
	DB	'r', 00H, 's', 00H, '\', 00H, 'n', 00H, 'o', 00H, 'r', 00H, 'm'
	DB	00H, 'a', 00H, 'l', 00H, '.', 00H, 'f', 00H, 'r', 00H, 'a', 00H
	DB	'g', 00H, 00H, 00H
	ORG $+6
$SG4294945219 DB '\', 00H, 's', 00H, 'h', 00H, 'a', 00H, 'd', 00H, 'e', 00H
	DB	'r', 00H, 's', 00H, '\', 00H, 'n', 00H, 'o', 00H, 'T', 00H, 'e'
	DB	00H, 'x', 00H, '.', 00H, 'v', 00H, 'e', 00H, 'r', 00H, 't', 00H
	DB	00H, 00H
$SG4294945218 DB '\', 00H, 's', 00H, 'h', 00H, 'a', 00H, 'd', 00H, 'e', 00H
	DB	'r', 00H, 's', 00H, '\', 00H, 'n', 00H, 'o', 00H, 'T', 00H, 'e'
	DB	00H, 'x', 00H, '.', 00H, 'f', 00H, 'r', 00H, 'a', 00H, 'g', 00H
	DB	00H, 00H
PUBLIC	??$_Move@AEAPEAVChunkBase@@@std@@YA$$QEAPEAVChunkBase@@AEAPEAV1@@Z ; std::_Move<ChunkBase * __ptr64 & __ptr64>
PUBLIC	??$swap@PEAVChunkBase@@@std@@YAXAEAPEAVChunkBase@@0@Z ; std::swap<ChunkBase * __ptr64>
PUBLIC	??$forward@V?$_Ptr_base@VChunkBase@@@std@@@std@@YA$$QEAV?$_Ptr_base@VChunkBase@@@0@AEAV10@@Z ; std::forward<std::_Ptr_base<ChunkBase> >
PUBLIC	?_Swap@?$_Ptr_base@VChunkBase@@@std@@QEAAXAEAV12@@Z ; std::_Ptr_base<ChunkBase>::_Swap
PUBLIC	?_Assign_rv@?$_Ptr_base@VChunkBase@@@std@@QEAAX$$QEAV12@@Z ; std::_Ptr_base<ChunkBase>::_Assign_rv
PUBLIC	??0?$_Ptr_base@VChunkBase@@@std@@QEAA@$$QEAV01@@Z ; std::_Ptr_base<ChunkBase>::_Ptr_base<ChunkBase>
PUBLIC	??0?$shared_ptr@VChunkBase@@@std@@QEAA@$$QEAV01@@Z ; std::shared_ptr<ChunkBase>::shared_ptr<ChunkBase>
PUBLIC	??$construct@V?$shared_ptr@VChunkBase@@@std@@V12@@?$allocator@V?$shared_ptr@VChunkBase@@@std@@@std@@QEAAXPEAV?$shared_ptr@VChunkBase@@@1@$$QEAV21@@Z ; std::allocator<std::shared_ptr<ChunkBase> >::construct<std::shared_ptr<ChunkBase>,std::shared_ptr<ChunkBase> >
PUBLIC	??$construct@V?$shared_ptr@VChunkBase@@@std@@V12@@?$allocator_traits@V?$allocator@V?$shared_ptr@VChunkBase@@@std@@@std@@@std@@SAXAEAV?$allocator@V?$shared_ptr@VChunkBase@@@std@@@1@PEAV?$shared_ptr@VChunkBase@@@1@$$QEAV31@@Z ; std::allocator_traits<std::allocator<std::shared_ptr<ChunkBase> > >::construct<std::shared_ptr<ChunkBase>,std::shared_ptr<ChunkBase> >
PUBLIC	??$forward@V?$shared_ptr@VChunkBase@@@std@@@std@@YA$$QEAV?$shared_ptr@VChunkBase@@@0@AEAV10@@Z ; std::forward<std::shared_ptr<ChunkBase> >
PUBLIC	??$construct@V?$shared_ptr@VChunkBase@@@std@@V12@@?$_Wrap_alloc@V?$allocator@V?$shared_ptr@VChunkBase@@@std@@@std@@@std@@QEAAXPEAV?$shared_ptr@VChunkBase@@@1@$$QEAV21@@Z ; std::_Wrap_alloc<std::allocator<std::shared_ptr<ChunkBase> > >::construct<std::shared_ptr<ChunkBase>,std::shared_ptr<ChunkBase> >
PUBLIC	??$_Uninit_move@PEAV?$shared_ptr@VChunkBase@@@std@@PEAV12@V?$allocator@V?$shared_ptr@VChunkBase@@@std@@@2@V12@@std@@YAPEAV?$shared_ptr@VChunkBase@@@0@PEAV10@00AEAU?$_Wrap_alloc@V?$allocator@V?$shared_ptr@VChunkBase@@@std@@@std@@@0@0U_Nonscalar_ptr_iterator_tag@0@@Z ; std::_Uninit_move<std::shared_ptr<ChunkBase> * __ptr64,std::shared_ptr<ChunkBase> * __ptr64,std::allocator<std::shared_ptr<ChunkBase> >,std::shared_ptr<ChunkBase> >
PUBLIC	??$_Val_type@PEAV?$shared_ptr@VChunkBase@@@std@@@std@@YAPEAV?$shared_ptr@VChunkBase@@@0@PEAV10@@Z ; std::_Val_type<std::shared_ptr<ChunkBase> * __ptr64>
PUBLIC	??$construct@V?$shared_ptr@VChunkBase@@@std@@AEAV12@@?$allocator@V?$shared_ptr@VChunkBase@@@std@@@std@@QEAAXPEAV?$shared_ptr@VChunkBase@@@1@AEAV21@@Z ; std::allocator<std::shared_ptr<ChunkBase> >::construct<std::shared_ptr<ChunkBase>,std::shared_ptr<ChunkBase> & __ptr64>
PUBLIC	??$_Uninitialized_move@PEAV?$shared_ptr@VChunkBase@@@std@@PEAV12@U?$_Wrap_alloc@V?$allocator@V?$shared_ptr@VChunkBase@@@std@@@std@@@2@@std@@YAPEAV?$shared_ptr@VChunkBase@@@0@PEAV10@00AEAU?$_Wrap_alloc@V?$allocator@V?$shared_ptr@VChunkBase@@@std@@@std@@@0@@Z ; std::_Uninitialized_move<std::shared_ptr<ChunkBase> * __ptr64,std::shared_ptr<ChunkBase> * __ptr64,std::_Wrap_alloc<std::allocator<std::shared_ptr<ChunkBase> > > >
PUBLIC	??$_Destroy_range@U?$_Wrap_alloc@V?$allocator@V?$shared_ptr@VChunkBase@@@std@@@std@@@std@@@std@@YAXPEAV?$shared_ptr@VChunkBase@@@0@0AEAU?$_Wrap_alloc@V?$allocator@V?$shared_ptr@VChunkBase@@@std@@@std@@@0@U_Nonscalar_ptr_iterator_tag@0@@Z ; std::_Destroy_range<std::_Wrap_alloc<std::allocator<std::shared_ptr<ChunkBase> > > >
PUBLIC	??$_Ptr_cat@V?$shared_ptr@VChunkBase@@@std@@V12@@std@@YA?AU_Nonscalar_ptr_iterator_tag@0@PEAV?$shared_ptr@VChunkBase@@@0@0@Z ; std::_Ptr_cat<std::shared_ptr<ChunkBase>,std::shared_ptr<ChunkBase> >
PUBLIC	??$?8_W_W@std@@YA_NAEBV?$allocator@_W@0@0@Z	; std::operator==<wchar_t,wchar_t>
PUBLIC	??$construct@V?$shared_ptr@VChunkBase@@@std@@AEAV12@@?$allocator_traits@V?$allocator@V?$shared_ptr@VChunkBase@@@std@@@std@@@std@@SAXAEAV?$allocator@V?$shared_ptr@VChunkBase@@@std@@@1@PEAV?$shared_ptr@VChunkBase@@@1@AEAV31@@Z ; std::allocator_traits<std::allocator<std::shared_ptr<ChunkBase> > >::construct<std::shared_ptr<ChunkBase>,std::shared_ptr<ChunkBase> & __ptr64>
PUBLIC	??$forward@AEAV?$shared_ptr@VChunkBase@@@std@@@std@@YAAEAV?$shared_ptr@VChunkBase@@@0@AEAV10@@Z ; std::forward<std::shared_ptr<ChunkBase> & __ptr64>
PUBLIC	??$?8V?$allocator@_W@std@@V01@@std@@YA_NAEBU?$_Wrap_alloc@V?$allocator@_W@std@@@0@0@Z ; std::operator==<std::allocator<wchar_t>,std::allocator<wchar_t> >
PUBLIC	??$_Umove@PEAV?$shared_ptr@VChunkBase@@@std@@@?$vector@V?$shared_ptr@VChunkBase@@@std@@V?$allocator@V?$shared_ptr@VChunkBase@@@std@@@2@@std@@IEAAPEAV?$shared_ptr@VChunkBase@@@1@PEAV21@00@Z ; std::vector<std::shared_ptr<ChunkBase>,std::allocator<std::shared_ptr<ChunkBase> > >::_Umove<std::shared_ptr<ChunkBase> * __ptr64>
PUBLIC	??$_Destroy_range@U?$_Wrap_alloc@V?$allocator@V?$shared_ptr@VChunkBase@@@std@@@std@@@std@@@std@@YAXPEAV?$shared_ptr@VChunkBase@@@0@0AEAU?$_Wrap_alloc@V?$allocator@V?$shared_ptr@VChunkBase@@@std@@@std@@@0@@Z ; std::_Destroy_range<std::_Wrap_alloc<std::allocator<std::shared_ptr<ChunkBase> > > >
PUBLIC	??$addressof@U?$pair@$$CBVChunkPosition@@V?$shared_ptr@VChunkBase@@@std@@@std@@@std@@YAPEAU?$pair@$$CBVChunkPosition@@V?$shared_ptr@VChunkBase@@@std@@@0@AEAU10@@Z ; std::addressof<std::pair<ChunkPosition const ,std::shared_ptr<ChunkBase> > >
PUBLIC	??$construct@V?$shared_ptr@VChunkBase@@@std@@AEAV12@@?$_Wrap_alloc@V?$allocator@V?$shared_ptr@VChunkBase@@@std@@@std@@@std@@QEAAXPEAV?$shared_ptr@VChunkBase@@@1@AEAV21@@Z ; std::_Wrap_alloc<std::allocator<std::shared_ptr<ChunkBase> > >::construct<std::shared_ptr<ChunkBase>,std::shared_ptr<ChunkBase> & __ptr64>
PUBLIC	??$addressof@$$CBV?$shared_ptr@VChunkBase@@@std@@@std@@YAPEBV?$shared_ptr@VChunkBase@@@0@AEBV10@@Z ; std::addressof<std::shared_ptr<ChunkBase> const >
PUBLIC	??$?9V?$allocator@_W@std@@V01@@std@@YA_NAEBU?$_Wrap_alloc@V?$allocator@_W@std@@@0@0@Z ; std::operator!=<std::allocator<wchar_t>,std::allocator<wchar_t> >
PUBLIC	??0?$_List_unchecked_const_iterator@V?$_List_val@U?$_List_simple_types@U?$pair@$$CBVChunkPosition@@V?$shared_ptr@VChunkBase@@@std@@@std@@@std@@@std@@U_Iterator_base0@2@@std@@QEAA@PEAU?$_List_node@U?$pair@$$CBVChunkPosition@@V?$shared_ptr@VChunkBase@@@std@@@std@@PEAX@1@PEBV?$_List_val@U?$_List_simple_types@U?$pair@$$CBVChunkPosition@@V?$shared_ptr@VChunkBase@@@std@@@std@@@std@@@1@@Z ; std::_List_unchecked_const_iterator<std::_List_val<std::_List_simple_types<std::pair<ChunkPosition const ,std::shared_ptr<ChunkBase> > > >,std::_Iterator_base0>::_List_unchecked_const_iterator<std::_List_val<std::_List_simple_types<std::pair<ChunkPosition const ,std::shared_ptr<ChunkBase> > > >,std::_Iterator_base0>
PUBLIC	??0?$_List_const_iterator@V?$_List_val@U?$_List_simple_types@U?$pair@$$CBVChunkPosition@@V?$shared_ptr@VChunkBase@@@std@@@std@@@std@@@std@@@std@@QEAA@PEAU?$_List_node@U?$pair@$$CBVChunkPosition@@V?$shared_ptr@VChunkBase@@@std@@@std@@PEAX@1@PEBV?$_List_val@U?$_List_simple_types@U?$pair@$$CBVChunkPosition@@V?$shared_ptr@VChunkBase@@@std@@@std@@@std@@@1@@Z ; std::_List_const_iterator<std::_List_val<std::_List_simple_types<std::pair<ChunkPosition const ,std::shared_ptr<ChunkBase> > > > >::_List_const_iterator<std::_List_val<std::_List_simple_types<std::pair<ChunkPosition const ,std::shared_ptr<ChunkBase> > > > >
PUBLIC	?capacity@?$vector@V?$shared_ptr@VChunkBase@@@std@@V?$allocator@V?$shared_ptr@VChunkBase@@@std@@@2@@std@@QEBA_KXZ ; std::vector<std::shared_ptr<ChunkBase>,std::allocator<std::shared_ptr<ChunkBase> > >::capacity
PUBLIC	?deallocate@?$allocator@V?$shared_ptr@VChunkBase@@@std@@@std@@QEAAXPEAV?$shared_ptr@VChunkBase@@@2@_K@Z ; std::allocator<std::shared_ptr<ChunkBase> >::deallocate
PUBLIC	?_Myval@?$_List_val@U?$_List_simple_types@U?$pair@$$CBVChunkPosition@@V?$shared_ptr@VChunkBase@@@std@@@std@@@std@@@std@@SAAEAU?$pair@$$CBVChunkPosition@@V?$shared_ptr@VChunkBase@@@std@@@2@PEAU?$_List_node@U?$pair@$$CBVChunkPosition@@V?$shared_ptr@VChunkBase@@@std@@@std@@PEAX@2@@Z ; std::_List_val<std::_List_simple_types<std::pair<ChunkPosition const ,std::shared_ptr<ChunkBase> > > >::_Myval
PUBLIC	??D?$_List_const_iterator@V?$_List_val@U?$_List_simple_types@U?$pair@$$CBVChunkPosition@@V?$shared_ptr@VChunkBase@@@std@@@std@@@std@@@std@@@std@@QEBAAEBU?$pair@$$CBVChunkPosition@@V?$shared_ptr@VChunkBase@@@std@@@1@XZ ; std::_List_const_iterator<std::_List_val<std::_List_simple_types<std::pair<ChunkPosition const ,std::shared_ptr<ChunkBase> > > > >::operator*
PUBLIC	??0?$_List_iterator@V?$_List_val@U?$_List_simple_types@U?$pair@$$CBVChunkPosition@@V?$shared_ptr@VChunkBase@@@std@@@std@@@std@@@std@@@std@@QEAA@PEAU?$_List_node@U?$pair@$$CBVChunkPosition@@V?$shared_ptr@VChunkBase@@@std@@@std@@PEAX@1@PEBV?$_List_val@U?$_List_simple_types@U?$pair@$$CBVChunkPosition@@V?$shared_ptr@VChunkBase@@@std@@@std@@@std@@@1@@Z ; std::_List_iterator<std::_List_val<std::_List_simple_types<std::pair<ChunkPosition const ,std::shared_ptr<ChunkBase> > > > >::_List_iterator<std::_List_val<std::_List_simple_types<std::pair<ChunkPosition const ,std::shared_ptr<ChunkBase> > > > >
PUBLIC	??0?$_Vector_val@U?$_Simple_types@V?$shared_ptr@VChunkBase@@@std@@@std@@@std@@QEAA@XZ ; std::_Vector_val<std::_Simple_types<std::shared_ptr<ChunkBase> > >::_Vector_val<std::_Simple_types<std::shared_ptr<ChunkBase> > >
PUBLIC	?_Xlen@?$vector@V?$shared_ptr@VChunkBase@@@std@@V?$allocator@V?$shared_ptr@VChunkBase@@@std@@@2@@std@@IEBAXXZ ; std::vector<std::shared_ptr<ChunkBase>,std::allocator<std::shared_ptr<ChunkBase> > >::_Xlen
PUBLIC	?_Reallocate@?$vector@V?$shared_ptr@VChunkBase@@@std@@V?$allocator@V?$shared_ptr@VChunkBase@@@std@@@2@@std@@IEAAX_K@Z ; std::vector<std::shared_ptr<ChunkBase>,std::allocator<std::shared_ptr<ChunkBase> > >::_Reallocate
PUBLIC	?_Grow_to@?$vector@V?$shared_ptr@VChunkBase@@@std@@V?$allocator@V?$shared_ptr@VChunkBase@@@std@@@2@@std@@IEBA_K_K@Z ; std::vector<std::shared_ptr<ChunkBase>,std::allocator<std::shared_ptr<ChunkBase> > >::_Grow_to
PUBLIC	?_Destroy@?$vector@V?$shared_ptr@VChunkBase@@@std@@V?$allocator@V?$shared_ptr@VChunkBase@@@std@@@2@@std@@IEAAXPEAV?$shared_ptr@VChunkBase@@@2@0@Z ; std::vector<std::shared_ptr<ChunkBase>,std::allocator<std::shared_ptr<ChunkBase> > >::_Destroy
PUBLIC	?max_size@?$vector@V?$shared_ptr@VChunkBase@@@std@@V?$allocator@V?$shared_ptr@VChunkBase@@@std@@@2@@std@@QEBA_KXZ ; std::vector<std::shared_ptr<ChunkBase>,std::allocator<std::shared_ptr<ChunkBase> > >::max_size
PUBLIC	?_Unused_capacity@?$vector@V?$shared_ptr@VChunkBase@@@std@@V?$allocator@V?$shared_ptr@VChunkBase@@@std@@@2@@std@@QEBA_KXZ ; std::vector<std::shared_ptr<ChunkBase>,std::allocator<std::shared_ptr<ChunkBase> > >::_Unused_capacity
PUBLIC	?deallocate@?$_Wrap_alloc@V?$allocator@V?$shared_ptr@VChunkBase@@@std@@@std@@@std@@QEAAXPEAV?$shared_ptr@VChunkBase@@@2@_K@Z ; std::_Wrap_alloc<std::allocator<std::shared_ptr<ChunkBase> > >::deallocate
PUBLIC	?_Nextnode@?$_List_val@U?$_List_simple_types@U?$pair@$$CBVChunkPosition@@V?$shared_ptr@VChunkBase@@@std@@@std@@@std@@@std@@SAAEAPEAU?$_List_node@U?$pair@$$CBVChunkPosition@@V?$shared_ptr@VChunkBase@@@std@@@std@@PEAX@2@PEAU32@@Z ; std::_List_val<std::_List_simple_types<std::pair<ChunkPosition const ,std::shared_ptr<ChunkBase> > > >::_Nextnode
PUBLIC	?pointer_to@?$pointer_traits@PEAU?$pair@$$CBVChunkPosition@@V?$shared_ptr@VChunkBase@@@std@@@std@@@std@@SAPEAU?$pair@$$CBVChunkPosition@@V?$shared_ptr@VChunkBase@@@std@@@2@AEAU32@@Z ; std::pointer_traits<std::pair<ChunkPosition const ,std::shared_ptr<ChunkBase> > * __ptr64>::pointer_to
PUBLIC	??8?$_List_const_iterator@V?$_List_val@U?$_List_simple_types@U?$pair@$$CBVChunkPosition@@V?$shared_ptr@VChunkBase@@@std@@@std@@@std@@@std@@@std@@QEBA_NAEBV01@@Z ; std::_List_const_iterator<std::_List_val<std::_List_simple_types<std::pair<ChunkPosition const ,std::shared_ptr<ChunkBase> > > > >::operator==
PUBLIC	??E?$_List_const_iterator@V?$_List_val@U?$_List_simple_types@U?$pair@$$CBVChunkPosition@@V?$shared_ptr@VChunkBase@@@std@@@std@@@std@@@std@@@std@@QEAAAEAV01@XZ ; std::_List_const_iterator<std::_List_val<std::_List_simple_types<std::pair<ChunkPosition const ,std::shared_ptr<ChunkBase> > > > >::operator++
PUBLIC	??D?$_List_iterator@V?$_List_val@U?$_List_simple_types@U?$pair@$$CBVChunkPosition@@V?$shared_ptr@VChunkBase@@@std@@@std@@@std@@@std@@@std@@QEBAAEAU?$pair@$$CBVChunkPosition@@V?$shared_ptr@VChunkBase@@@std@@@1@XZ ; std::_List_iterator<std::_List_val<std::_List_simple_types<std::pair<ChunkPosition const ,std::shared_ptr<ChunkBase> > > > >::operator*
PUBLIC	?_Getal@?$_Vector_alloc@$0A@U?$_Vec_base_types@V?$shared_ptr@VChunkBase@@@std@@V?$allocator@V?$shared_ptr@VChunkBase@@@std@@@2@@std@@@std@@QEBA?AU?$_Wrap_alloc@V?$allocator@V?$shared_ptr@VChunkBase@@@std@@@std@@@2@XZ ; std::_Vector_alloc<0,std::_Vec_base_types<std::shared_ptr<ChunkBase>,std::allocator<std::shared_ptr<ChunkBase> > > >::_Getal
PUBLIC	??0?$_Vector_alloc@$0A@U?$_Vec_base_types@V?$shared_ptr@VChunkBase@@@std@@V?$allocator@V?$shared_ptr@VChunkBase@@@std@@@2@@std@@@std@@QEAA@AEBV?$allocator@V?$shared_ptr@VChunkBase@@@std@@@1@@Z ; std::_Vector_alloc<0,std::_Vec_base_types<std::shared_ptr<ChunkBase>,std::allocator<std::shared_ptr<ChunkBase> > > >::_Vector_alloc<0,std::_Vec_base_types<std::shared_ptr<ChunkBase>,std::allocator<std::shared_ptr<ChunkBase> > > >
PUBLIC	?_Orphan_range@?$vector@V?$shared_ptr@VChunkBase@@@std@@V?$allocator@V?$shared_ptr@VChunkBase@@@std@@@2@@std@@IEBAXPEAV?$shared_ptr@VChunkBase@@@2@0@Z ; std::vector<std::shared_ptr<ChunkBase>,std::allocator<std::shared_ptr<ChunkBase> > >::_Orphan_range
PUBLIC	?_Tidy@?$vector@V?$shared_ptr@VChunkBase@@@std@@V?$allocator@V?$shared_ptr@VChunkBase@@@std@@@2@@std@@IEAAXXZ ; std::vector<std::shared_ptr<ChunkBase>,std::allocator<std::shared_ptr<ChunkBase> > >::_Tidy
PUBLIC	?_Reserve@?$vector@V?$shared_ptr@VChunkBase@@@std@@V?$allocator@V?$shared_ptr@VChunkBase@@@std@@@2@@std@@IEAAX_K@Z ; std::vector<std::shared_ptr<ChunkBase>,std::allocator<std::shared_ptr<ChunkBase> > >::_Reserve
PUBLIC	?_Inside@?$vector@V?$shared_ptr@VChunkBase@@@std@@V?$allocator@V?$shared_ptr@VChunkBase@@@std@@@2@@std@@IEBA_NPEBV?$shared_ptr@VChunkBase@@@2@@Z ; std::vector<std::shared_ptr<ChunkBase>,std::allocator<std::shared_ptr<ChunkBase> > >::_Inside
PUBLIC	?clear@?$List@PEAVTask@Tasks@@$0BAA@@@QEAAXXZ	; List<Tasks::Task * __ptr64,256>::clear
PUBLIC	?getSize@?$List@PEAVTask@Tasks@@$0BAA@@@QEAAHXZ	; List<Tasks::Task * __ptr64,256>::getSize
PUBLIC	??A?$List@PEAVTask@Tasks@@$0BAA@@@QEAAAEAPEAVTask@Tasks@@H@Z ; List<Tasks::Task * __ptr64,256>::operator[]
PUBLIC	?end@?$list@U?$pair@$$CBVChunkPosition@@V?$shared_ptr@VChunkBase@@@std@@@std@@V?$allocator@U?$pair@$$CBVChunkPosition@@V?$shared_ptr@VChunkBase@@@std@@@std@@@2@@std@@QEAA?AV?$_List_iterator@V?$_List_val@U?$_List_simple_types@U?$pair@$$CBVChunkPosition@@V?$shared_ptr@VChunkBase@@@std@@@std@@@std@@@std@@@2@XZ ; std::list<std::pair<ChunkPosition const ,std::shared_ptr<ChunkBase> >,std::allocator<std::pair<ChunkPosition const ,std::shared_ptr<ChunkBase> > > >::end
PUBLIC	?begin@?$list@U?$pair@$$CBVChunkPosition@@V?$shared_ptr@VChunkBase@@@std@@@std@@V?$allocator@U?$pair@$$CBVChunkPosition@@V?$shared_ptr@VChunkBase@@@std@@@std@@@2@@std@@QEAA?AV?$_List_iterator@V?$_List_val@U?$_List_simple_types@U?$pair@$$CBVChunkPosition@@V?$shared_ptr@VChunkBase@@@std@@@std@@@std@@@std@@@2@XZ ; std::list<std::pair<ChunkPosition const ,std::shared_ptr<ChunkBase> >,std::allocator<std::pair<ChunkPosition const ,std::shared_ptr<ChunkBase> > > >::begin
PUBLIC	?_Get@?$_Ptr_base@VVertexStream@gfxu@@@std@@QEBAPEAVVertexStream@gfxu@@XZ ; std::_Ptr_base<gfxu::VertexStream>::_Get
PUBLIC	?_Change_alloc@?$_String_alloc@$0A@U?$_String_base_types@_WV?$allocator@_W@std@@@std@@@std@@QEAAXAEBU?$_Wrap_alloc@V?$allocator@_W@std@@@2@@Z ; std::_String_alloc<0,std::_String_base_types<wchar_t,std::allocator<wchar_t> > >::_Change_alloc
PUBLIC	?assign@?$basic_string@_WU?$char_traits@_W@std@@V?$allocator@_W@2@@std@@QEAAAEAV12@AEBV12@@Z ; std::basic_string<wchar_t,std::char_traits<wchar_t>,std::allocator<wchar_t> >::assign
PUBLIC	??9?$_List_const_iterator@V?$_List_val@U?$_List_simple_types@U?$pair@$$CBVChunkPosition@@V?$shared_ptr@VChunkBase@@@std@@@std@@@std@@@std@@@std@@QEBA_NAEBV01@@Z ; std::_List_const_iterator<std::_List_val<std::_List_simple_types<std::pair<ChunkPosition const ,std::shared_ptr<ChunkBase> > > > >::operator!=
PUBLIC	??E?$_List_iterator@V?$_List_val@U?$_List_simple_types@U?$pair@$$CBVChunkPosition@@V?$shared_ptr@VChunkBase@@@std@@@std@@@std@@@std@@@std@@QEAAAEAV01@XZ ; std::_List_iterator<std::_List_val<std::_List_simple_types<std::pair<ChunkPosition const ,std::shared_ptr<ChunkBase> > > > >::operator++
PUBLIC	??C?$_List_iterator@V?$_List_val@U?$_List_simple_types@U?$pair@$$CBVChunkPosition@@V?$shared_ptr@VChunkBase@@@std@@@std@@@std@@@std@@@std@@QEBAPEAU?$pair@$$CBVChunkPosition@@V?$shared_ptr@VChunkBase@@@std@@@1@XZ ; std::_List_iterator<std::_List_val<std::_List_simple_types<std::pair<ChunkPosition const ,std::shared_ptr<ChunkBase> > > > >::operator->
PUBLIC	?push_back@?$vector@V?$shared_ptr@VChunkBase@@@std@@V?$allocator@V?$shared_ptr@VChunkBase@@@std@@@2@@std@@QEAAXAEBV?$shared_ptr@VChunkBase@@@2@@Z ; std::vector<std::shared_ptr<ChunkBase>,std::allocator<std::shared_ptr<ChunkBase> > >::push_back
PUBLIC	??A?$vector@V?$shared_ptr@VChunkBase@@@std@@V?$allocator@V?$shared_ptr@VChunkBase@@@std@@@2@@std@@QEAAAEAV?$shared_ptr@VChunkBase@@@1@_K@Z ; std::vector<std::shared_ptr<ChunkBase>,std::allocator<std::shared_ptr<ChunkBase> > >::operator[]
PUBLIC	?size@?$vector@V?$shared_ptr@VChunkBase@@@std@@V?$allocator@V?$shared_ptr@VChunkBase@@@std@@@2@@std@@QEBA_KXZ ; std::vector<std::shared_ptr<ChunkBase>,std::allocator<std::shared_ptr<ChunkBase> > >::size
PUBLIC	??1?$vector@V?$shared_ptr@VChunkBase@@@std@@V?$allocator@V?$shared_ptr@VChunkBase@@@std@@@2@@std@@QEAA@XZ ; std::vector<std::shared_ptr<ChunkBase>,std::allocator<std::shared_ptr<ChunkBase> > >::~vector<std::shared_ptr<ChunkBase>,std::allocator<std::shared_ptr<ChunkBase> > >
PUBLIC	??0?$vector@V?$shared_ptr@VChunkBase@@@std@@V?$allocator@V?$shared_ptr@VChunkBase@@@std@@@2@@std@@QEAA@XZ ; std::vector<std::shared_ptr<ChunkBase>,std::allocator<std::shared_ptr<ChunkBase> > >::vector<std::shared_ptr<ChunkBase>,std::allocator<std::shared_ptr<ChunkBase> > >
PUBLIC	?clear@?$VirtualList@VTask@Tasks@@$0BAA@$0BAAC@@@QEAAXXZ ; VirtualList<Tasks::Task,256,4098>::clear
PUBLIC	?getSize@?$VirtualList@VTask@Tasks@@$0BAA@$0BAAC@@@QEAAHXZ ; VirtualList<Tasks::Task,256,4098>::getSize
PUBLIC	??A?$VirtualList@VTask@Tasks@@$0BAA@$0BAAC@@@QEAAPEAVTask@Tasks@@H@Z ; VirtualList<Tasks::Task,256,4098>::operator[]
PUBLIC	?end@?$_Hash@V?$_Umap_traits@VChunkPosition@@V?$shared_ptr@VChunkBase@@@std@@V?$_Uhash_compare@VChunkPosition@@U?$hash@VChunkPosition@@@std@@U?$equal_to@VChunkPosition@@@3@@3@V?$allocator@U?$pair@$$CBVChunkPosition@@V?$shared_ptr@VChunkBase@@@std@@@std@@@3@$0A@@std@@@std@@QEAA?AV?$_List_iterator@V?$_List_val@U?$_List_simple_types@U?$pair@$$CBVChunkPosition@@V?$shared_ptr@VChunkBase@@@std@@@std@@@std@@@std@@@2@XZ ; std::_Hash<std::_Umap_traits<ChunkPosition,std::shared_ptr<ChunkBase>,std::_Uhash_compare<ChunkPosition,std::hash<ChunkPosition>,std::equal_to<ChunkPosition> >,std::allocator<std::pair<ChunkPosition const ,std::shared_ptr<ChunkBase> > >,0> >::end
PUBLIC	?begin@?$_Hash@V?$_Umap_traits@VChunkPosition@@V?$shared_ptr@VChunkBase@@@std@@V?$_Uhash_compare@VChunkPosition@@U?$hash@VChunkPosition@@@std@@U?$equal_to@VChunkPosition@@@3@@3@V?$allocator@U?$pair@$$CBVChunkPosition@@V?$shared_ptr@VChunkBase@@@std@@@std@@@3@$0A@@std@@@std@@QEAA?AV?$_List_iterator@V?$_List_val@U?$_List_simple_types@U?$pair@$$CBVChunkPosition@@V?$shared_ptr@VChunkBase@@@std@@@std@@@std@@@std@@@2@XZ ; std::_Hash<std::_Umap_traits<ChunkPosition,std::shared_ptr<ChunkBase>,std::_Uhash_compare<ChunkPosition,std::hash<ChunkPosition>,std::equal_to<ChunkPosition> >,std::allocator<std::pair<ChunkPosition const ,std::shared_ptr<ChunkBase> > >,0> >::begin
PUBLIC	??B?$shared_ptr@VVertexStream@gfxu@@@std@@QEBAPEQ?$_Bool_struct@V?$shared_ptr@VVertexStream@gfxu@@@std@@@1@HXZ ; std::shared_ptr<gfxu::VertexStream>::operator int std::_Bool_struct<std::shared_ptr<gfxu::VertexStream> >::* __ptr64
PUBLIC	??C?$shared_ptr@VVertexStream@gfxu@@@std@@QEBAPEAVVertexStream@gfxu@@XZ ; std::shared_ptr<gfxu::VertexStream>::operator->
PUBLIC	?set@?$Uniform@M@gfxu@@QEAAXM@Z			; gfxu::Uniform<float>::set
PUBLIC	?set@?$Uniform@VVector@geom@@@gfxu@@QEAAXVVector@geom@@@Z ; gfxu::Uniform<geom::Vector>::set
PUBLIC	??4?$basic_string@_WU?$char_traits@_W@std@@V?$allocator@_W@2@@std@@QEAAAEAV01@AEBV01@@Z ; std::basic_string<wchar_t,std::char_traits<wchar_t>,std::allocator<wchar_t> >::operator=
PUBLIC	??1FragmentShader@gfxu@@QEAA@XZ			; gfxu::FragmentShader::~FragmentShader
PUBLIC	??1VertexShader@gfxu@@QEAA@XZ			; gfxu::VertexShader::~VertexShader
PUBLIC	??_GTiledTexture@gfxu@@QEAAPEAXI@Z		; gfxu::TiledTexture::`scalar deleting destructor'
PUBLIC	??_GShaderProgram@gfxu@@QEAAPEAXI@Z		; gfxu::ShaderProgram::`scalar deleting destructor'
PUBLIC	??_GFragmentShader@gfxu@@QEAAPEAXI@Z		; gfxu::FragmentShader::`scalar deleting destructor'
PUBLIC	??_GVertexShader@gfxu@@QEAAPEAXI@Z		; gfxu::VertexShader::`scalar deleting destructor'
PUBLIC	?postStop@RenderThread@@UEAAXXZ			; RenderThread::postStop
PUBLIC	?preStart@RenderThread@@UEAAXXZ			; RenderThread::preStart
PUBLIC	?tick@RenderThread@@EEAA_NXZ			; RenderThread::tick
PUBLIC	?program@@3VProgram@cl@@A			; program
PUBLIC	?gridBuffer@@3VBuffer@cl@@A			; gridBuffer
PUBLIC	?projectionMatrixBuffer@@3VBuffer@cl@@A		; projectionMatrixBuffer
PUBLIC	?commandQueue@@3VCommandQueue@cl@@A		; commandQueue
PUBLIC	?boolBuffer@@3VBuffer@cl@@A			; boolBuffer
	ALIGN	4

_Tuple_alloc DB	01H DUP (?)
	ALIGN	4

ignore	DB	01H DUP (?)
	ALIGN	4

?program@@3VProgram@cl@@A DB 038H DUP (?)		; program
allocator_arg DB 01H DUP (?)
	ALIGN	4

?gridBuffer@@3VBuffer@cl@@A DB 018H DUP (?)		; gridBuffer
?projectionMatrixBuffer@@3VBuffer@cl@@A DB 018H DUP (?)	; projectionMatrixBuffer
piecewise_construct DB 01H DUP (?)
	ALIGN	4

?commandQueue@@3VCommandQueue@cl@@A DB 028H DUP (?)	; commandQueue
?boolBuffer@@3VBuffer@cl@@A DB 018H DUP (?)		; boolBuffer
_BSS	ENDS
;	COMDAT pdata
pdata	SEGMENT
$pdata$??$_Uninitialized_move@PEAV?$shared_ptr@VChunkBase@@@std@@PEAV12@U?$_Wrap_alloc@V?$allocator@V?$shared_ptr@VChunkBase@@@std@@@std@@@2@@std@@YAPEAV?$shared_ptr@VChunkBase@@@0@PEAV10@00AEAU?$_Wrap_alloc@V?$allocator@V?$shared_ptr@VChunkBase@@@std@@@std@@@0@@Z DD imagerel $LN8
	DD	imagerel $LN8+14
	DD	imagerel $unwind$??$_Uninitialized_move@PEAV?$shared_ptr@VChunkBase@@@std@@PEAV12@U?$_Wrap_alloc@V?$allocator@V?$shared_ptr@VChunkBase@@@std@@@std@@@2@@std@@YAPEAV?$shared_ptr@VChunkBase@@@0@PEAV10@00AEAU?$_Wrap_alloc@V?$allocator@V?$shared_ptr@VChunkBase@@@std@@@std@@@0@@Z
pdata	ENDS
;	COMDAT pdata
pdata	SEGMENT
$pdata$??$_Destroy_range@U?$_Wrap_alloc@V?$allocator@V?$shared_ptr@VChunkBase@@@std@@@std@@@std@@@std@@YAXPEAV?$shared_ptr@VChunkBase@@@0@0AEAU?$_Wrap_alloc@V?$allocator@V?$shared_ptr@VChunkBase@@@std@@@std@@@0@U_Nonscalar_ptr_iterator_tag@0@@Z DD imagerel $LN31
	DD	imagerel $LN31+10
	DD	imagerel $unwind$??$_Destroy_range@U?$_Wrap_alloc@V?$allocator@V?$shared_ptr@VChunkBase@@@std@@@std@@@std@@@std@@YAXPEAV?$shared_ptr@VChunkBase@@@0@0AEAU?$_Wrap_alloc@V?$allocator@V?$shared_ptr@VChunkBase@@@std@@@std@@@0@U_Nonscalar_ptr_iterator_tag@0@@Z
pdata	ENDS
;	COMDAT pdata
pdata	SEGMENT
$pdata$1$??$_Destroy_range@U?$_Wrap_alloc@V?$allocator@V?$shared_ptr@VChunkBase@@@std@@@std@@@std@@@std@@YAXPEAV?$shared_ptr@VChunkBase@@@0@0AEAU?$_Wrap_alloc@V?$allocator@V?$shared_ptr@VChunkBase@@@std@@@std@@@0@U_Nonscalar_ptr_iterator_tag@0@@Z DD imagerel $LN31+10
	DD	imagerel $LN31+97
	DD	imagerel $chain$1$??$_Destroy_range@U?$_Wrap_alloc@V?$allocator@V?$shared_ptr@VChunkBase@@@std@@@std@@@std@@@std@@YAXPEAV?$shared_ptr@VChunkBase@@@0@0AEAU?$_Wrap_alloc@V?$allocator@V?$shared_ptr@VChunkBase@@@std@@@std@@@0@U_Nonscalar_ptr_iterator_tag@0@@Z
pdata	ENDS
;	COMDAT pdata
pdata	SEGMENT
$pdata$2$??$_Destroy_range@U?$_Wrap_alloc@V?$allocator@V?$shared_ptr@VChunkBase@@@std@@@std@@@std@@@std@@YAXPEAV?$shared_ptr@VChunkBase@@@0@0AEAU?$_Wrap_alloc@V?$allocator@V?$shared_ptr@VChunkBase@@@std@@@std@@@0@U_Nonscalar_ptr_iterator_tag@0@@Z DD imagerel $LN31+97
	DD	imagerel $LN31+99
	DD	imagerel $chain$2$??$_Destroy_range@U?$_Wrap_alloc@V?$allocator@V?$shared_ptr@VChunkBase@@@std@@@std@@@std@@@std@@YAXPEAV?$shared_ptr@VChunkBase@@@0@0AEAU?$_Wrap_alloc@V?$allocator@V?$shared_ptr@VChunkBase@@@std@@@std@@@0@U_Nonscalar_ptr_iterator_tag@0@@Z
pdata	ENDS
;	COMDAT pdata
pdata	SEGMENT
$pdata$??$_Umove@PEAV?$shared_ptr@VChunkBase@@@std@@@?$vector@V?$shared_ptr@VChunkBase@@@std@@V?$allocator@V?$shared_ptr@VChunkBase@@@std@@@2@@std@@IEAAPEAV?$shared_ptr@VChunkBase@@@1@PEAV21@00@Z DD imagerel $LN10
	DD	imagerel $LN10+26
	DD	imagerel $unwind$??$_Umove@PEAV?$shared_ptr@VChunkBase@@@std@@@?$vector@V?$shared_ptr@VChunkBase@@@std@@V?$allocator@V?$shared_ptr@VChunkBase@@@std@@@2@@std@@IEAAPEAV?$shared_ptr@VChunkBase@@@1@PEAV21@00@Z
pdata	ENDS
;	COMDAT pdata
pdata	SEGMENT
$pdata$??$_Destroy_range@U?$_Wrap_alloc@V?$allocator@V?$shared_ptr@VChunkBase@@@std@@@std@@@std@@@std@@YAXPEAV?$shared_ptr@VChunkBase@@@0@0AEAU?$_Wrap_alloc@V?$allocator@V?$shared_ptr@VChunkBase@@@std@@@std@@@0@@Z DD imagerel $LN35
	DD	imagerel $LN35+10
	DD	imagerel $unwind$??$_Destroy_range@U?$_Wrap_alloc@V?$allocator@V?$shared_ptr@VChunkBase@@@std@@@std@@@std@@@std@@YAXPEAV?$shared_ptr@VChunkBase@@@0@0AEAU?$_Wrap_alloc@V?$allocator@V?$shared_ptr@VChunkBase@@@std@@@std@@@0@@Z
pdata	ENDS
;	COMDAT pdata
pdata	SEGMENT
$pdata$1$??$_Destroy_range@U?$_Wrap_alloc@V?$allocator@V?$shared_ptr@VChunkBase@@@std@@@std@@@std@@@std@@YAXPEAV?$shared_ptr@VChunkBase@@@0@0AEAU?$_Wrap_alloc@V?$allocator@V?$shared_ptr@VChunkBase@@@std@@@std@@@0@@Z DD imagerel $LN35+10
	DD	imagerel $LN35+97
	DD	imagerel $chain$1$??$_Destroy_range@U?$_Wrap_alloc@V?$allocator@V?$shared_ptr@VChunkBase@@@std@@@std@@@std@@@std@@YAXPEAV?$shared_ptr@VChunkBase@@@0@0AEAU?$_Wrap_alloc@V?$allocator@V?$shared_ptr@VChunkBase@@@std@@@std@@@0@@Z
pdata	ENDS
;	COMDAT pdata
pdata	SEGMENT
$pdata$2$??$_Destroy_range@U?$_Wrap_alloc@V?$allocator@V?$shared_ptr@VChunkBase@@@std@@@std@@@std@@@std@@YAXPEAV?$shared_ptr@VChunkBase@@@0@0AEAU?$_Wrap_alloc@V?$allocator@V?$shared_ptr@VChunkBase@@@std@@@std@@@0@@Z DD imagerel $LN35+97
	DD	imagerel $LN35+99
	DD	imagerel $chain$2$??$_Destroy_range@U?$_Wrap_alloc@V?$allocator@V?$shared_ptr@VChunkBase@@@std@@@std@@@std@@@std@@YAXPEAV?$shared_ptr@VChunkBase@@@0@0AEAU?$_Wrap_alloc@V?$allocator@V?$shared_ptr@VChunkBase@@@std@@@std@@@0@@Z
pdata	ENDS
;	COMDAT pdata
pdata	SEGMENT
$pdata$?_Xlen@?$vector@V?$shared_ptr@VChunkBase@@@std@@V?$allocator@V?$shared_ptr@VChunkBase@@@std@@@2@@std@@IEBAXXZ DD imagerel $LN4
	DD	imagerel $LN4+17
	DD	imagerel $unwind$?_Xlen@?$vector@V?$shared_ptr@VChunkBase@@@std@@V?$allocator@V?$shared_ptr@VChunkBase@@@std@@@2@@std@@IEBAXXZ
pdata	ENDS
;	COMDAT pdata
pdata	SEGMENT
$pdata$?_Reallocate@?$vector@V?$shared_ptr@VChunkBase@@@std@@V?$allocator@V?$shared_ptr@VChunkBase@@@std@@@2@@std@@IEAAX_K@Z DD imagerel $LN85
	DD	imagerel $LN85+74
	DD	imagerel $unwind$?_Reallocate@?$vector@V?$shared_ptr@VChunkBase@@@std@@V?$allocator@V?$shared_ptr@VChunkBase@@@std@@@2@@std@@IEAAX_K@Z
pdata	ENDS
;	COMDAT pdata
pdata	SEGMENT
$pdata$2$?_Reallocate@?$vector@V?$shared_ptr@VChunkBase@@@std@@V?$allocator@V?$shared_ptr@VChunkBase@@@std@@@2@@std@@IEAAX_K@Z DD imagerel $LN85+74
	DD	imagerel $LN85+120
	DD	imagerel $chain$2$?_Reallocate@?$vector@V?$shared_ptr@VChunkBase@@@std@@V?$allocator@V?$shared_ptr@VChunkBase@@@std@@@2@@std@@IEAAX_K@Z
pdata	ENDS
;	COMDAT pdata
pdata	SEGMENT
$pdata$3$?_Reallocate@?$vector@V?$shared_ptr@VChunkBase@@@std@@V?$allocator@V?$shared_ptr@VChunkBase@@@std@@@2@@std@@IEAAX_K@Z DD imagerel $LN85+120
	DD	imagerel $LN85+180
	DD	imagerel $chain$3$?_Reallocate@?$vector@V?$shared_ptr@VChunkBase@@@std@@V?$allocator@V?$shared_ptr@VChunkBase@@@std@@@2@@std@@IEAAX_K@Z
pdata	ENDS
;	COMDAT pdata
pdata	SEGMENT
$pdata$4$?_Reallocate@?$vector@V?$shared_ptr@VChunkBase@@@std@@V?$allocator@V?$shared_ptr@VChunkBase@@@std@@@2@@std@@IEAAX_K@Z DD imagerel $LN85+180
	DD	imagerel $LN85+238
	DD	imagerel $chain$4$?_Reallocate@?$vector@V?$shared_ptr@VChunkBase@@@std@@V?$allocator@V?$shared_ptr@VChunkBase@@@std@@@2@@std@@IEAAX_K@Z
pdata	ENDS
;	COMDAT pdata
pdata	SEGMENT
$pdata$5$?_Reallocate@?$vector@V?$shared_ptr@VChunkBase@@@std@@V?$allocator@V?$shared_ptr@VChunkBase@@@std@@@2@@std@@IEAAX_K@Z DD imagerel $LN85+238
	DD	imagerel $LN85+244
	DD	imagerel $chain$5$?_Reallocate@?$vector@V?$shared_ptr@VChunkBase@@@std@@V?$allocator@V?$shared_ptr@VChunkBase@@@std@@@2@@std@@IEAAX_K@Z
pdata	ENDS
;	COMDAT pdata
pdata	SEGMENT
$pdata$?_Destroy@?$vector@V?$shared_ptr@VChunkBase@@@std@@V?$allocator@V?$shared_ptr@VChunkBase@@@std@@@2@@std@@IEAAXPEAV?$shared_ptr@VChunkBase@@@2@0@Z DD imagerel $LN37
	DD	imagerel $LN37+10
	DD	imagerel $unwind$?_Destroy@?$vector@V?$shared_ptr@VChunkBase@@@std@@V?$allocator@V?$shared_ptr@VChunkBase@@@std@@@2@@std@@IEAAXPEAV?$shared_ptr@VChunkBase@@@2@0@Z
pdata	ENDS
;	COMDAT pdata
pdata	SEGMENT
$pdata$1$?_Destroy@?$vector@V?$shared_ptr@VChunkBase@@@std@@V?$allocator@V?$shared_ptr@VChunkBase@@@std@@@2@@std@@IEAAXPEAV?$shared_ptr@VChunkBase@@@2@0@Z DD imagerel $LN37+10
	DD	imagerel $LN37+97
	DD	imagerel $chain$1$?_Destroy@?$vector@V?$shared_ptr@VChunkBase@@@std@@V?$allocator@V?$shared_ptr@VChunkBase@@@std@@@2@@std@@IEAAXPEAV?$shared_ptr@VChunkBase@@@2@0@Z
pdata	ENDS
;	COMDAT pdata
pdata	SEGMENT
$pdata$2$?_Destroy@?$vector@V?$shared_ptr@VChunkBase@@@std@@V?$allocator@V?$shared_ptr@VChunkBase@@@std@@@2@@std@@IEAAXPEAV?$shared_ptr@VChunkBase@@@2@0@Z DD imagerel $LN37+97
	DD	imagerel $LN37+99
	DD	imagerel $chain$2$?_Destroy@?$vector@V?$shared_ptr@VChunkBase@@@std@@V?$allocator@V?$shared_ptr@VChunkBase@@@std@@@2@@std@@IEAAXPEAV?$shared_ptr@VChunkBase@@@2@0@Z
pdata	ENDS
;	COMDAT pdata
pdata	SEGMENT
$pdata$?_Tidy@?$vector@V?$shared_ptr@VChunkBase@@@std@@V?$allocator@V?$shared_ptr@VChunkBase@@@std@@@2@@std@@IEAAXXZ DD imagerel $LN47
	DD	imagerel $LN47+21
	DD	imagerel $unwind$?_Tidy@?$vector@V?$shared_ptr@VChunkBase@@@std@@V?$allocator@V?$shared_ptr@VChunkBase@@@std@@@2@@std@@IEAAXXZ
pdata	ENDS
;	COMDAT pdata
pdata	SEGMENT
$pdata$0$?_Tidy@?$vector@V?$shared_ptr@VChunkBase@@@std@@V?$allocator@V?$shared_ptr@VChunkBase@@@std@@@2@@std@@IEAAXXZ DD imagerel $LN47+21
	DD	imagerel $LN47+35
	DD	imagerel $chain$0$?_Tidy@?$vector@V?$shared_ptr@VChunkBase@@@std@@V?$allocator@V?$shared_ptr@VChunkBase@@@std@@@2@@std@@IEAAXXZ
pdata	ENDS
;	COMDAT pdata
pdata	SEGMENT
$pdata$1$?_Tidy@?$vector@V?$shared_ptr@VChunkBase@@@std@@V?$allocator@V?$shared_ptr@VChunkBase@@@std@@@2@@std@@IEAAXXZ DD imagerel $LN47+35
	DD	imagerel $LN47+100
	DD	imagerel $chain$1$?_Tidy@?$vector@V?$shared_ptr@VChunkBase@@@std@@V?$allocator@V?$shared_ptr@VChunkBase@@@std@@@2@@std@@IEAAXXZ
pdata	ENDS
;	COMDAT pdata
pdata	SEGMENT
$pdata$2$?_Tidy@?$vector@V?$shared_ptr@VChunkBase@@@std@@V?$allocator@V?$shared_ptr@VChunkBase@@@std@@@2@@std@@IEAAXXZ DD imagerel $LN47+100
	DD	imagerel $LN47+126
	DD	imagerel $chain$2$?_Tidy@?$vector@V?$shared_ptr@VChunkBase@@@std@@V?$allocator@V?$shared_ptr@VChunkBase@@@std@@@2@@std@@IEAAXXZ
pdata	ENDS
;	COMDAT pdata
pdata	SEGMENT
$pdata$3$?_Tidy@?$vector@V?$shared_ptr@VChunkBase@@@std@@V?$allocator@V?$shared_ptr@VChunkBase@@@std@@@2@@std@@IEAAXXZ DD imagerel $LN47+126
	DD	imagerel $LN47+137
	DD	imagerel $chain$3$?_Tidy@?$vector@V?$shared_ptr@VChunkBase@@@std@@V?$allocator@V?$shared_ptr@VChunkBase@@@std@@@2@@std@@IEAAXXZ
pdata	ENDS
;	COMDAT pdata
pdata	SEGMENT
$pdata$?_Reserve@?$vector@V?$shared_ptr@VChunkBase@@@std@@V?$allocator@V?$shared_ptr@VChunkBase@@@std@@@2@@std@@IEAAX_K@Z DD imagerel $LN44
	DD	imagerel $LN44+139
	DD	imagerel $unwind$?_Reserve@?$vector@V?$shared_ptr@VChunkBase@@@std@@V?$allocator@V?$shared_ptr@VChunkBase@@@std@@@2@@std@@IEAAX_K@Z
pdata	ENDS
;	COMDAT pdata
pdata	SEGMENT
$pdata$?push_back@?$vector@V?$shared_ptr@VChunkBase@@@std@@V?$allocator@V?$shared_ptr@VChunkBase@@@std@@@2@@std@@QEAAXAEBV?$shared_ptr@VChunkBase@@@2@@Z DD imagerel $LN80
	DD	imagerel $LN80+129
	DD	imagerel $unwind$?push_back@?$vector@V?$shared_ptr@VChunkBase@@@std@@V?$allocator@V?$shared_ptr@VChunkBase@@@std@@@2@@std@@QEAAXAEBV?$shared_ptr@VChunkBase@@@2@@Z
pdata	ENDS
;	COMDAT pdata
pdata	SEGMENT
$pdata$??4?$basic_string@_WU?$char_traits@_W@std@@V?$allocator@_W@2@@std@@QEAAAEAV01@AEBV01@@Z DD imagerel $LN59
	DD	imagerel $LN59+35
	DD	imagerel $unwind$??4?$basic_string@_WU?$char_traits@_W@std@@V?$allocator@_W@2@@std@@QEAAAEAV01@AEBV01@@Z
pdata	ENDS
;	COMDAT pdata
pdata	SEGMENT
$pdata$??1FragmentShader@gfxu@@QEAA@XZ DD imagerel $LN42
	DD	imagerel $LN42+88
	DD	imagerel $unwind$??1FragmentShader@gfxu@@QEAA@XZ
pdata	ENDS
;	COMDAT pdata
pdata	SEGMENT
$pdata$??1VertexShader@gfxu@@QEAA@XZ DD imagerel $LN42
	DD	imagerel $LN42+88
	DD	imagerel $unwind$??1VertexShader@gfxu@@QEAA@XZ
pdata	ENDS
;	COMDAT pdata
pdata	SEGMENT
$pdata$??_GTiledTexture@gfxu@@QEAAPEAXI@Z DD imagerel $LN73
	DD	imagerel $LN73+102
	DD	imagerel $unwind$??_GTiledTexture@gfxu@@QEAAPEAXI@Z
pdata	ENDS
;	COMDAT pdata
pdata	SEGMENT
$pdata$??_GShaderProgram@gfxu@@QEAAPEAXI@Z DD imagerel $LN7
	DD	imagerel $LN7+43
	DD	imagerel $unwind$??_GShaderProgram@gfxu@@QEAAPEAXI@Z
pdata	ENDS
;	COMDAT pdata
pdata	SEGMENT
$pdata$??_GFragmentShader@gfxu@@QEAAPEAXI@Z DD imagerel $LN45
	DD	imagerel $LN45+99
	DD	imagerel $unwind$??_GFragmentShader@gfxu@@QEAAPEAXI@Z
pdata	ENDS
;	COMDAT pdata
pdata	SEGMENT
$pdata$??_GVertexShader@gfxu@@QEAAPEAXI@Z DD imagerel $LN45
	DD	imagerel $LN45+99
	DD	imagerel $unwind$??_GVertexShader@gfxu@@QEAAPEAXI@Z
pdata	ENDS
;	COMDAT pdata
pdata	SEGMENT
$pdata$?postStop@RenderThread@@UEAAXXZ DD imagerel $LN108
	DD	imagerel $LN108+328
	DD	imagerel $unwind$?postStop@RenderThread@@UEAAXXZ
pdata	ENDS
;	COMDAT pdata
pdata	SEGMENT
$pdata$?preStart@RenderThread@@UEAAXXZ DD imagerel $LN766
	DD	imagerel $LN766+2353
	DD	imagerel $unwind$?preStart@RenderThread@@UEAAXXZ
pdata	ENDS
;	COMDAT pdata
pdata	SEGMENT
$pdata$?tick@RenderThread@@EEAA_NXZ DD imagerel $LN1174
	DD	imagerel $LN1174+5740
	DD	imagerel $unwind$?tick@RenderThread@@EEAA_NXZ
pdata	ENDS
;	COMDAT pdata
pdata	SEGMENT
$pdata$??__FgridBuffer@@YAXXZ DD imagerel ??__FgridBuffer@@YAXXZ
	DD	imagerel ??__FgridBuffer@@YAXXZ+58
	DD	imagerel $unwind$??__FgridBuffer@@YAXXZ
pdata	ENDS
;	COMDAT pdata
pdata	SEGMENT
$pdata$??__FboolBuffer@@YAXXZ DD imagerel ??__FboolBuffer@@YAXXZ
	DD	imagerel ??__FboolBuffer@@YAXXZ+58
	DD	imagerel $unwind$??__FboolBuffer@@YAXXZ
pdata	ENDS
;	COMDAT pdata
pdata	SEGMENT
$pdata$??__FprojectionMatrixBuffer@@YAXXZ DD imagerel ??__FprojectionMatrixBuffer@@YAXXZ
	DD	imagerel ??__FprojectionMatrixBuffer@@YAXXZ+58
	DD	imagerel $unwind$??__FprojectionMatrixBuffer@@YAXXZ
pdata	ENDS
;	COMDAT pdata
pdata	SEGMENT
$pdata$??__Eprogram@@YAXXZ DD imagerel ??__Eprogram@@YAXXZ
	DD	imagerel ??__Eprogram@@YAXXZ+76
	DD	imagerel $unwind$??__Eprogram@@YAXXZ
pdata	ENDS
;	COMDAT pdata
pdata	SEGMENT
$pdata$??__FcommandQueue@@YAXXZ DD imagerel ??__FcommandQueue@@YAXXZ
	DD	imagerel ??__FcommandQueue@@YAXXZ+91
	DD	imagerel $unwind$??__FcommandQueue@@YAXXZ
;	COMDAT xdata
xdata	SEGMENT
$unwind$??__FcommandQueue@@YAXXZ DD 010401H
	DD	04204H
xdata	ENDS
;	COMDAT xdata
xdata	SEGMENT
$ip2state$??__Eprogram@@YAXXZ DD imagerel ??__Eprogram@@YAXXZ
	DD	0ffffffffH
	DD	imagerel ??__Eprogram@@YAXXZ+25
	DD	00H
	DD	imagerel ??__Eprogram@@YAXXZ+60
	DD	0ffffffffH
xdata	ENDS
;	COMDAT xdata
xdata	SEGMENT
$stateUnwindMap$??__Eprogram@@YAXXZ DD 0ffffffffH
	DD	imagerel ?dtor$0@?0???__Eprogram@@YAXXZ@4HA
xdata	ENDS
;	COMDAT CONST
CONST	SEGMENT
$cppxdata$??__Eprogram@@YAXXZ DD 019930522H
	DD	01H
	DD	imagerel $stateUnwindMap$??__Eprogram@@YAXXZ
	DD	00H
	DD	00H
	DD	03H
	DD	imagerel $ip2state$??__Eprogram@@YAXXZ
	DD	020H
	DD	00H
	DD	01H
CONST	ENDS
;	COMDAT xdata
xdata	SEGMENT
$unwind$??__Eprogram@@YAXXZ DD 010d11H
	DD	06204H
	DD	imagerel __CxxFrameHandler3
	DD	imagerel $cppxdata$??__Eprogram@@YAXXZ
xdata	ENDS
;	COMDAT xdata
xdata	SEGMENT
$unwind$??__FprojectionMatrixBuffer@@YAXXZ DD 010401H
	DD	04204H
xdata	ENDS
;	COMDAT xdata
xdata	SEGMENT
$unwind$??__FboolBuffer@@YAXXZ DD 010401H
	DD	04204H
xdata	ENDS
;	COMDAT xdata
xdata	SEGMENT
$unwind$??__FgridBuffer@@YAXXZ DD 010401H
	DD	04204H
xdata	ENDS
;	COMDAT xdata
xdata	SEGMENT
$ip2state$?tick@RenderThread@@EEAA_NXZ DD imagerel ?tick@RenderThread@@EEAA_NXZ
	DD	0ffffffffH
	DD	imagerel ?tick@RenderThread@@EEAA_NXZ+2818
	DD	00H
	DD	imagerel ?tick@RenderThread@@EEAA_NXZ+2879
	DD	0ffffffffH
	DD	imagerel ?tick@RenderThread@@EEAA_NXZ+3256
	DD	01H
	DD	imagerel ?tick@RenderThread@@EEAA_NXZ+3311
	DD	02H
	DD	imagerel ?tick@RenderThread@@EEAA_NXZ+3861
	DD	01H
	DD	imagerel ?tick@RenderThread@@EEAA_NXZ+3922
	DD	02H
	DD	imagerel ?tick@RenderThread@@EEAA_NXZ+3948
	DD	01H
	DD	imagerel ?tick@RenderThread@@EEAA_NXZ+4078
	DD	03H
	DD	imagerel ?tick@RenderThread@@EEAA_NXZ+4388
	DD	01H
	DD	imagerel ?tick@RenderThread@@EEAA_NXZ+4496
	DD	04H
	DD	imagerel ?tick@RenderThread@@EEAA_NXZ+4796
	DD	01H
	DD	imagerel ?tick@RenderThread@@EEAA_NXZ+5589
	DD	0ffffffffH
xdata	ENDS
;	COMDAT xdata
xdata	SEGMENT
$stateUnwindMap$?tick@RenderThread@@EEAA_NXZ DD 0ffffffffH
	DD	imagerel ?dtor$2@?0??tick@RenderThread@@EEAA_NXZ@4HA
	DD	0ffffffffH
	DD	imagerel ?dtor$5@?0??tick@RenderThread@@EEAA_NXZ@4HA
	DD	01H
	DD	imagerel ?dtor$6@?0??tick@RenderThread@@EEAA_NXZ@4HA
	DD	01H
	DD	imagerel ?dtor$7@?0??tick@RenderThread@@EEAA_NXZ@4HA
	DD	01H
	DD	imagerel ?dtor$8@?0??tick@RenderThread@@EEAA_NXZ@4HA
xdata	ENDS
;	COMDAT CONST
CONST	SEGMENT
$cppxdata$?tick@RenderThread@@EEAA_NXZ DD 019930522H
	DD	05H
	DD	imagerel $stateUnwindMap$?tick@RenderThread@@EEAA_NXZ
	DD	00H
	DD	00H
	DD	0dH
	DD	imagerel $ip2state$?tick@RenderThread@@EEAA_NXZ
	DD	0188H
	DD	00H
	DD	01H
CONST	ENDS
;	COMDAT xdata
xdata	SEGMENT
$unwind$?tick@RenderThread@@EEAA_NXZ DD 0114a19H
	DD	0727839H
	DD	0736835H
	DD	0f17431H
	DD	0f0642dH
	DD	0ef3429H
	DD	0e8011aH
	DD	0e00af00cH
	DD	0c006d008H
	DD	05004H
	DD	imagerel __GSHandlerCheck_EH
	DD	imagerel $cppxdata$?tick@RenderThread@@EEAA_NXZ
	DD	0712H
xdata	ENDS
;	COMDAT xdata
xdata	SEGMENT
$ip2state$?preStart@RenderThread@@UEAAXXZ DD imagerel ?preStart@RenderThread@@UEAAXXZ
	DD	0ffffffffH
	DD	imagerel ?preStart@RenderThread@@UEAAXXZ+430
	DD	00H
	DD	imagerel ?preStart@RenderThread@@UEAAXXZ+1608
	DD	01H
	DD	imagerel ?preStart@RenderThread@@UEAAXXZ+1666
	DD	00H
	DD	imagerel ?preStart@RenderThread@@UEAAXXZ+1735
	DD	02H
	DD	imagerel ?preStart@RenderThread@@UEAAXXZ+1793
	DD	00H
	DD	imagerel ?preStart@RenderThread@@UEAAXXZ+1817
	DD	03H
	DD	imagerel ?preStart@RenderThread@@UEAAXXZ+1864
	DD	00H
	DD	imagerel ?preStart@RenderThread@@UEAAXXZ+1933
	DD	04H
	DD	imagerel ?preStart@RenderThread@@UEAAXXZ+1991
	DD	00H
	DD	imagerel ?preStart@RenderThread@@UEAAXXZ+2060
	DD	05H
	DD	imagerel ?preStart@RenderThread@@UEAAXXZ+2118
	DD	00H
	DD	imagerel ?preStart@RenderThread@@UEAAXXZ+2142
	DD	06H
	DD	imagerel ?preStart@RenderThread@@UEAAXXZ+2189
	DD	00H
	DD	imagerel ?preStart@RenderThread@@UEAAXXZ+2285
	DD	0ffffffffH
xdata	ENDS
;	COMDAT xdata
xdata	SEGMENT
$stateUnwindMap$?preStart@RenderThread@@UEAAXXZ DD 0ffffffffH
	DD	imagerel ?dtor$0@?0??preStart@RenderThread@@UEAAXXZ@4HA
	DD	00H
	DD	imagerel ?dtor$4@?0??preStart@RenderThread@@UEAAXXZ@4HA
	DD	00H
	DD	imagerel ?dtor$6@?0??preStart@RenderThread@@UEAAXXZ@4HA
	DD	00H
	DD	imagerel ?dtor$8@?0??preStart@RenderThread@@UEAAXXZ@4HA
	DD	00H
	DD	imagerel ?dtor$9@?0??preStart@RenderThread@@UEAAXXZ@4HA
	DD	00H
	DD	imagerel ?dtor$11@?0??preStart@RenderThread@@UEAAXXZ@4HA
	DD	00H
	DD	imagerel ?dtor$13@?0??preStart@RenderThread@@UEAAXXZ@4HA
xdata	ENDS
;	COMDAT CONST
CONST	SEGMENT
$cppxdata$?preStart@RenderThread@@UEAAXXZ DD 019930522H
	DD	07H
	DD	imagerel $stateUnwindMap$?preStart@RenderThread@@UEAAXXZ
	DD	00H
	DD	00H
	DD	0fH
	DD	imagerel $ip2state$?preStart@RenderThread@@UEAAXXZ
	DD	060H
	DD	00H
	DD	01H
CONST	ENDS
;	COMDAT xdata
xdata	SEGMENT
$unwind$?preStart@RenderThread@@UEAAXXZ DD 0f3e19H
	DD	098830H
	DD	0a782bH
	DD	0b6827H
	DD	01c7423H
	DD	01b641fH
	DD	01a341bH
	DD	018010fH
	DD	05004H
	DD	imagerel __GSHandlerCheck_EH
	DD	imagerel $cppxdata$?preStart@RenderThread@@UEAAXXZ
	DD	08aH
xdata	ENDS
;	COMDAT xdata
xdata	SEGMENT
$unwind$?postStop@RenderThread@@UEAAXXZ DD 040a01H
	DD	06340aH
	DD	07006320aH
xdata	ENDS
;	COMDAT xdata
xdata	SEGMENT
$ip2state$??_GVertexShader@gfxu@@QEAAPEAXI@Z DD imagerel ??_GVertexShader@gfxu@@QEAAPEAXI@Z
	DD	0ffffffffH
	DD	imagerel ??_GVertexShader@gfxu@@QEAAPEAXI@Z+32
	DD	00H
	DD	imagerel ??_GVertexShader@gfxu@@QEAAPEAXI@Z+48
	DD	0ffffffffH
xdata	ENDS
;	COMDAT xdata
xdata	SEGMENT
$stateUnwindMap$??_GVertexShader@gfxu@@QEAAPEAXI@Z DD 0ffffffffH
	DD	imagerel ?dtor$1@?0???_GVertexShader@gfxu@@QEAAPEAXI@Z@4HA
xdata	ENDS
;	COMDAT CONST
CONST	SEGMENT
$cppxdata$??_GVertexShader@gfxu@@QEAAPEAXI@Z DD 019930522H
	DD	01H
	DD	imagerel $stateUnwindMap$??_GVertexShader@gfxu@@QEAAPEAXI@Z
	DD	00H
	DD	00H
	DD	03H
	DD	imagerel $ip2state$??_GVertexShader@gfxu@@QEAAPEAXI@Z
	DD	020H
	DD	00H
	DD	01H
CONST	ENDS
;	COMDAT xdata
xdata	SEGMENT
$unwind$??_GVertexShader@gfxu@@QEAAPEAXI@Z DD 021311H
	DD	03006520aH
	DD	imagerel __CxxFrameHandler3
	DD	imagerel $cppxdata$??_GVertexShader@gfxu@@QEAAPEAXI@Z
xdata	ENDS
;	COMDAT xdata
xdata	SEGMENT
$ip2state$??_GFragmentShader@gfxu@@QEAAPEAXI@Z DD imagerel ??_GFragmentShader@gfxu@@QEAAPEAXI@Z
	DD	0ffffffffH
	DD	imagerel ??_GFragmentShader@gfxu@@QEAAPEAXI@Z+32
	DD	00H
	DD	imagerel ??_GFragmentShader@gfxu@@QEAAPEAXI@Z+48
	DD	0ffffffffH
xdata	ENDS
;	COMDAT xdata
xdata	SEGMENT
$stateUnwindMap$??_GFragmentShader@gfxu@@QEAAPEAXI@Z DD 0ffffffffH
	DD	imagerel ?dtor$1@?0???_GFragmentShader@gfxu@@QEAAPEAXI@Z@4HA
xdata	ENDS
;	COMDAT CONST
CONST	SEGMENT
$cppxdata$??_GFragmentShader@gfxu@@QEAAPEAXI@Z DD 019930522H
	DD	01H
	DD	imagerel $stateUnwindMap$??_GFragmentShader@gfxu@@QEAAPEAXI@Z
	DD	00H
	DD	00H
	DD	03H
	DD	imagerel $ip2state$??_GFragmentShader@gfxu@@QEAAPEAXI@Z
	DD	020H
	DD	00H
	DD	01H
CONST	ENDS
;	COMDAT xdata
xdata	SEGMENT
$unwind$??_GFragmentShader@gfxu@@QEAAPEAXI@Z DD 021311H
	DD	03006520aH
	DD	imagerel __CxxFrameHandler3
	DD	imagerel $cppxdata$??_GFragmentShader@gfxu@@QEAAPEAXI@Z
xdata	ENDS
;	COMDAT xdata
xdata	SEGMENT
$unwind$??_GShaderProgram@gfxu@@QEAAPEAXI@Z DD 020601H
	DD	030023206H
xdata	ENDS
;	COMDAT xdata
xdata	SEGMENT
$unwind$??_GTiledTexture@gfxu@@QEAAPEAXI@Z DD 040a01H
	DD	07340aH
	DD	07006320aH
xdata	ENDS
;	COMDAT xdata
xdata	SEGMENT
$ip2state$??1VertexShader@gfxu@@QEAA@XZ DD imagerel ??1VertexShader@gfxu@@QEAA@XZ
	DD	0ffffffffH
	DD	imagerel ??1VertexShader@gfxu@@QEAA@XZ+32
	DD	00H
	DD	imagerel ??1VertexShader@gfxu@@QEAA@XZ+48
	DD	0ffffffffH
xdata	ENDS
;	COMDAT xdata
xdata	SEGMENT
$stateUnwindMap$??1VertexShader@gfxu@@QEAA@XZ DD 0ffffffffH
	DD	imagerel ?dtor$1@?0???1VertexShader@gfxu@@QEAA@XZ@4HA
xdata	ENDS
;	COMDAT CONST
CONST	SEGMENT
$cppxdata$??1VertexShader@gfxu@@QEAA@XZ DD 019930522H
	DD	01H
	DD	imagerel $stateUnwindMap$??1VertexShader@gfxu@@QEAA@XZ
	DD	00H
	DD	00H
	DD	03H
	DD	imagerel $ip2state$??1VertexShader@gfxu@@QEAA@XZ
	DD	020H
	DD	00H
	DD	01H
CONST	ENDS
;	COMDAT xdata
xdata	SEGMENT
$unwind$??1VertexShader@gfxu@@QEAA@XZ DD 021311H
	DD	03006520aH
	DD	imagerel __CxxFrameHandler3
	DD	imagerel $cppxdata$??1VertexShader@gfxu@@QEAA@XZ
xdata	ENDS
;	COMDAT xdata
xdata	SEGMENT
$ip2state$??1FragmentShader@gfxu@@QEAA@XZ DD imagerel ??1FragmentShader@gfxu@@QEAA@XZ
	DD	0ffffffffH
	DD	imagerel ??1FragmentShader@gfxu@@QEAA@XZ+32
	DD	00H
	DD	imagerel ??1FragmentShader@gfxu@@QEAA@XZ+48
	DD	0ffffffffH
xdata	ENDS
;	COMDAT xdata
xdata	SEGMENT
$stateUnwindMap$??1FragmentShader@gfxu@@QEAA@XZ DD 0ffffffffH
	DD	imagerel ?dtor$1@?0???1FragmentShader@gfxu@@QEAA@XZ@4HA
xdata	ENDS
;	COMDAT CONST
CONST	SEGMENT
$cppxdata$??1FragmentShader@gfxu@@QEAA@XZ DD 019930522H
	DD	01H
	DD	imagerel $stateUnwindMap$??1FragmentShader@gfxu@@QEAA@XZ
	DD	00H
	DD	00H
	DD	03H
	DD	imagerel $ip2state$??1FragmentShader@gfxu@@QEAA@XZ
	DD	020H
	DD	00H
	DD	01H
CONST	ENDS
;	COMDAT xdata
xdata	SEGMENT
$unwind$??1FragmentShader@gfxu@@QEAA@XZ DD 021311H
	DD	03006520aH
	DD	imagerel __CxxFrameHandler3
	DD	imagerel $cppxdata$??1FragmentShader@gfxu@@QEAA@XZ
xdata	ENDS
;	COMDAT xdata
xdata	SEGMENT
$unwind$??4?$basic_string@_WU?$char_traits@_W@std@@V?$allocator@_W@2@@std@@QEAAAEAV01@AEBV01@@Z DD 020601H
	DD	030023206H
xdata	ENDS
;	COMDAT xdata
xdata	SEGMENT
$unwind$?push_back@?$vector@V?$shared_ptr@VChunkBase@@@std@@V?$allocator@V?$shared_ptr@VChunkBase@@@std@@@2@@std@@QEAAXAEBV?$shared_ptr@VChunkBase@@@2@@Z DD 040a01H
	DD	06340aH
	DD	07006320aH
xdata	ENDS
;	COMDAT xdata
xdata	SEGMENT
$unwind$?_Reserve@?$vector@V?$shared_ptr@VChunkBase@@@std@@V?$allocator@V?$shared_ptr@VChunkBase@@@std@@@2@@std@@IEAAX_K@Z DD 010401H
	DD	04204H
xdata	ENDS
;	COMDAT xdata
xdata	SEGMENT
$chain$3$?_Tidy@?$vector@V?$shared_ptr@VChunkBase@@@std@@V?$allocator@V?$shared_ptr@VChunkBase@@@std@@@2@@std@@IEAAXXZ DD 021H
	DD	imagerel $LN47
	DD	imagerel $LN47+21
	DD	imagerel $unwind$?_Tidy@?$vector@V?$shared_ptr@VChunkBase@@@std@@V?$allocator@V?$shared_ptr@VChunkBase@@@std@@@2@@std@@IEAAXXZ
xdata	ENDS
;	COMDAT xdata
xdata	SEGMENT
$chain$2$?_Tidy@?$vector@V?$shared_ptr@VChunkBase@@@std@@V?$allocator@V?$shared_ptr@VChunkBase@@@std@@@2@@std@@IEAAXXZ DD 021H
	DD	imagerel $LN47+21
	DD	imagerel $LN47+35
	DD	imagerel $chain$0$?_Tidy@?$vector@V?$shared_ptr@VChunkBase@@@std@@V?$allocator@V?$shared_ptr@VChunkBase@@@std@@@2@@std@@IEAAXXZ
xdata	ENDS
;	COMDAT xdata
xdata	SEGMENT
$chain$1$?_Tidy@?$vector@V?$shared_ptr@VChunkBase@@@std@@V?$allocator@V?$shared_ptr@VChunkBase@@@std@@@2@@std@@IEAAXXZ DD 020521H
	DD	063405H
	DD	imagerel $LN47+21
	DD	imagerel $LN47+35
	DD	imagerel $chain$0$?_Tidy@?$vector@V?$shared_ptr@VChunkBase@@@std@@V?$allocator@V?$shared_ptr@VChunkBase@@@std@@@2@@std@@IEAAXXZ
xdata	ENDS
;	COMDAT xdata
xdata	SEGMENT
$chain$0$?_Tidy@?$vector@V?$shared_ptr@VChunkBase@@@std@@V?$allocator@V?$shared_ptr@VChunkBase@@@std@@@2@@std@@IEAAXXZ DD 020521H
	DD	075405H
	DD	imagerel $LN47
	DD	imagerel $LN47+21
	DD	imagerel $unwind$?_Tidy@?$vector@V?$shared_ptr@VChunkBase@@@std@@V?$allocator@V?$shared_ptr@VChunkBase@@@std@@@2@@std@@IEAAXXZ
xdata	ENDS
;	COMDAT xdata
xdata	SEGMENT
$unwind$?_Tidy@?$vector@V?$shared_ptr@VChunkBase@@@std@@V?$allocator@V?$shared_ptr@VChunkBase@@@std@@@2@@std@@IEAAXXZ DD 040a01H
	DD	08640aH
	DD	07006320aH
xdata	ENDS
;	COMDAT xdata
xdata	SEGMENT
$chain$2$?_Destroy@?$vector@V?$shared_ptr@VChunkBase@@@std@@V?$allocator@V?$shared_ptr@VChunkBase@@@std@@@2@@std@@IEAAXPEAV?$shared_ptr@VChunkBase@@@2@0@Z DD 021H
	DD	imagerel $LN37
	DD	imagerel $LN37+10
	DD	imagerel $unwind$?_Destroy@?$vector@V?$shared_ptr@VChunkBase@@@std@@V?$allocator@V?$shared_ptr@VChunkBase@@@std@@@2@@std@@IEAAXPEAV?$shared_ptr@VChunkBase@@@2@0@Z
xdata	ENDS
;	COMDAT xdata
xdata	SEGMENT
$chain$1$?_Destroy@?$vector@V?$shared_ptr@VChunkBase@@@std@@V?$allocator@V?$shared_ptr@VChunkBase@@@std@@@2@@std@@IEAAXPEAV?$shared_ptr@VChunkBase@@@2@0@Z DD 040a21H
	DD	07740aH
	DD	063405H
	DD	imagerel $LN37
	DD	imagerel $LN37+10
	DD	imagerel $unwind$?_Destroy@?$vector@V?$shared_ptr@VChunkBase@@@std@@V?$allocator@V?$shared_ptr@VChunkBase@@@std@@@2@@std@@IEAAXPEAV?$shared_ptr@VChunkBase@@@2@0@Z
xdata	ENDS
;	COMDAT xdata
xdata	SEGMENT
$unwind$?_Destroy@?$vector@V?$shared_ptr@VChunkBase@@@std@@V?$allocator@V?$shared_ptr@VChunkBase@@@std@@@2@@std@@IEAAXPEAV?$shared_ptr@VChunkBase@@@2@0@Z DD 020a01H
	DD	06006320aH
xdata	ENDS
;	COMDAT xdata
xdata	SEGMENT
$chain$5$?_Reallocate@?$vector@V?$shared_ptr@VChunkBase@@@std@@V?$allocator@V?$shared_ptr@VChunkBase@@@std@@@2@@std@@IEAAX_K@Z DD 021H
	DD	imagerel $LN85
	DD	imagerel $LN85+74
	DD	imagerel $unwind$?_Reallocate@?$vector@V?$shared_ptr@VChunkBase@@@std@@V?$allocator@V?$shared_ptr@VChunkBase@@@std@@@2@@std@@IEAAX_K@Z
xdata	ENDS
;	COMDAT xdata
xdata	SEGMENT
$chain$4$?_Reallocate@?$vector@V?$shared_ptr@VChunkBase@@@std@@V?$allocator@V?$shared_ptr@VChunkBase@@@std@@@2@@std@@IEAAX_K@Z DD 021H
	DD	imagerel $LN85+74
	DD	imagerel $LN85+120
	DD	imagerel $chain$2$?_Reallocate@?$vector@V?$shared_ptr@VChunkBase@@@std@@V?$allocator@V?$shared_ptr@VChunkBase@@@std@@@2@@std@@IEAAX_K@Z
xdata	ENDS
;	COMDAT xdata
xdata	SEGMENT
$chain$3$?_Reallocate@?$vector@V?$shared_ptr@VChunkBase@@@std@@V?$allocator@V?$shared_ptr@VChunkBase@@@std@@@2@@std@@IEAAX_K@Z DD 020521H
	DD	0a3405H
	DD	imagerel $LN85+74
	DD	imagerel $LN85+120
	DD	imagerel $chain$2$?_Reallocate@?$vector@V?$shared_ptr@VChunkBase@@@std@@V?$allocator@V?$shared_ptr@VChunkBase@@@std@@@2@@std@@IEAAX_K@Z
xdata	ENDS
;	COMDAT xdata
xdata	SEGMENT
$chain$2$?_Reallocate@?$vector@V?$shared_ptr@VChunkBase@@@std@@V?$allocator@V?$shared_ptr@VChunkBase@@@std@@@2@@std@@IEAAX_K@Z DD 061221H
	DD	0dc412H
	DD	0c740dH
	DD	0b5405H
	DD	imagerel $LN85
	DD	imagerel $LN85+74
	DD	imagerel $unwind$?_Reallocate@?$vector@V?$shared_ptr@VChunkBase@@@std@@V?$allocator@V?$shared_ptr@VChunkBase@@@std@@@2@@std@@IEAAX_K@Z
xdata	ENDS
;	COMDAT xdata
xdata	SEGMENT
$unwind$?_Reallocate@?$vector@V?$shared_ptr@VChunkBase@@@std@@V?$allocator@V?$shared_ptr@VChunkBase@@@std@@@2@@std@@IEAAX_K@Z DD 040a01H
	DD	0f006520aH
	DD	06002e004H
xdata	ENDS
;	COMDAT xdata
xdata	SEGMENT
$unwind$?_Xlen@?$vector@V?$shared_ptr@VChunkBase@@@std@@V?$allocator@V?$shared_ptr@VChunkBase@@@std@@@2@@std@@IEBAXXZ DD 010401H
	DD	04204H
xdata	ENDS
;	COMDAT xdata
xdata	SEGMENT
$chain$2$??$_Destroy_range@U?$_Wrap_alloc@V?$allocator@V?$shared_ptr@VChunkBase@@@std@@@std@@@std@@@std@@YAXPEAV?$shared_ptr@VChunkBase@@@0@0AEAU?$_Wrap_alloc@V?$allocator@V?$shared_ptr@VChunkBase@@@std@@@std@@@0@@Z DD 021H
	DD	imagerel $LN35
	DD	imagerel $LN35+10
	DD	imagerel $unwind$??$_Destroy_range@U?$_Wrap_alloc@V?$allocator@V?$shared_ptr@VChunkBase@@@std@@@std@@@std@@@std@@YAXPEAV?$shared_ptr@VChunkBase@@@0@0AEAU?$_Wrap_alloc@V?$allocator@V?$shared_ptr@VChunkBase@@@std@@@std@@@0@@Z
xdata	ENDS
;	COMDAT xdata
xdata	SEGMENT
$chain$1$??$_Destroy_range@U?$_Wrap_alloc@V?$allocator@V?$shared_ptr@VChunkBase@@@std@@@std@@@std@@@std@@YAXPEAV?$shared_ptr@VChunkBase@@@0@0AEAU?$_Wrap_alloc@V?$allocator@V?$shared_ptr@VChunkBase@@@std@@@std@@@0@@Z DD 040a21H
	DD	07740aH
	DD	063405H
	DD	imagerel $LN35
	DD	imagerel $LN35+10
	DD	imagerel $unwind$??$_Destroy_range@U?$_Wrap_alloc@V?$allocator@V?$shared_ptr@VChunkBase@@@std@@@std@@@std@@@std@@YAXPEAV?$shared_ptr@VChunkBase@@@0@0AEAU?$_Wrap_alloc@V?$allocator@V?$shared_ptr@VChunkBase@@@std@@@std@@@0@@Z
xdata	ENDS
;	COMDAT xdata
xdata	SEGMENT
$unwind$??$_Destroy_range@U?$_Wrap_alloc@V?$allocator@V?$shared_ptr@VChunkBase@@@std@@@std@@@std@@@std@@YAXPEAV?$shared_ptr@VChunkBase@@@0@0AEAU?$_Wrap_alloc@V?$allocator@V?$shared_ptr@VChunkBase@@@std@@@std@@@0@@Z DD 020a01H
	DD	06006320aH
xdata	ENDS
;	COMDAT xdata
xdata	SEGMENT
$unwind$??$_Umove@PEAV?$shared_ptr@VChunkBase@@@std@@@?$vector@V?$shared_ptr@VChunkBase@@@std@@V?$allocator@V?$shared_ptr@VChunkBase@@@std@@@2@@std@@IEAAPEAV?$shared_ptr@VChunkBase@@@1@PEAV21@00@Z DD 010401H
	DD	06204H
xdata	ENDS
;	COMDAT xdata
xdata	SEGMENT
$chain$2$??$_Destroy_range@U?$_Wrap_alloc@V?$allocator@V?$shared_ptr@VChunkBase@@@std@@@std@@@std@@@std@@YAXPEAV?$shared_ptr@VChunkBase@@@0@0AEAU?$_Wrap_alloc@V?$allocator@V?$shared_ptr@VChunkBase@@@std@@@std@@@0@U_Nonscalar_ptr_iterator_tag@0@@Z DD 021H
	DD	imagerel $LN31
	DD	imagerel $LN31+10
	DD	imagerel $unwind$??$_Destroy_range@U?$_Wrap_alloc@V?$allocator@V?$shared_ptr@VChunkBase@@@std@@@std@@@std@@@std@@YAXPEAV?$shared_ptr@VChunkBase@@@0@0AEAU?$_Wrap_alloc@V?$allocator@V?$shared_ptr@VChunkBase@@@std@@@std@@@0@U_Nonscalar_ptr_iterator_tag@0@@Z
xdata	ENDS
;	COMDAT xdata
xdata	SEGMENT
$chain$1$??$_Destroy_range@U?$_Wrap_alloc@V?$allocator@V?$shared_ptr@VChunkBase@@@std@@@std@@@std@@@std@@YAXPEAV?$shared_ptr@VChunkBase@@@0@0AEAU?$_Wrap_alloc@V?$allocator@V?$shared_ptr@VChunkBase@@@std@@@std@@@0@U_Nonscalar_ptr_iterator_tag@0@@Z DD 040a21H
	DD	07740aH
	DD	063405H
	DD	imagerel $LN31
	DD	imagerel $LN31+10
	DD	imagerel $unwind$??$_Destroy_range@U?$_Wrap_alloc@V?$allocator@V?$shared_ptr@VChunkBase@@@std@@@std@@@std@@@std@@YAXPEAV?$shared_ptr@VChunkBase@@@0@0AEAU?$_Wrap_alloc@V?$allocator@V?$shared_ptr@VChunkBase@@@std@@@std@@@0@U_Nonscalar_ptr_iterator_tag@0@@Z
xdata	ENDS
;	COMDAT xdata
xdata	SEGMENT
$unwind$??$_Destroy_range@U?$_Wrap_alloc@V?$allocator@V?$shared_ptr@VChunkBase@@@std@@@std@@@std@@@std@@YAXPEAV?$shared_ptr@VChunkBase@@@0@0AEAU?$_Wrap_alloc@V?$allocator@V?$shared_ptr@VChunkBase@@@std@@@std@@@0@U_Nonscalar_ptr_iterator_tag@0@@Z DD 020a01H
	DD	06006320aH
xdata	ENDS
;	COMDAT xdata
xdata	SEGMENT
$unwind$??$_Uninitialized_move@PEAV?$shared_ptr@VChunkBase@@@std@@PEAV12@U?$_Wrap_alloc@V?$allocator@V?$shared_ptr@VChunkBase@@@std@@@std@@@2@@std@@YAPEAV?$shared_ptr@VChunkBase@@@0@PEAV10@00AEAU?$_Wrap_alloc@V?$allocator@V?$shared_ptr@VChunkBase@@@std@@@std@@@0@@Z DD 010401H
	DD	06204H
commandQueue$initializer$ DQ FLAT:??__EcommandQueue@@YAXXZ
program$initializer$ DQ FLAT:??__Eprogram@@YAXXZ
projectionMatrixBuffer$initializer$ DQ FLAT:??__EprojectionMatrixBuffer@@YAXXZ
boolBuffer$initializer$ DQ FLAT:??__EboolBuffer@@YAXXZ
gridBuffer$initializer$ DQ FLAT:??__EgridBuffer@@YAXXZ
; Function compile flags: /Ogtp
; File c:\users\glenn\documents\github\wind\project\wind\wind\renderthread.cpp
;	COMDAT ??__EcommandQueue@@YAXXZ
text$yc	SEGMENT
??__EcommandQueue@@YAXXZ PROC				; `dynamic initializer for 'commandQueue'', COMDAT

; 13   : cl::CommandQueue commandQueue;

  00000	48 8d 0d 00 00
	00 00		 lea	 rcx, OFFSET FLAT:??__FcommandQueue@@YAXXZ ; `dynamic atexit destructor for 'commandQueue''
  00007	e9 00 00 00 00	 jmp	 atexit
??__EcommandQueue@@YAXXZ ENDP				; `dynamic initializer for 'commandQueue''
text$yc	ENDS
; Function compile flags: /Ogtp
; File c:\users\glenn\documents\github\wind\project\wind\wind\opencl.cpp
; File c:\program files (x86)\microsoft visual studio 11.0\vc\include\vector
; File c:\program files (x86)\microsoft visual studio 11.0\vc\include\xmemory0
; File c:\program files (x86)\microsoft visual studio 11.0\vc\include\vector
;	COMDAT ??__FcommandQueue@@YAXXZ
text$yd	SEGMENT
$T1 = 48
??__FcommandQueue@@YAXXZ PROC				; `dynamic atexit destructor for 'commandQueue'', COMDAT
  00000	48 83 ec 28	 sub	 rsp, 40			; 00000028H
; File c:\users\glenn\documents\github\wind\project\wind\wind\opencl.cpp

; 49   : 	if(okay) clReleaseCommandQueue(queue);

  00004	80 3d 20 00 00
	00 00		 cmp	 BYTE PTR ?commandQueue@@3VCommandQueue@cl@@A+32, 0
  0000b	74 0d		 je	 SHORT $LN3@dynamic
  0000d	48 8b 0d 00 00
	00 00		 mov	 rcx, QWORD PTR ?commandQueue@@3VCommandQueue@cl@@A
  00014	ff 15 00 00 00
	00		 call	 QWORD PTR __imp_clReleaseCommandQueue
$LN3@dynamic:
; File c:\program files (x86)\microsoft visual studio 11.0\vc\include\vector

; 1536 : 		if (this->_Myfirst != pointer())

  0001a	48 83 3d 08 00
	00 00 00	 cmp	 QWORD PTR ?commandQueue@@3VCommandQueue@cl@@A+8, 0
  00022	74 32		 je	 SHORT $LN8@dynamic

; 1537 : 			{	// something to free, destroy and deallocate it
; 1538 : 			this->_Orphan_all();
; 1539 : 			_Destroy(this->_Myfirst, this->_Mylast);

  00024	e8 00 00 00 00	 call	 ?_Destroy@?$vector@PEAU_cl_event@@V?$allocator@PEAU_cl_event@@@std@@@std@@IEAAXPEAPEAU_cl_event@@0@Z ; std::vector<_cl_event * __ptr64,std::allocator<_cl_event * __ptr64> >::_Destroy

; 647  : 		return (_Alty());

  00029	48 8d 4c 24 30	 lea	 rcx, QWORD PTR $T1[rsp]
  0002e	e8 00 00 00 00	 call	 ??0?$_Wrap_alloc@V?$allocator@PEAU_cl_event@@@std@@@std@@QEAA@XZ ; std::_Wrap_alloc<std::allocator<_cl_event * __ptr64> >::_Wrap_alloc<std::allocator<_cl_event * __ptr64> >
; File c:\program files (x86)\microsoft visual studio 11.0\vc\include\xmemory0

; 586  : 		::operator delete(_Ptr);

  00033	48 8b 0d 08 00
	00 00		 mov	 rcx, QWORD PTR ?commandQueue@@3VCommandQueue@cl@@A+8
  0003a	e8 00 00 00 00	 call	 ??3@YAXPEAX@Z		; operator delete
; File c:\program files (x86)\microsoft visual studio 11.0\vc\include\vector

; 1542 : 			this->_Myfirst = pointer();

  0003f	33 c0		 xor	 eax, eax
  00041	48 89 05 08 00
	00 00		 mov	 QWORD PTR ?commandQueue@@3VCommandQueue@cl@@A+8, rax

; 1543 : 			this->_Mylast = pointer();

  00048	48 89 05 10 00
	00 00		 mov	 QWORD PTR ?commandQueue@@3VCommandQueue@cl@@A+16, rax

; 1544 : 			this->_Myend = pointer();

  0004f	48 89 05 18 00
	00 00		 mov	 QWORD PTR ?commandQueue@@3VCommandQueue@cl@@A+24, rax
$LN8@dynamic:
  00056	48 83 c4 28	 add	 rsp, 40			; 00000028H
  0005a	c3		 ret	 0
??__FcommandQueue@@YAXXZ ENDP				; `dynamic atexit destructor for 'commandQueue''
text$yd	ENDS
; Function compile flags: /Ogtp
; File c:\users\glenn\documents\github\wind\project\wind\wind\renderthread.cpp
; File c:\program files (x86)\microsoft visual studio 11.0\vc\include\xtree
; File c:\program files (x86)\microsoft visual studio 11.0\vc\include\thr\xthread
; File c:\users\glenn\documents\github\wind\project\wind\wind\opencl.cpp
; File c:\users\glenn\documents\github\wind\project\wind\wind\renderthread.cpp
;	COMDAT ??__Eprogram@@YAXXZ
text$yc	SEGMENT
$T1 = 32
??__Eprogram@@YAXXZ PROC				; `dynamic initializer for 'program'', COMDAT

; 14   : cl::Program program;

  00000	48 83 ec 38	 sub	 rsp, 56			; 00000038H
  00004	48 c7 44 24 20
	fe ff ff ff	 mov	 QWORD PTR $T1[rsp], -2
; File c:\program files (x86)\microsoft visual studio 11.0\vc\include\xtree

; 778  : 		this->_Myhead = _Buyheadnode();

  0000d	e8 00 00 00 00	 call	 ?_Buyheadnode@?$_Tree_alloc@$0A@U?$_Tree_base_types@U?$pair@$$CBV?$basic_string@DU?$char_traits@D@std@@V?$allocator@D@2@@std@@PEAU_cl_kernel@@@std@@V?$allocator@U?$pair@$$CBV?$basic_string@DU?$char_traits@D@std@@V?$allocator@D@2@@std@@PEAU_cl_kernel@@@std@@@2@@std@@@std@@QEAAPEAU?$_Tree_node@U?$pair@$$CBV?$basic_string@DU?$char_traits@D@std@@V?$allocator@D@2@@std@@PEAU_cl_kernel@@@std@@PEAX@2@XZ ; std::_Tree_alloc<0,std::_Tree_base_types<std::pair<std::basic_string<char,std::char_traits<char>,std::allocator<char> > const ,_cl_kernel * __ptr64>,std::allocator<std::pair<std::basic_string<char,std::char_traits<char>,std::allocator<char> > const ,_cl_kernel * __ptr64> > > >::_Buyheadnode
  00012	48 89 05 08 00
	00 00		 mov	 QWORD PTR ?program@@3VProgram@cl@@A+8, rax
; File c:\program files (x86)\microsoft visual studio 11.0\vc\include\thr\xthread

; 63   : 	return (_Check_C_return(_Mtx_init(_Mtx, _Type)));

  00019	ba 02 00 00 00	 mov	 edx, 2
  0001e	48 8d 0d 18 00
	00 00		 lea	 rcx, OFFSET FLAT:?program@@3VProgram@cl@@A+24
  00025	e8 00 00 00 00	 call	 _Mtx_init

; 32   : 	if (_Res != _Thrd_success)

  0002a	85 c0		 test	 eax, eax
  0002c	74 07		 je	 SHORT $LN31@dynamic

; 33   : 		_Throw_C_error(_Res);

  0002e	8b c8		 mov	 ecx, eax
  00030	e8 00 00 00 00	 call	 ?_Throw_C_error@std@@YAXH@Z ; std::_Throw_C_error
$LN31@dynamic:
; File c:\users\glenn\documents\github\wind\project\wind\wind\opencl.cpp

; 97   : {

  00035	c6 05 30 00 00
	00 00		 mov	 BYTE PTR ?program@@3VProgram@cl@@A+48, 0
; File c:\users\glenn\documents\github\wind\project\wind\wind\renderthread.cpp

; 14   : cl::Program program;

  0003c	48 8d 0d 00 00
	00 00		 lea	 rcx, OFFSET FLAT:??__Fprogram@@YAXXZ ; `dynamic atexit destructor for 'program''
  00043	48 83 c4 38	 add	 rsp, 56			; 00000038H
  00047	e9 00 00 00 00	 jmp	 atexit
??__Eprogram@@YAXXZ ENDP				; `dynamic initializer for 'program''
text$yc	ENDS
; Function compile flags: /Ogtp
;	COMDAT text$x
text$x	SEGMENT
$T1 = 32
?dtor$0@?0???__Eprogram@@YAXXZ@4HA PROC			; ``dynamic initializer for 'program'''::`1'::dtor$0
  00000	48 8d 0d 00 00
	00 00		 lea	 rcx, OFFSET FLAT:?program@@3VProgram@cl@@A ; program
  00007	48 83 c1 08	 add	 rcx, 8
  0000b	e9 00 00 00 00	 jmp	 ??1?$map@V?$basic_string@DU?$char_traits@D@std@@V?$allocator@D@2@@std@@PEAU_cl_kernel@@U?$less@V?$basic_string@DU?$char_traits@D@std@@V?$allocator@D@2@@std@@@2@V?$allocator@U?$pair@$$CBV?$basic_string@DU?$char_traits@D@std@@V?$allocator@D@2@@std@@PEAU_cl_kernel@@@std@@@2@@std@@QEAA@XZ
?dtor$0@?0???__Eprogram@@YAXXZ@4HA ENDP			; ``dynamic initializer for 'program'''::`1'::dtor$0
text$x	ENDS
; Function compile flags: /Ogtp
;	COMDAT ??__Fprogram@@YAXXZ
text$yd	SEGMENT
??__Fprogram@@YAXXZ PROC				; `dynamic atexit destructor for 'program'', COMDAT
  00000	48 8d 0d 00 00
	00 00		 lea	 rcx, OFFSET FLAT:?program@@3VProgram@cl@@A ; program
  00007	e9 00 00 00 00	 jmp	 ??1Program@cl@@QEAA@XZ	; cl::Program::~Program
??__Fprogram@@YAXXZ ENDP				; `dynamic atexit destructor for 'program''
text$yd	ENDS
; Function compile flags: /Ogtp
; File c:\users\glenn\documents\github\wind\project\wind\wind\renderthread.cpp
;	COMDAT ??__EprojectionMatrixBuffer@@YAXXZ
text$yc	SEGMENT
??__EprojectionMatrixBuffer@@YAXXZ PROC			; `dynamic initializer for 'projectionMatrixBuffer'', COMDAT

; 15   : cl::Buffer projectionMatrixBuffer;

  00000	48 8d 0d 00 00
	00 00		 lea	 rcx, OFFSET FLAT:??__FprojectionMatrixBuffer@@YAXXZ ; `dynamic atexit destructor for 'projectionMatrixBuffer''
  00007	e9 00 00 00 00	 jmp	 atexit
??__EprojectionMatrixBuffer@@YAXXZ ENDP			; `dynamic initializer for 'projectionMatrixBuffer''
text$yc	ENDS
; Function compile flags: /Ogtp
; File c:\users\glenn\documents\github\wind\project\wind\wind\opencl.cpp
;	COMDAT ??__FprojectionMatrixBuffer@@YAXXZ
text$yd	SEGMENT
??__FprojectionMatrixBuffer@@YAXXZ PROC			; `dynamic atexit destructor for 'projectionMatrixBuffer'', COMDAT
  00000	48 83 ec 28	 sub	 rsp, 40			; 00000028H

; 267  : 	if(okay)

  00004	80 3d 00 00 00
	00 00		 cmp	 BYTE PTR ?projectionMatrixBuffer@@3VBuffer@cl@@A, 0
  0000b	74 28		 je	 SHORT $LN3@dynamic

; 268  : 	{
; 269  : 		cl_int error = clReleaseMemObject(mem);

  0000d	48 8b 0d 08 00
	00 00		 mov	 rcx, QWORD PTR ?projectionMatrixBuffer@@3VBuffer@cl@@A+8
  00014	ff 15 00 00 00
	00		 call	 QWORD PTR __imp_clReleaseMemObject

; 270  : 		if(error != CL_SUCCESS)

  0001a	85 c0		 test	 eax, eax
  0001c	74 17		 je	 SHORT $LN3@dynamic

; 271  : 		{
; 272  : 			GLWindow::instance->postError("Failed to delete buffer", "OpenCL buffer deletion error");

  0001e	4c 8d 05 00 00
	00 00		 lea	 r8, OFFSET FLAT:$SG4294952791
  00025	48 8d 15 00 00
	00 00		 lea	 rdx, OFFSET FLAT:$SG4294952790
  0002c	48 83 c4 28	 add	 rsp, 40			; 00000028H
  00030	e9 00 00 00 00	 jmp	 ?postError@GLWindow@@QEAAXPEBD0@Z ; GLWindow::postError
$LN3@dynamic:
  00035	48 83 c4 28	 add	 rsp, 40			; 00000028H
  00039	c3		 ret	 0
??__FprojectionMatrixBuffer@@YAXXZ ENDP			; `dynamic atexit destructor for 'projectionMatrixBuffer''
text$yd	ENDS
; Function compile flags: /Ogtp
; File c:\users\glenn\documents\github\wind\project\wind\wind\renderthread.cpp
;	COMDAT ??__EboolBuffer@@YAXXZ
text$yc	SEGMENT
??__EboolBuffer@@YAXXZ PROC				; `dynamic initializer for 'boolBuffer'', COMDAT

; 16   : cl::Buffer boolBuffer;

  00000	48 8d 0d 00 00
	00 00		 lea	 rcx, OFFSET FLAT:??__FboolBuffer@@YAXXZ ; `dynamic atexit destructor for 'boolBuffer''
  00007	e9 00 00 00 00	 jmp	 atexit
??__EboolBuffer@@YAXXZ ENDP				; `dynamic initializer for 'boolBuffer''
text$yc	ENDS
; Function compile flags: /Ogtp
; File c:\users\glenn\documents\github\wind\project\wind\wind\opencl.cpp
;	COMDAT ??__FboolBuffer@@YAXXZ
text$yd	SEGMENT
??__FboolBuffer@@YAXXZ PROC				; `dynamic atexit destructor for 'boolBuffer'', COMDAT
  00000	48 83 ec 28	 sub	 rsp, 40			; 00000028H

; 267  : 	if(okay)

  00004	80 3d 00 00 00
	00 00		 cmp	 BYTE PTR ?boolBuffer@@3VBuffer@cl@@A, 0
  0000b	74 28		 je	 SHORT $LN3@dynamic

; 268  : 	{
; 269  : 		cl_int error = clReleaseMemObject(mem);

  0000d	48 8b 0d 08 00
	00 00		 mov	 rcx, QWORD PTR ?boolBuffer@@3VBuffer@cl@@A+8
  00014	ff 15 00 00 00
	00		 call	 QWORD PTR __imp_clReleaseMemObject

; 270  : 		if(error != CL_SUCCESS)

  0001a	85 c0		 test	 eax, eax
  0001c	74 17		 je	 SHORT $LN3@dynamic

; 271  : 		{
; 272  : 			GLWindow::instance->postError("Failed to delete buffer", "OpenCL buffer deletion error");

  0001e	4c 8d 05 00 00
	00 00		 lea	 r8, OFFSET FLAT:$SG4294952791
  00025	48 8d 15 00 00
	00 00		 lea	 rdx, OFFSET FLAT:$SG4294952790
  0002c	48 83 c4 28	 add	 rsp, 40			; 00000028H
  00030	e9 00 00 00 00	 jmp	 ?postError@GLWindow@@QEAAXPEBD0@Z ; GLWindow::postError
$LN3@dynamic:
  00035	48 83 c4 28	 add	 rsp, 40			; 00000028H
  00039	c3		 ret	 0
??__FboolBuffer@@YAXXZ ENDP				; `dynamic atexit destructor for 'boolBuffer''
text$yd	ENDS
; Function compile flags: /Ogtp
; File c:\users\glenn\documents\github\wind\project\wind\wind\renderthread.cpp
;	COMDAT ??__EgridBuffer@@YAXXZ
text$yc	SEGMENT
??__EgridBuffer@@YAXXZ PROC				; `dynamic initializer for 'gridBuffer'', COMDAT

; 17   : cl::Buffer gridBuffer;

  00000	48 8d 0d 00 00
	00 00		 lea	 rcx, OFFSET FLAT:??__FgridBuffer@@YAXXZ ; `dynamic atexit destructor for 'gridBuffer''
  00007	e9 00 00 00 00	 jmp	 atexit
??__EgridBuffer@@YAXXZ ENDP				; `dynamic initializer for 'gridBuffer''
text$yc	ENDS
; Function compile flags: /Ogtp
; File c:\users\glenn\documents\github\wind\project\wind\wind\opencl.cpp
;	COMDAT ??__FgridBuffer@@YAXXZ
text$yd	SEGMENT
??__FgridBuffer@@YAXXZ PROC				; `dynamic atexit destructor for 'gridBuffer'', COMDAT
  00000	48 83 ec 28	 sub	 rsp, 40			; 00000028H

; 267  : 	if(okay)

  00004	80 3d 00 00 00
	00 00		 cmp	 BYTE PTR ?gridBuffer@@3VBuffer@cl@@A, 0
  0000b	74 28		 je	 SHORT $LN3@dynamic

; 268  : 	{
; 269  : 		cl_int error = clReleaseMemObject(mem);

  0000d	48 8b 0d 08 00
	00 00		 mov	 rcx, QWORD PTR ?gridBuffer@@3VBuffer@cl@@A+8
  00014	ff 15 00 00 00
	00		 call	 QWORD PTR __imp_clReleaseMemObject

; 270  : 		if(error != CL_SUCCESS)

  0001a	85 c0		 test	 eax, eax
  0001c	74 17		 je	 SHORT $LN3@dynamic

; 271  : 		{
; 272  : 			GLWindow::instance->postError("Failed to delete buffer", "OpenCL buffer deletion error");

  0001e	4c 8d 05 00 00
	00 00		 lea	 r8, OFFSET FLAT:$SG4294952791
  00025	48 8d 15 00 00
	00 00		 lea	 rdx, OFFSET FLAT:$SG4294952790
  0002c	48 83 c4 28	 add	 rsp, 40			; 00000028H
  00030	e9 00 00 00 00	 jmp	 ?postError@GLWindow@@QEAAXPEBD0@Z ; GLWindow::postError
$LN3@dynamic:
  00035	48 83 c4 28	 add	 rsp, 40			; 00000028H
  00039	c3		 ret	 0
??__FgridBuffer@@YAXXZ ENDP				; `dynamic atexit destructor for 'gridBuffer''
text$yd	ENDS
; Function compile flags: /Ogtp
; File c:\users\glenn\documents\github\wind\project\wind\wind\renderthread.cpp
; File c:\users\glenn\documents\github\wind\project\wind\wind\list.h
; File c:\users\glenn\documents\github\wind\project\wind\wind\renderthread.cpp
; File c:\users\glenn\documents\github\wind\project\wind\wind\list.h
; File c:\users\glenn\documents\github\wind\project\wind\wind\memutil.cpp
; File c:\users\glenn\documents\github\wind\project\wind\wind\renderthread.cpp
; File c:\users\glenn\documents\github\wind\project\wind\wind\graphics.cpp
; File c:\users\glenn\documents\github\wind\project\wind\wind\geometry.cpp
; File c:\users\glenn\documents\github\wind\project\wind\wind\graphics.h
; File c:\users\glenn\documents\github\wind\project\wind\wind\geometry.cpp
; File c:\users\glenn\documents\github\wind\project\wind\wind\graphics.h
; File c:\users\glenn\documents\github\wind\project\wind\wind\geometry.cpp
; File c:\users\glenn\documents\github\wind\project\wind\wind\graphics.h
; File c:\users\glenn\documents\github\wind\project\wind\wind\graphics.cpp
; File c:\users\glenn\documents\github\wind\project\wind\wind\renderthread.cpp
; File c:\users\glenn\documents\github\wind\project\wind\wind\geometry.cpp
; File c:\users\glenn\documents\github\wind\project\wind\wind\renderthread.cpp
; File c:\users\glenn\documents\github\wind\project\wind\wind\graphics.cpp
; File c:\users\glenn\documents\github\wind\project\wind\wind\opencl.cpp
; File c:\users\glenn\documents\github\wind\project\wind\wind\renderthread.cpp
; File c:\program files (x86)\microsoft visual studio 11.0\vc\include\xstring
; File c:\program files (x86)\microsoft visual studio 11.0\vc\include\iosfwd
; File c:\program files (x86)\microsoft visual studio 11.0\vc\include\xstring
; File c:\users\glenn\documents\github\wind\project\wind\wind\renderthread.cpp
; File c:\users\glenn\documents\github\wind\project\wind\wind\opencl.cpp
; File c:\users\glenn\documents\github\wind\project\wind\wind\renderthread.cpp
; File c:\users\glenn\documents\github\wind\project\wind\wind\opencl.cpp
; File c:\users\glenn\documents\github\wind\project\wind\wind\renderthread.cpp
; File c:\users\glenn\documents\github\wind\project\wind\wind\opencl.cpp
; File c:\program files (x86)\microsoft visual studio 11.0\vc\include\thr\xthread
; File c:\users\glenn\documents\github\wind\project\wind\wind\renderthread.cpp
; File c:\program files (x86)\microsoft visual studio 11.0\vc\include\xstring
; File c:\program files (x86)\microsoft visual studio 11.0\vc\include\iosfwd
; File c:\program files (x86)\microsoft visual studio 11.0\vc\include\xstring
; File c:\users\glenn\documents\github\wind\project\wind\wind\renderthread.cpp
; File c:\users\glenn\documents\github\wind\project\wind\wind\opencl.cpp
; File c:\program files (x86)\microsoft visual studio 11.0\vc\include\thr\xthread
; File c:\users\glenn\documents\github\wind\project\wind\wind\opencl.cpp
; File c:\users\glenn\documents\github\wind\project\wind\wind\graphics.cpp
; File c:\program files (x86)\microsoft visual studio 11.0\vc\include\thr\xthread
; File c:\program files (x86)\microsoft visual studio 11.0\vc\include\deque
; File c:\users\glenn\documents\github\wind\project\wind\wind\renderthread.cpp
; File c:\program files (x86)\microsoft visual studio 11.0\vc\include\deque
; File c:\program files (x86)\microsoft visual studio 11.0\vc\include\xutility
; File c:\program files (x86)\microsoft visual studio 11.0\vc\include\deque
; File c:\program files (x86)\microsoft visual studio 11.0\vc\include\memory
; File c:\program files (x86)\microsoft visual studio 11.0\vc\include\queue
; File c:\program files (x86)\microsoft visual studio 11.0\vc\include\memory
; File c:\users\glenn\documents\github\wind\project\wind\wind\renderthread.cpp
; File c:\program files (x86)\microsoft visual studio 11.0\vc\include\memory
; File c:\program files (x86)\microsoft visual studio 11.0\vc\include\deque
; File c:\users\glenn\documents\github\wind\project\wind\wind\renderthread.cpp
; File c:\program files (x86)\microsoft visual studio 11.0\vc\include\thr\xthread
; File c:\program files (x86)\microsoft visual studio 11.0\vc\include\deque
; File c:\users\glenn\documents\github\wind\project\wind\wind\renderthread.cpp
; File c:\program files (x86)\microsoft visual studio 11.0\vc\include\deque
; File c:\program files (x86)\microsoft visual studio 11.0\vc\include\xutility
; File c:\program files (x86)\microsoft visual studio 11.0\vc\include\deque
; File c:\program files (x86)\microsoft visual studio 11.0\vc\include\memory
; File c:\users\glenn\documents\github\wind\project\wind\wind\world.cpp
; File c:\program files (x86)\microsoft visual studio 11.0\vc\include\queue
; File c:\users\glenn\documents\github\wind\project\wind\wind\renderthread.cpp
; File c:\program files (x86)\microsoft visual studio 11.0\vc\include\xhash
; File c:\program files (x86)\microsoft visual studio 11.0\vc\include\utility
; File c:\program files (x86)\microsoft visual studio 11.0\vc\include\xutility
; File c:\program files (x86)\microsoft visual studio 11.0\vc\include\list
; File c:\program files (x86)\microsoft visual studio 11.0\vc\include\xutility
; File c:\program files (x86)\microsoft visual studio 11.0\vc\include\list
; File c:\program files (x86)\microsoft visual studio 11.0\vc\include\xutility
; File c:\program files (x86)\microsoft visual studio 11.0\vc\include\xhash
; File c:\program files (x86)\microsoft visual studio 11.0\vc\include\memory
; File c:\program files (x86)\microsoft visual studio 11.0\vc\include\deque
; File c:\users\glenn\documents\github\wind\project\wind\wind\renderthread.cpp
; File c:\program files (x86)\microsoft visual studio 11.0\vc\include\thr\xthread
; File c:\program files (x86)\microsoft visual studio 11.0\vc\include\vector
; File c:\program files (x86)\microsoft visual studio 11.0\vc\include\list
; File c:\users\glenn\documents\github\wind\project\wind\wind\renderthread.cpp
; File c:\program files (x86)\microsoft visual studio 11.0\vc\include\memory
; File c:\users\glenn\documents\github\wind\project\wind\wind\renderthread.cpp
; File c:\program files (x86)\microsoft visual studio 11.0\vc\include\vector
; File c:\program files (x86)\microsoft visual studio 11.0\vc\include\xmemory0
; File c:\program files (x86)\microsoft visual studio 11.0\vc\include\memory
; File c:\program files (x86)\microsoft visual studio 11.0\vc\include\vector
; File c:\program files (x86)\microsoft visual studio 11.0\vc\include\xmemory0
; File c:\program files (x86)\microsoft visual studio 11.0\vc\include\memory
; File c:\program files (x86)\microsoft visual studio 11.0\vc\include\vector
; File c:\program files (x86)\microsoft visual studio 11.0\vc\include\memory
; File c:\program files (x86)\microsoft visual studio 11.0\vc\include\list
; File c:\users\glenn\documents\github\wind\project\wind\wind\renderthread.cpp
; File c:\program files (x86)\microsoft visual studio 11.0\vc\include\vector
; File c:\program files (x86)\microsoft visual studio 11.0\vc\include\thr\xthread
; File c:\users\glenn\documents\github\wind\project\wind\wind\graphics.cpp
; File c:\users\glenn\documents\github\wind\project\wind\wind\renderthread.cpp
; File c:\program files (x86)\microsoft visual studio 11.0\vc\include\vector
; File c:\users\glenn\documents\github\wind\project\wind\wind\renderthread.cpp
; File c:\program files (x86)\microsoft visual studio 11.0\vc\include\memory
; File c:\program files (x86)\microsoft visual studio 11.0\vc\include\thr\xthread
; File c:\users\glenn\documents\github\wind\project\wind\wind\renderthread.cpp
; File c:\program files (x86)\microsoft visual studio 11.0\vc\include\memory
; File c:\users\glenn\documents\github\wind\project\wind\wind\renderthread.cpp
; File c:\users\glenn\documents\github\wind\project\wind\wind\geometry.cpp
; File c:\users\glenn\documents\github\wind\project\wind\wind\renderthread.cpp
; File c:\program files (x86)\microsoft visual studio 11.0\vc\include\thr\xthread
; File c:\program files (x86)\microsoft visual studio 11.0\vc\include\memory
; File c:\users\glenn\documents\github\wind\project\wind\wind\renderthread.cpp
; File c:\program files (x86)\microsoft visual studio 11.0\vc\include\memory
; File c:\program files (x86)\microsoft visual studio 11.0\vc\include\thr\xthread
; File c:\program files (x86)\microsoft visual studio 11.0\vc\include\memory
; File c:\users\glenn\documents\github\wind\project\wind\wind\renderthread.cpp
; File c:\users\glenn\documents\github\wind\project\wind\wind\geometry.cpp
; File c:\users\glenn\documents\github\wind\project\wind\wind\renderthread.cpp
; File c:\program files (x86)\microsoft visual studio 11.0\vc\include\thr\xthread
; File c:\program files (x86)\microsoft visual studio 11.0\vc\include\memory
; File c:\users\glenn\documents\github\wind\project\wind\wind\renderthread.cpp
; File c:\users\glenn\documents\github\wind\project\wind\wind\geometry.cpp
; File c:\users\glenn\documents\github\wind\project\wind\wind\graphics.h
; File c:\users\glenn\documents\github\wind\project\wind\wind\geometry.cpp
; File c:\users\glenn\documents\github\wind\project\wind\wind\renderthread.cpp
; File c:\users\glenn\documents\github\wind\project\wind\wind\geometry.cpp
; File c:\users\glenn\documents\github\wind\project\wind\wind\renderthread.cpp
; File c:\users\glenn\documents\github\wind\project\wind\wind\geometry.cpp
; File c:\users\glenn\documents\github\wind\project\wind\wind\graphics.h
; File c:\users\glenn\documents\github\wind\project\wind\wind\renderthread.cpp
; File c:\users\glenn\documents\github\wind\project\wind\wind\geometry.cpp
; File c:\users\glenn\documents\github\wind\project\wind\wind\graphics.h
; File c:\users\glenn\documents\github\wind\project\wind\wind\renderthread.cpp
; File c:\users\glenn\documents\github\wind\project\wind\wind\graphics.cpp
; File c:\users\glenn\documents\github\wind\project\wind\wind\renderthread.cpp
; File c:\users\glenn\documents\github\wind\project\wind\wind\window.cpp
; File c:\program files (x86)\microsoft visual studio 11.0\vc\include\vector
; File c:\program files (x86)\microsoft visual studio 11.0\vc\include\xmemory0
; File c:\program files (x86)\microsoft visual studio 11.0\vc\include\memory
; File c:\program files (x86)\microsoft visual studio 11.0\vc\include\xmemory0
; File c:\users\glenn\documents\github\wind\project\wind\wind\renderthread.cpp
; File c:\users\glenn\documents\github\wind\project\wind\wind\opencl.cpp
; File c:\users\glenn\documents\github\wind\project\wind\wind\renderthread.cpp
;	COMDAT ?tick@RenderThread@@EEAA_NXZ
_TEXT	SEGMENT
chunksToRender$ = 80
zCam$ = 104
yCam$ = 108
xCam$ = 112
$T1 = 120
$T2 = 136
$T3 = 152
$T4 = 168
$T5 = 184
$T6 = 200
$T7 = 224
chunk$8 = 240
event$9 = 256
$T10 = 264
event$11 = 280
event$12 = 288
event$13 = 296
$T14 = 304
$T15 = 336
c$16 = 368
$T17 = 384
$T18 = 392
chunk$19 = 400
chunk$20 = 416
$T21 = 432
$T22 = 496
$T23 = 560
$T24 = 624
$T25 = 688
$T26 = 752
$T27 = 816
$T28 = 880
$T29 = 944
$T30 = 1008
$T31 = 1024
$T32 = 1048
$T33 = 1072
$T34 = 1136
$T35 = 1200
$T36 = 1264
$T37 = 1328
projectionMatrix$ = 1392
$T38 = 1456
$T39 = 1520
$T40 = 1584
$T41 = 1648
global_ws_1$ = 1712
local_ws_1$ = 1736
global_ws_2$ = 1760
local_ws_2$ = 1784
__$ArrayPad$ = 1808
this$ = 1904
?tick@RenderThread@@EEAA_NXZ PROC			; RenderThread::tick, COMDAT

; 32   : {

$LN1174:
  00000	48 8b c4	 mov	 rax, rsp
  00003	55		 push	 rbp
  00004	41 54		 push	 r12
  00006	41 55		 push	 r13
  00008	41 56		 push	 r14
  0000a	41 57		 push	 r15
  0000c	48 8d a8 98 f9
	ff ff		 lea	 rbp, QWORD PTR [rax-1640]
  00013	48 81 ec 40 07
	00 00		 sub	 rsp, 1856		; 00000740H
  0001a	48 c7 85 88 00
	00 00 fe ff ff
	ff		 mov	 QWORD PTR $T18[rbp-256], -2
  00025	48 89 58 10	 mov	 QWORD PTR [rax+16], rbx
  00029	48 89 70 18	 mov	 QWORD PTR [rax+24], rsi
  0002d	48 89 78 20	 mov	 QWORD PTR [rax+32], rdi
  00031	0f 29 70 c8	 movaps	 XMMWORD PTR [rax-56], xmm6
  00035	0f 29 78 b8	 movaps	 XMMWORD PTR [rax-72], xmm7
  00039	48 8b 05 00 00
	00 00		 mov	 rax, QWORD PTR __security_cookie
  00040	48 33 c4	 xor	 rax, rsp
  00043	48 89 85 10 06
	00 00		 mov	 QWORD PTR __$ArrayPad$[rbp-256], rax
  0004a	48 8b f1	 mov	 rsi, rcx

; 33   : 	for(int i = 0; i < RenderThread::taskList.getSize(); i++)

  0004d	45 33 e4	 xor	 r12d, r12d
  00050	41 8b fc	 mov	 edi, r12d
  00053	45 8d 74 24 01	 lea	 r14d, QWORD PTR [r12+1]
  00058	44 39 a1 20 08
	00 00		 cmp	 DWORD PTR [rcx+2080], r12d
  0005f	7e 2d		 jle	 SHORT $LN38@tick
  00061	48 8d 59 20	 lea	 rbx, QWORD PTR [rcx+32]
$LL40@tick:
; File c:\users\glenn\documents\github\wind\project\wind\wind\list.h

; 53   : 		return List::operator[](index);

  00065	48 8b 0b	 mov	 rcx, QWORD PTR [rbx]
; File c:\users\glenn\documents\github\wind\project\wind\wind\renderthread.cpp

; 35   : 		if(!RenderThread::taskList[i]->invoke())

  00068	48 8b 01	 mov	 rax, QWORD PTR [rcx]
  0006b	ff 10		 call	 QWORD PTR [rax]
  0006d	0f b6 0d 00 00
	00 00		 movzx	 ecx, BYTE PTR ?stop@GlobalThread@@3_NA ; GlobalThread::stop
  00074	84 c0		 test	 al, al
  00076	41 0f 44 ce	 cmove	 ecx, r14d
  0007a	88 0d 00 00 00
	00		 mov	 BYTE PTR ?stop@GlobalThread@@3_NA, cl ; GlobalThread::stop

; 33   : 	for(int i = 0; i < RenderThread::taskList.getSize(); i++)

  00080	ff c7		 inc	 edi
  00082	48 8d 5b 08	 lea	 rbx, QWORD PTR [rbx+8]
  00086	3b be 20 08 00
	00		 cmp	 edi, DWORD PTR [rsi+2080]
  0008c	7c d7		 jl	 SHORT $LL40@tick
$LN38@tick:
; File c:\users\glenn\documents\github\wind\project\wind\wind\list.h

; 37   : 		count = 0;

  0008e	44 89 a6 20 08
	00 00		 mov	 DWORD PTR [rsi+2080], r12d
; File c:\users\glenn\documents\github\wind\project\wind\wind\memutil.cpp

; 18   : 	pos = 0;

  00095	44 89 a6 34 08
	00 00		 mov	 DWORD PTR [rsi+2100], r12d
; File c:\users\glenn\documents\github\wind\project\wind\wind\renderthread.cpp

; 43   : 	if(RenderThread::skipRender)

  0009c	44 38 25 00 00
	00 00		 cmp	 BYTE PTR ?skipRender@RenderThread@@2_NA, r12b ; RenderThread::skipRender
  000a3	74 09		 je	 SHORT $LN36@tick

; 44   : 	{
; 45   : 		return true;

  000a5	41 0f b6 c6	 movzx	 eax, r14b
  000a9	e9 84 15 00 00	 jmp	 $LN41@tick
$LN36@tick:

; 46   : 	}
; 47   : 
; 48   : 	GameStates::swapPendingRendering();

  000ae	e8 00 00 00 00	 call	 ?swapPendingRendering@GameStates@@YAXXZ ; GameStates::swapPendingRendering

; 49   : 
; 50   : 	GameStates::GameState* state = GameStates::renderingState;

  000b3	4c 8b 2d 00 00
	00 00		 mov	 r13, QWORD PTR ?renderingState@GameStates@@3PEAVGameState@1@EA ; GameStates::renderingState

; 51   : 
; 52   : 	glClear(GL_COLOR_BUFFER_BIT | GL_DEPTH_BUFFER_BIT);

  000ba	b9 00 41 00 00	 mov	 ecx, 16640		; 00004100H
  000bf	ff 15 00 00 00
	00		 call	 QWORD PTR __imp_glClear

; 53   : 
; 54   : 	if(GLWindow::instance->rescaled)

  000c5	48 8b 05 00 00
	00 00		 mov	 rax, QWORD PTR ?instance@GLWindow@@2PEAV1@EA ; GLWindow::instance
  000cc	44 38 60 50	 cmp	 BYTE PTR [rax+80], r12b
  000d0	74 1d		 je	 SHORT $LN35@tick

; 55   : 	{
; 56   : 		glViewport(0, 0, GLWindow::instance->width, GLWindow::instance->height);

  000d2	44 8b 48 58	 mov	 r9d, DWORD PTR [rax+88]
  000d6	44 8b 40 54	 mov	 r8d, DWORD PTR [rax+84]
  000da	33 d2		 xor	 edx, edx
  000dc	33 c9		 xor	 ecx, ecx
  000de	ff 15 00 00 00
	00		 call	 QWORD PTR __imp_glViewport

; 57   : 		GLWindow::instance->rescaled = false;

  000e4	48 8b 05 00 00
	00 00		 mov	 rax, QWORD PTR ?instance@GLWindow@@2PEAV1@EA ; GLWindow::instance
  000eb	44 88 60 50	 mov	 BYTE PTR [rax+80], r12b
$LN35@tick:

; 58   : 	}
; 59   : 		
; 60   : 	normalShaderProgram->bind();

  000ef	48 8b 1d 00 00
	00 00		 mov	 rbx, QWORD PTR ?normalShaderProgram@@3PEAVShaderProgram@gfxu@@EA ; normalShaderProgram
; File c:\users\glenn\documents\github\wind\project\wind\wind\graphics.cpp

; 492  : 	glUseProgram(object);

  000f6	8b 4b 18	 mov	 ecx, DWORD PTR [rbx+24]
  000f9	ff 15 00 00 00
	00		 call	 QWORD PTR __glewUseProgram

; 879  : 	int error = glGetError();

  000ff	ff 15 00 00 00
	00		 call	 QWORD PTR __imp_glGetError

; 880  : 	if(error != GL_NO_ERROR)

  00105	85 c0		 test	 eax, eax
  00107	74 17		 je	 SHORT $LN69@tick

; 881  : 	{
; 882  : 		const char* errorString = (const char*)gluErrorString(error);

  00109	8b c8		 mov	 ecx, eax
  0010b	ff 15 00 00 00
	00		 call	 QWORD PTR __imp_gluErrorString

; 883  : 		GLWindow::instance->postError(errorString, caption);

  00111	4c 8d 05 00 00
	00 00		 lea	 r8, OFFSET FLAT:$SG4294921882
  00118	48 8b d0	 mov	 rdx, rax
  0011b	e8 00 00 00 00	 call	 ?postError@GLWindow@@QEAAXPEBD0@Z ; GLWindow::postError
$LN69@tick:

; 493  : 	gfxu::getError();
; 494  : 	current = this;

  00120	48 89 1d 00 00
	00 00		 mov	 QWORD PTR ?current@ShaderProgram@gfxu@@2PEAV12@EA, rbx ; gfxu::ShaderProgram::current

; 619  : }
; 620  : 
; 621  : void Uniforms::setForceUpload()
; 622  : {
; 623  : 	MMS.changed = PMS.changed = true;

  00127	44 88 35 68 00
	00 00		 mov	 BYTE PTR ?PMS@Uniforms@gfxu@@2VMatrixStack@2@A+104, r14b
  0012e	44 88 35 68 00
	00 00		 mov	 BYTE PTR ?MMS@Uniforms@gfxu@@2VMatrixStack@2@A+104, r14b
; File c:\users\glenn\documents\github\wind\project\wind\wind\geometry.cpp

; 10   : {

  00135	f3 41 0f 10 45
	00		 movss	 xmm0, DWORD PTR [r13]
  0013b	f3 0f 11 45 b8	 movss	 DWORD PTR $T5[rbp-256], xmm0
  00140	f3 41 0f 10 4d
	04		 movss	 xmm1, DWORD PTR [r13+4]
  00146	f3 0f 11 4d bc	 movss	 DWORD PTR $T5[rbp-252], xmm1
  0014b	f3 41 0f 10 45
	08		 movss	 xmm0, DWORD PTR [r13+8]
  00151	f3 0f 11 45 c0	 movss	 DWORD PTR $T5[rbp-248], xmm0
  00156	f3 41 0f 10 4d
	0c		 movss	 xmm1, DWORD PTR [r13+12]
  0015c	f3 0f 11 4d c4	 movss	 DWORD PTR $T5[rbp-244], xmm1
; File c:\users\glenn\documents\github\wind\project\wind\wind\graphics.h

; 304  : 			val = value;

  00161	48 8b 45 b8	 mov	 rax, QWORD PTR $T5[rbp-256]
  00165	48 89 05 00 00
	00 00		 mov	 QWORD PTR ?camPos@Uniforms@gfxu@@2V?$Uniform@VVector@geom@@@2@A, rax
  0016c	48 8b 45 c0	 mov	 rax, QWORD PTR $T5[rbp-248]
  00170	48 89 05 08 00
	00 00		 mov	 QWORD PTR ?camPos@Uniforms@gfxu@@2V?$Uniform@VVector@geom@@@2@A+8, rax

; 305  : 			changed = true;

  00177	44 88 35 10 00
	00 00		 mov	 BYTE PTR ?camPos@Uniforms@gfxu@@2V?$Uniform@VVector@geom@@@2@A+16, r14b
; File c:\users\glenn\documents\github\wind\project\wind\wind\geometry.cpp

; 16   : {

  0017e	f3 0f 10 3d 00
	00 00 00	 movss	 xmm7, DWORD PTR __real@3f800000
  00186	c7 45 a8 00 00
	80 3f		 mov	 DWORD PTR $T4[rbp-256], 1065353216 ; 3f800000H
  0018d	c7 45 ac 00 00
	80 3f		 mov	 DWORD PTR $T4[rbp-252], 1065353216 ; 3f800000H
  00194	c7 45 b0 00 00
	80 3f		 mov	 DWORD PTR $T4[rbp-248], 1065353216 ; 3f800000H
  0019b	c7 45 b4 00 00
	80 3f		 mov	 DWORD PTR $T4[rbp-244], 1065353216 ; 3f800000H
; File c:\users\glenn\documents\github\wind\project\wind\wind\graphics.h

; 304  : 			val = value;

  001a2	48 8b 45 a8	 mov	 rax, QWORD PTR $T4[rbp-256]
  001a6	48 89 05 00 00
	00 00		 mov	 QWORD PTR ?color@Uniforms@gfxu@@2V?$Uniform@VVector@geom@@@2@A, rax
  001ad	48 8b 45 b0	 mov	 rax, QWORD PTR $T4[rbp-248]
  001b1	48 89 05 08 00
	00 00		 mov	 QWORD PTR ?color@Uniforms@gfxu@@2V?$Uniform@VVector@geom@@@2@A+8, rax

; 305  : 			changed = true;

  001b8	44 88 35 10 00
	00 00		 mov	 BYTE PTR ?color@Uniforms@gfxu@@2V?$Uniform@VVector@geom@@@2@A+16, r14b
; File c:\users\glenn\documents\github\wind\project\wind\wind\geometry.cpp

; 16   : {

  001bf	f3 0f 10 05 00
	00 00 00	 movss	 xmm0, DWORD PTR __real@3f000000
  001c7	f3 0f 11 44 24
	78		 movss	 DWORD PTR $T1[rsp], xmm0
  001cd	f3 0f 10 0d 00
	00 00 00	 movss	 xmm1, DWORD PTR __real@3f600000
  001d5	f3 0f 11 4c 24
	7c		 movss	 DWORD PTR $T1[rsp+4], xmm1
  001db	c7 45 80 00 00
	80 3f		 mov	 DWORD PTR $T1[rbp-248], 1065353216 ; 3f800000H
  001e2	c7 45 84 00 00
	80 3f		 mov	 DWORD PTR $T1[rbp-244], 1065353216 ; 3f800000H
; File c:\users\glenn\documents\github\wind\project\wind\wind\graphics.h

; 304  : 			val = value;

  001e9	48 8b 44 24 78	 mov	 rax, QWORD PTR $T1[rsp]
  001ee	48 89 05 00 00
	00 00		 mov	 QWORD PTR ?fogColor@Uniforms@gfxu@@2V?$Uniform@VVector@geom@@@2@A, rax
  001f5	48 8b 45 80	 mov	 rax, QWORD PTR $T1[rbp-248]
  001f9	48 89 05 08 00
	00 00		 mov	 QWORD PTR ?fogColor@Uniforms@gfxu@@2V?$Uniform@VVector@geom@@@2@A+8, rax

; 305  : 			changed = true;

  00200	44 88 35 10 00
	00 00		 mov	 BYTE PTR ?fogColor@Uniforms@gfxu@@2V?$Uniform@VVector@geom@@@2@A+16, r14b

; 304  : 			val = value;

  00207	f3 0f 10 35 00
	00 00 00	 movss	 xmm6, DWORD PTR __real@43200000
  0020f	c7 05 00 00 00
	00 00 00 20 43	 mov	 DWORD PTR ?fogDist@Uniforms@gfxu@@2V?$Uniform@M@2@A, 1126170624 ; 43200000H

; 305  : 			changed = true;

  00219	44 88 35 04 00
	00 00		 mov	 BYTE PTR ?fogDist@Uniforms@gfxu@@2V?$Uniform@M@2@A+4, r14b
; File c:\users\glenn\documents\github\wind\project\wind\wind\graphics.cpp

; 617  : 	MMS.clear();

  00220	48 8d 0d 00 00
	00 00		 lea	 rcx, OFFSET FLAT:?MMS@Uniforms@gfxu@@2VMatrixStack@2@A ; gfxu::Uniforms::MMS
  00227	e8 00 00 00 00	 call	 ?clear@MatrixStack@gfxu@@QEAAXXZ ; gfxu::MatrixStack::clear

; 618  : 	PMS.clear();

  0022c	48 8d 0d 00 00
	00 00		 lea	 rcx, OFFSET FLAT:?PMS@Uniforms@gfxu@@2VMatrixStack@2@A ; gfxu::Uniforms::PMS
  00233	e8 00 00 00 00	 call	 ?clear@MatrixStack@gfxu@@QEAAXXZ ; gfxu::MatrixStack::clear
; File c:\users\glenn\documents\github\wind\project\wind\wind\renderthread.cpp

; 66   : 	gfxu::Uniforms::PMS.mult(geom::Matrix::perspective(state->FOV, (float)GLWindow::instance->width / (float)GLWindow::instance->height, 0.1f, 16.0f * renderDistance));

  00238	48 8b 05 00 00
	00 00		 mov	 rax, QWORD PTR ?instance@GLWindow@@2PEAV1@EA ; GLWindow::instance
  0023f	66 0f 6e 50 54	 movd	 xmm2, DWORD PTR [rax+84]
  00244	0f 5b d2	 cvtdq2ps xmm2, xmm2
  00247	66 0f 6e 40 58	 movd	 xmm0, DWORD PTR [rax+88]
  0024c	0f 5b c0	 cvtdq2ps xmm0, xmm0
  0024f	f3 0f 5e d0	 divss	 xmm2, xmm0
  00253	66 41 0f 6e 4d
	20		 movd	 xmm1, DWORD PTR [r13+32]
  00259	0f 5b c9	 cvtdq2ps xmm1, xmm1
  0025c	f3 0f 11 74 24
	20		 movss	 DWORD PTR [rsp+32], xmm6
  00262	f3 0f 10 1d 00
	00 00 00	 movss	 xmm3, DWORD PTR __real@3dcccccd
  0026a	48 8d 8d b0 04
	00 00		 lea	 rcx, QWORD PTR $T38[rbp-256]
  00271	e8 00 00 00 00	 call	 ?perspective@Matrix@geom@@SA?AV12@MMMM@Z ; geom::Matrix::perspective
  00276	0f 10 00	 movups	 xmm0, XMMWORD PTR [rax]
  00279	0f 29 85 b0 00
	00 00		 movaps	 XMMWORD PTR $T21[rbp-256], xmm0
  00280	0f 10 48 10	 movups	 xmm1, XMMWORD PTR [rax+16]
  00284	0f 29 8d c0 00
	00 00		 movaps	 XMMWORD PTR $T21[rbp-240], xmm1
  0028b	0f 10 40 20	 movups	 xmm0, XMMWORD PTR [rax+32]
  0028f	0f 29 85 d0 00
	00 00		 movaps	 XMMWORD PTR $T21[rbp-224], xmm0
  00296	0f 10 48 30	 movups	 xmm1, XMMWORD PTR [rax+48]
  0029a	0f 29 8d e0 00
	00 00		 movaps	 XMMWORD PTR $T21[rbp-208], xmm1
  002a1	48 8d 95 b0 00
	00 00		 lea	 rdx, QWORD PTR $T21[rbp-256]
  002a8	48 8d 0d 00 00
	00 00		 lea	 rcx, OFFSET FLAT:?PMS@Uniforms@gfxu@@2VMatrixStack@2@A ; gfxu::Uniforms::PMS
  002af	e8 00 00 00 00	 call	 ?mult@MatrixStack@gfxu@@QEAAXVMatrix@geom@@@Z ; gfxu::MatrixStack::mult
  002b4	0f 57 f6	 xorps	 xmm6, xmm6

; 67   : 	gfxu::Uniforms::PMS.mult(geom::Matrix::rotate(state->cam.rot.x, 1.0f, 0.0f, 0.0f));

  002b7	f3 0f 11 74 24
	20		 movss	 DWORD PTR [rsp+32], xmm6
  002bd	0f 28 de	 movaps	 xmm3, xmm6
  002c0	0f 28 d7	 movaps	 xmm2, xmm7
  002c3	f3 41 0f 10 4d
	10		 movss	 xmm1, DWORD PTR [r13+16]
  002c9	48 8d 8d f0 04
	00 00		 lea	 rcx, QWORD PTR $T39[rbp-256]
  002d0	e8 00 00 00 00	 call	 ?rotate@Matrix@geom@@SA?AV12@MMMM@Z ; geom::Matrix::rotate
  002d5	0f 10 00	 movups	 xmm0, XMMWORD PTR [rax]
  002d8	0f 29 85 70 02
	00 00		 movaps	 XMMWORD PTR $T28[rbp-256], xmm0
  002df	0f 10 48 10	 movups	 xmm1, XMMWORD PTR [rax+16]
  002e3	0f 29 8d 80 02
	00 00		 movaps	 XMMWORD PTR $T28[rbp-240], xmm1
  002ea	0f 10 40 20	 movups	 xmm0, XMMWORD PTR [rax+32]
  002ee	0f 29 85 90 02
	00 00		 movaps	 XMMWORD PTR $T28[rbp-224], xmm0
  002f5	0f 10 48 30	 movups	 xmm1, XMMWORD PTR [rax+48]
  002f9	0f 29 8d a0 02
	00 00		 movaps	 XMMWORD PTR $T28[rbp-208], xmm1
  00300	48 8d 95 70 02
	00 00		 lea	 rdx, QWORD PTR $T28[rbp-256]
  00307	48 8d 0d 00 00
	00 00		 lea	 rcx, OFFSET FLAT:?PMS@Uniforms@gfxu@@2VMatrixStack@2@A ; gfxu::Uniforms::PMS
  0030e	e8 00 00 00 00	 call	 ?mult@MatrixStack@gfxu@@QEAAXVMatrix@geom@@@Z ; gfxu::MatrixStack::mult

; 68   : 	gfxu::Uniforms::PMS.mult(geom::Matrix::rotate(state->cam.rot.y, 0.0f, 1.0f, 0.0f));

  00313	f3 0f 11 74 24
	20		 movss	 DWORD PTR [rsp+32], xmm6
  00319	0f 28 df	 movaps	 xmm3, xmm7
  0031c	0f 28 d6	 movaps	 xmm2, xmm6
  0031f	f3 41 0f 10 4d
	14		 movss	 xmm1, DWORD PTR [r13+20]
  00325	48 8d 8d 70 05
	00 00		 lea	 rcx, QWORD PTR $T41[rbp-256]
  0032c	e8 00 00 00 00	 call	 ?rotate@Matrix@geom@@SA?AV12@MMMM@Z ; geom::Matrix::rotate
  00331	0f 10 00	 movups	 xmm0, XMMWORD PTR [rax]
  00334	0f 29 85 f0 01
	00 00		 movaps	 XMMWORD PTR $T26[rbp-256], xmm0
  0033b	0f 10 48 10	 movups	 xmm1, XMMWORD PTR [rax+16]
  0033f	0f 29 8d 00 02
	00 00		 movaps	 XMMWORD PTR $T26[rbp-240], xmm1
  00346	0f 10 40 20	 movups	 xmm0, XMMWORD PTR [rax+32]
  0034a	0f 29 85 10 02
	00 00		 movaps	 XMMWORD PTR $T26[rbp-224], xmm0
  00351	0f 10 48 30	 movups	 xmm1, XMMWORD PTR [rax+48]
  00355	0f 29 8d 20 02
	00 00		 movaps	 XMMWORD PTR $T26[rbp-208], xmm1
  0035c	48 8d 95 f0 01
	00 00		 lea	 rdx, QWORD PTR $T26[rbp-256]
  00363	48 8d 0d 00 00
	00 00		 lea	 rcx, OFFSET FLAT:?PMS@Uniforms@gfxu@@2VMatrixStack@2@A ; gfxu::Uniforms::PMS
  0036a	e8 00 00 00 00	 call	 ?mult@MatrixStack@gfxu@@QEAAXVMatrix@geom@@@Z ; gfxu::MatrixStack::mult

; 69   : 	gfxu::Uniforms::PMS.mult(geom::Matrix::rotate(state->cam.rot.z, 0.0f, 0.0f, 1.0f));

  0036f	f3 0f 11 7c 24
	20		 movss	 DWORD PTR [rsp+32], xmm7
  00375	0f 28 de	 movaps	 xmm3, xmm6
  00378	0f 28 d6	 movaps	 xmm2, xmm6
  0037b	f3 41 0f 10 4d
	18		 movss	 xmm1, DWORD PTR [r13+24]
  00381	48 8d 8d 30 05
	00 00		 lea	 rcx, QWORD PTR $T40[rbp-256]
  00388	e8 00 00 00 00	 call	 ?rotate@Matrix@geom@@SA?AV12@MMMM@Z ; geom::Matrix::rotate
  0038d	0f 10 00	 movups	 xmm0, XMMWORD PTR [rax]
  00390	0f 29 85 f0 00
	00 00		 movaps	 XMMWORD PTR $T22[rbp-256], xmm0
  00397	0f 10 48 10	 movups	 xmm1, XMMWORD PTR [rax+16]
  0039b	0f 29 8d 00 01
	00 00		 movaps	 XMMWORD PTR $T22[rbp-240], xmm1
  003a2	0f 10 40 20	 movups	 xmm0, XMMWORD PTR [rax+32]
  003a6	0f 29 85 10 01
	00 00		 movaps	 XMMWORD PTR $T22[rbp-224], xmm0
  003ad	0f 10 48 30	 movups	 xmm1, XMMWORD PTR [rax+48]
  003b1	0f 29 8d 20 01
	00 00		 movaps	 XMMWORD PTR $T22[rbp-208], xmm1
  003b8	48 8d 95 f0 00
	00 00		 lea	 rdx, QWORD PTR $T22[rbp-256]
  003bf	48 8d 0d 00 00
	00 00		 lea	 rcx, OFFSET FLAT:?PMS@Uniforms@gfxu@@2VMatrixStack@2@A ; gfxu::Uniforms::PMS
  003c6	e8 00 00 00 00	 call	 ?mult@MatrixStack@gfxu@@QEAAXVMatrix@geom@@@Z ; gfxu::MatrixStack::mult

; 70   : 	gfxu::Uniforms::PMS.mult(geom::Matrix::translate(-state->cam.pos.x, -state->cam.pos.y, -state->cam.pos.z));

  003cb	f3 41 0f 10 5d
	08		 movss	 xmm3, DWORD PTR [r13+8]
  003d1	f3 0f 10 05 00
	00 00 00	 movss	 xmm0, DWORD PTR __xmm@80000000800000008000000080000000
  003d9	0f 57 d8	 xorps	 xmm3, xmm0
  003dc	f3 41 0f 10 55
	04		 movss	 xmm2, DWORD PTR [r13+4]
  003e2	0f 57 d0	 xorps	 xmm2, xmm0
  003e5	f3 41 0f 10 4d
	00		 movss	 xmm1, DWORD PTR [r13]
  003eb	0f 57 c8	 xorps	 xmm1, xmm0
; File c:\users\glenn\documents\github\wind\project\wind\wind\geometry.cpp

; 143  : 		data[i] = 0.0f;

  003ee	4c 89 a5 f0 03
	00 00		 mov	 QWORD PTR $T36[rbp-256], r12
  003f5	4c 89 a5 f8 03
	00 00		 mov	 QWORD PTR $T36[rbp-248], r12
  003fc	4c 89 a5 00 04
	00 00		 mov	 QWORD PTR $T36[rbp-240], r12
  00403	4c 89 a5 08 04
	00 00		 mov	 QWORD PTR $T36[rbp-232], r12
  0040a	4c 89 a5 10 04
	00 00		 mov	 QWORD PTR $T36[rbp-224], r12
  00411	4c 89 a5 18 04
	00 00		 mov	 QWORD PTR $T36[rbp-216], r12
  00418	4c 89 a5 20 04
	00 00		 mov	 QWORD PTR $T36[rbp-208], r12
  0041f	4c 89 a5 28 04
	00 00		 mov	 QWORD PTR $T36[rbp-200], r12

; 144  : 	}
; 145  : }
; 146  : 
; 147  : Matrix::Matrix(float* data)
; 148  : {
; 149  : 	for(int i = 0; i < 16; i++)
; 150  : 	{
; 151  : 		this->data[i] = data[i];
; 152  : 	}
; 153  : }
; 154  : 
; 155  : const float& Matrix::operator[](int index) const
; 156  : {
; 157  : 	return data[index];
; 158  : }
; 159  : 
; 160  : float& Matrix::operator[](int index)
; 161  : {
; 162  : 	return data[index];
; 163  : }
; 164  : 
; 165  : 
; 166  : Matrix Matrix::operator*(const Matrix& mat) const
; 167  : {
; 168  : 	Matrix result;
; 169  : 
; 170  : 	for(int i = 0; i < 4; i++)
; 171  : 	{
; 172  : 		for(int j = 0; j < 4; j++)
; 173  : 		{
; 174  : 			float value = 0.0f;
; 175  : 			for(int k = 0; k < 4; k++)
; 176  : 			{
; 177  : 				value += data[index(k, j)] * mat.data[index(i, k)];
; 178  : 			}
; 179  : 			result[index(i, j)] = value;
; 180  : 		}
; 181  : 	}
; 182  : 
; 183  : 	return result;
; 184  : }
; 185  : 
; 186  : Matrix Matrix::operator*(const float& scalar) const
; 187  : {
; 188  : 	Matrix result;
; 189  : 
; 190  : 	for(int i = 0; i < 16; i++)
; 191  : 	{
; 192  : 		result[i] = data[i] * scalar;
; 193  : 	}
; 194  : 
; 195  : 	return result;
; 196  : }
; 197  : 
; 198  : Vector Matrix::operator*(const Vector& vert) const
; 199  : {
; 200  : 	Vector result;
; 201  : 
; 202  : 	result.x = vert.x * data[0] + vert.y * data[1] + vert.z * data[2] + vert.w * data[3];
; 203  : 	result.y = vert.x * data[4] + vert.y * data[5] + vert.z * data[6] + vert.w * data[7];
; 204  : 	result.z = vert.x * data[8] + vert.y * data[9] + vert.z * data[10] + vert.w * data[11];
; 205  : 	result.w = vert.x * data[12] + vert.y * data[13] + vert.z * data[14] + vert.w * data[15];
; 206  : 
; 207  : 	return result;
; 208  : }
; 209  : 
; 210  : Matrix& Matrix::operator=(const Matrix& mat)
; 211  : {
; 212  : 	for(int i = 0; i < 16; i++)
; 213  : 	{
; 214  : 		data[i] = mat.data[i];
; 215  : 	}
; 216  : 
; 217  : 	return *this;
; 218  : }
; 219  : 
; 220  : Matrix Matrix::identity()
; 221  : {
; 222  : 	Matrix result;
; 223  : 	result[0] = 1.0f;

  00426	c7 85 f0 03 00
	00 00 00 80 3f	 mov	 DWORD PTR $T36[rbp-256], 1065353216 ; 3f800000H

; 224  : 	result[5] = 1.0f;

  00430	c7 85 04 04 00
	00 00 00 80 3f	 mov	 DWORD PTR $T36[rbp-236], 1065353216 ; 3f800000H

; 225  : 	result[10] = 1.0f;

  0043a	c7 85 18 04 00
	00 00 00 80 3f	 mov	 DWORD PTR $T36[rbp-216], 1065353216 ; 3f800000H

; 226  : 	result[15] = 1.0f;

  00444	c7 85 2c 04 00
	00 00 00 80 3f	 mov	 DWORD PTR $T36[rbp-196], 1065353216 ; 3f800000H

; 238  : 
; 239  : 	return result;
; 240  : }
; 241  : 
; 242  : Matrix Matrix::translate(float x, float y, float z)
; 243  : {
; 244  : 	Matrix result = identity();
; 245  : 	result[3] = x;

  0044e	f3 0f 11 8d fc
	03 00 00	 movss	 DWORD PTR $T36[rbp-244], xmm1

; 246  : 	result[7] = y;

  00456	f3 0f 11 95 0c
	04 00 00	 movss	 DWORD PTR $T36[rbp-228], xmm2

; 247  : 	result[11] = z;

  0045e	f3 0f 11 9d 1c
	04 00 00	 movss	 DWORD PTR $T36[rbp-212], xmm3
; File c:\users\glenn\documents\github\wind\project\wind\wind\renderthread.cpp

; 70   : 	gfxu::Uniforms::PMS.mult(geom::Matrix::translate(-state->cam.pos.x, -state->cam.pos.y, -state->cam.pos.z));

  00466	0f 28 85 f0 03
	00 00		 movaps	 xmm0, XMMWORD PTR $T36[rbp-256]
  0046d	0f 29 85 b0 01
	00 00		 movaps	 XMMWORD PTR $T25[rbp-256], xmm0
  00474	0f 28 8d 00 04
	00 00		 movaps	 xmm1, XMMWORD PTR $T36[rbp-240]
  0047b	0f 29 8d c0 01
	00 00		 movaps	 XMMWORD PTR $T25[rbp-240], xmm1
  00482	0f 28 85 10 04
	00 00		 movaps	 xmm0, XMMWORD PTR $T36[rbp-224]
  00489	0f 29 85 d0 01
	00 00		 movaps	 XMMWORD PTR $T25[rbp-224], xmm0
  00490	0f 28 8d 20 04
	00 00		 movaps	 xmm1, XMMWORD PTR $T36[rbp-208]
  00497	0f 29 8d e0 01
	00 00		 movaps	 XMMWORD PTR $T25[rbp-208], xmm1
  0049e	48 8d 95 b0 01
	00 00		 lea	 rdx, QWORD PTR $T25[rbp-256]
  004a5	48 8d 0d 00 00
	00 00		 lea	 rcx, OFFSET FLAT:?PMS@Uniforms@gfxu@@2VMatrixStack@2@A ; gfxu::Uniforms::PMS
  004ac	e8 00 00 00 00	 call	 ?mult@MatrixStack@gfxu@@QEAAXVMatrix@geom@@@Z ; gfxu::MatrixStack::mult

; 71   : 
; 72   : 	float cScale = 1.0f + 90.0f / state->FOV;
; 73   : 	int xCam = floorf(state->cam.pos.x / 16.0f);

  004b1	f3 41 0f 10 45
	00		 movss	 xmm0, DWORD PTR [r13]
  004b7	f3 0f 10 35 00
	00 00 00	 movss	 xmm6, DWORD PTR __real@3d800000
  004bf	f3 0f 59 c6	 mulss	 xmm0, xmm6
  004c3	e8 00 00 00 00	 call	 floorf
  004c8	f3 0f 2c c0	 cvttss2si eax, xmm0
  004cc	89 44 24 70	 mov	 DWORD PTR xCam$[rsp], eax

; 74   : 	int yCam = floorf(state->cam.pos.y / 16.0f);

  004d0	f3 41 0f 10 45
	04		 movss	 xmm0, DWORD PTR [r13+4]
  004d6	f3 0f 59 c6	 mulss	 xmm0, xmm6
  004da	e8 00 00 00 00	 call	 floorf
  004df	f3 0f 2c c0	 cvttss2si eax, xmm0
  004e3	89 44 24 6c	 mov	 DWORD PTR yCam$[rsp], eax

; 75   : 	int zCam = floorf(state->cam.pos.z / 16.0f);

  004e7	f3 41 0f 10 45
	08		 movss	 xmm0, DWORD PTR [r13+8]
  004ed	f3 0f 59 c6	 mulss	 xmm0, xmm6
  004f1	e8 00 00 00 00	 call	 floorf
  004f6	f3 0f 2c c0	 cvttss2si eax, xmm0
  004fa	89 44 24 68	 mov	 DWORD PTR zCam$[rsp], eax
; File c:\users\glenn\documents\github\wind\project\wind\wind\graphics.cpp

; 562  : 	return topmost;

  004fe	0f 10 05 28 00
	00 00		 movups	 xmm0, XMMWORD PTR ?PMS@Uniforms@gfxu@@2VMatrixStack@2@A+40
  00505	0f 29 85 70 04
	00 00		 movaps	 XMMWORD PTR projectionMatrix$[rbp-256], xmm0
  0050c	0f 10 0d 38 00
	00 00		 movups	 xmm1, XMMWORD PTR ?PMS@Uniforms@gfxu@@2VMatrixStack@2@A+56
  00513	0f 29 8d 80 04
	00 00		 movaps	 XMMWORD PTR projectionMatrix$[rbp-240], xmm1
  0051a	0f 10 05 48 00
	00 00		 movups	 xmm0, XMMWORD PTR ?PMS@Uniforms@gfxu@@2VMatrixStack@2@A+72
  00521	0f 29 85 90 04
	00 00		 movaps	 XMMWORD PTR projectionMatrix$[rbp-224], xmm0
  00528	0f 10 0d 58 00
	00 00		 movups	 xmm1, XMMWORD PTR ?PMS@Uniforms@gfxu@@2VMatrixStack@2@A+88
  0052f	0f 29 8d a0 04
	00 00		 movaps	 XMMWORD PTR projectionMatrix$[rbp-208], xmm1
; File c:\users\glenn\documents\github\wind\project\wind\wind\opencl.cpp

; 294  : 	if(!okay) return false;

  00536	44 38 25 00 00
	00 00		 cmp	 BYTE PTR ?projectionMatrixBuffer@@3VBuffer@cl@@A, r12b
  0053d	74 6e		 je	 SHORT $LN123@tick

; 295  : 
; 296  : 	cl_event event;
; 297  : 
; 298  : 	cl_int error = clEnqueueWriteBuffer(queue.queue, mem, CL_TRUE, offset, cb, data, 0, NULL, &event);

  0053f	48 8d 45 20	 lea	 rax, QWORD PTR event$12[rbp-256]
  00543	48 89 44 24 40	 mov	 QWORD PTR [rsp+64], rax
  00548	4c 89 64 24 38	 mov	 QWORD PTR [rsp+56], r12
  0054d	44 89 64 24 30	 mov	 DWORD PTR [rsp+48], r12d
  00552	48 8d 85 70 04
	00 00		 lea	 rax, QWORD PTR projectionMatrix$[rbp-256]
  00559	48 89 44 24 28	 mov	 QWORD PTR [rsp+40], rax
  0055e	48 8b 05 10 00
	00 00		 mov	 rax, QWORD PTR ?projectionMatrixBuffer@@3VBuffer@cl@@A+16
  00565	48 89 44 24 20	 mov	 QWORD PTR [rsp+32], rax
  0056a	45 33 c9	 xor	 r9d, r9d
  0056d	45 8b c6	 mov	 r8d, r14d
  00570	48 8b 15 08 00
	00 00		 mov	 rdx, QWORD PTR ?projectionMatrixBuffer@@3VBuffer@cl@@A+8
  00577	48 8b 0d 00 00
	00 00		 mov	 rcx, QWORD PTR ?commandQueue@@3VCommandQueue@cl@@A
  0057e	ff 15 00 00 00
	00		 call	 QWORD PTR __imp_clEnqueueWriteBuffer

; 299  : 	if(error != CL_SUCCESS)

  00584	85 c0		 test	 eax, eax
  00586	74 15		 je	 SHORT $LN121@tick

; 300  : 	{
; 301  : 		GLWindow::instance->postError("Failed to write to buffer", "OpenCL buffer write error");

  00588	4c 8d 05 00 00
	00 00		 lea	 r8, OFFSET FLAT:$SG4294952787
  0058f	48 8d 15 00 00
	00 00		 lea	 rdx, OFFSET FLAT:$SG4294952786
  00596	e8 00 00 00 00	 call	 ?postError@GLWindow@@QEAAXPEBD0@Z ; GLWindow::postError

; 302  : 		return false;

  0059b	eb 10		 jmp	 SHORT $LN123@tick
$LN121@tick:

; 303  : 	}
; 304  : 
; 305  : 	queue.addSyncEvent(event);

  0059d	48 8b 55 20	 mov	 rdx, QWORD PTR event$12[rbp-256]
  005a1	48 8d 0d 00 00
	00 00		 lea	 rcx, OFFSET FLAT:?commandQueue@@3VCommandQueue@cl@@A ; commandQueue
  005a8	e8 00 00 00 00	 call	 ?addSyncEvent@CommandQueue@cl@@QEAAXPEAU_cl_event@@@Z ; cl::CommandQueue::addSyncEvent
$LN123@tick:
; File c:\users\glenn\documents\github\wind\project\wind\wind\renderthread.cpp

; 80   : 	const size_t global_ws_1[] = {renderDistance * 2 + 2, renderDistance * 2 + 2, renderDistance * 2 + 2};

  005ad	48 c7 85 b0 05
	00 00 16 00 00
	00		 mov	 QWORD PTR global_ws_1$[rbp-256], 22
  005b8	48 c7 85 b8 05
	00 00 16 00 00
	00		 mov	 QWORD PTR global_ws_1$[rbp-248], 22
  005c3	48 c7 85 c0 05
	00 00 16 00 00
	00		 mov	 QWORD PTR global_ws_1$[rbp-240], 22

; 81   : 	const size_t local_ws_1[] = {1, 1, 1};

  005ce	4c 89 b5 c8 05
	00 00		 mov	 QWORD PTR local_ws_1$[rbp-256], r14
  005d5	4c 89 b5 d0 05
	00 00		 mov	 QWORD PTR local_ws_1$[rbp-248], r14
  005dc	4c 89 b5 d8 05
	00 00		 mov	 QWORD PTR local_ws_1$[rbp-240], r14
; File c:\program files (x86)\microsoft visual studio 11.0\vc\include\xstring

; 2265 : 		this->_Myres = this->_BUF_SIZE - 1;

  005e3	48 c7 45 68 0f
	00 00 00	 mov	 QWORD PTR $T15[rbp-232], 15

; 1145 : 		}
; 1146 : 
; 1147 : 	_Myt& assign(size_type _Count, _Elem _Ch)
; 1148 : 		{	// assign _Count * _Ch
; 1149 : 		if (_Count == npos)
; 1150 : 			_Xlen();	// result too long
; 1151 : 
; 1152 : 		if (_Grow(_Count))
; 1153 : 			{	// make room and assign new stuff
; 1154 : 			_Chassign(0, _Count, _Ch);
; 1155 : 			_Eos(_Count);
; 1156 : 			}
; 1157 : 		return (*this);
; 1158 : 		}
; 1159 : 
; 1160 : 	template<class _Iter>
; 1161 : 		typename enable_if<_Is_iterator<_Iter>::value,
; 1162 : 			_Myt&>::type
; 1163 : 		assign(_Iter _First, _Iter _Last)
; 1164 : 		{	// assign [First, _Last), input iterators
; 1165 : 		return (replace(begin(), end(), _First, _Last));
; 1166 : 		}
; 1167 : 
; 1168 : 	_Myt& assign(const_pointer _First, const_pointer _Last)
; 1169 : 		{	// assign [First, _Last), const pointers
; 1170 : 		return (replace(begin(), end(), _First, _Last));
; 1171 : 		}
; 1172 : 
; 1173 : 	_Myt& assign(const_iterator _First, const_iterator _Last)
; 1174 : 		{	// assign [First, _Last), const_iterators
; 1175 : 		return (replace(begin(), end(), _First, _Last));
; 1176 : 		}
; 1177 : 
; 1178 : 	_Myt& insert(size_type _Off, const _Myt& _Right)
; 1179 : 		{	// insert _Right at _Off
; 1180 : 		return (insert(_Off, _Right, 0, npos));
; 1181 : 		}
; 1182 : 
; 1183 : 	_Myt& insert(size_type _Off,
; 1184 : 		const _Myt& _Right, size_type _Roff, size_type _Count)
; 1185 : 		{	// insert _Right [_Roff, _Roff + _Count) at _Off
; 1186 : 		if (this->_Mysize < _Off || _Right.size() < _Roff)
; 1187 : 			_Xran();	// _Off or _Roff off end
; 1188 : 		size_type _Num = _Right.size() - _Roff;
; 1189 : 		if (_Num < _Count)
; 1190 : 			_Count = _Num;	// trim _Count to size
; 1191 : 		if (npos - this->_Mysize <= _Count)
; 1192 : 			_Xlen();	// result too long
; 1193 : 
; 1194 : 		if (0 < _Count && _Grow(_Num = this->_Mysize + _Count))
; 1195 : 			{	// make room and insert new stuff
; 1196 : 			_Traits::move(this->_Myptr() + _Off + _Count,
; 1197 : 				this->_Myptr() + _Off,
; 1198 : 				this->_Mysize - _Off);	// empty out hole
; 1199 : 			if (this == &_Right)
; 1200 : 				_Traits::move(this->_Myptr() + _Off,
; 1201 : 					this->_Myptr() + (_Off < _Roff ? _Roff + _Count : _Roff),
; 1202 : 						_Count);	// substring
; 1203 : 			else
; 1204 : 				_Traits::copy(this->_Myptr() + _Off,
; 1205 : 					_Right._Myptr() + _Roff, _Count);	// fill hole
; 1206 : 			_Eos(_Num);
; 1207 : 			}
; 1208 : 		return (*this);
; 1209 : 		}
; 1210 : 
; 1211 : 	_Myt& insert(size_type _Off,
; 1212 : 		const _Elem *_Ptr, size_type _Count)
; 1213 : 		{	// insert [_Ptr, _Ptr + _Count) at _Off
; 1214 :  #if _ITERATOR_DEBUG_LEVEL == 2
; 1215 : 		if (_Count != 0)
; 1216 : 			_DEBUG_POINTER(_Ptr);
; 1217 :  #endif /* _ITERATOR_DEBUG_LEVEL == 2 */
; 1218 : 
; 1219 : 		if (_Inside(_Ptr))
; 1220 : 			return (insert(_Off, *this,
; 1221 : 				_Ptr - this->_Myptr(), _Count));	// substring
; 1222 : 		if (this->_Mysize < _Off)
; 1223 : 			_Xran();	// _Off off end
; 1224 : 		if (npos - this->_Mysize <= _Count)
; 1225 : 			_Xlen();	// result too long
; 1226 : 		size_type _Num;
; 1227 : 		if (0 < _Count && _Grow(_Num = this->_Mysize + _Count))
; 1228 : 			{	// make room and insert new stuff
; 1229 : 			_Traits::move(this->_Myptr() + _Off + _Count,
; 1230 : 				this->_Myptr() + _Off,
; 1231 : 				this->_Mysize - _Off);	// empty out hole
; 1232 : 			_Traits::copy(this->_Myptr() + _Off, _Ptr, _Count);	// fill hole
; 1233 : 			_Eos(_Num);
; 1234 : 			}
; 1235 : 		return (*this);
; 1236 : 		}
; 1237 : 
; 1238 : 	_Myt& insert(size_type _Off, const _Elem *_Ptr)
; 1239 : 		{	// insert [_Ptr, <null>) at _Off
; 1240 : 		_DEBUG_POINTER(_Ptr);
; 1241 : 		return (insert(_Off, _Ptr, _Traits::length(_Ptr)));
; 1242 : 		}
; 1243 : 
; 1244 : 	_Myt& insert(size_type _Off,
; 1245 : 		size_type _Count, _Elem _Ch)
; 1246 : 		{	// insert _Count * _Ch at _Off
; 1247 : 		if (this->_Mysize < _Off)
; 1248 : 			_Xran();	// _Off off end
; 1249 : 		if (npos - this->_Mysize <= _Count)
; 1250 : 			_Xlen();	// result too long
; 1251 : 		size_type _Num;
; 1252 : 		if (0 < _Count && _Grow(_Num = this->_Mysize + _Count))
; 1253 : 			{	// make room and insert new stuff
; 1254 : 			_Traits::move(this->_Myptr() + _Off + _Count,
; 1255 : 				this->_Myptr() + _Off,
; 1256 : 				this->_Mysize - _Off);	// empty out hole
; 1257 : 			_Chassign(_Off, _Count, _Ch);	// fill hole
; 1258 : 			_Eos(_Num);
; 1259 : 			}
; 1260 : 		return (*this);
; 1261 : 		}
; 1262 : 
; 1263 : 	iterator insert(const_iterator _Where)
; 1264 : 		{	// insert <null> at _Where
; 1265 : 		return (insert(_Where, _Elem()));
; 1266 : 		}
; 1267 : 
; 1268 : 	iterator insert(const_iterator _Where, _Elem _Ch)
; 1269 : 		{	// insert _Ch at _Where
; 1270 : 		size_type _Off = _Pdif(_Where, begin());
; 1271 : 		insert(_Off, 1, _Ch);
; 1272 : 		return (begin() + _Off);
; 1273 : 		}
; 1274 : 
; 1275 : 	iterator insert(const_iterator _Where, size_type _Count, _Elem _Ch)
; 1276 : 		{	// insert _Count * _Elem at _Where
; 1277 : 		size_type _Off = _Pdif(_Where, begin());
; 1278 : 		insert(_Off, _Count, _Ch);
; 1279 : 		return (begin() + _Off);
; 1280 : 		}
; 1281 : 
; 1282 : 	template<class _Iter>
; 1283 : 		typename enable_if<_Is_iterator<_Iter>::value,
; 1284 : 			iterator>::type
; 1285 : 		insert(const_iterator _Where, _Iter _First, _Iter _Last)
; 1286 : 		{	// insert [_First, _Last) at _Where, input iterators
; 1287 : 		size_type _Off = _Pdif(_Where, begin());
; 1288 : 		replace(_Where, _Where, _First, _Last);
; 1289 : 		return (begin() + _Off);
; 1290 : 		}
; 1291 : 
; 1292 : 	iterator insert(const_iterator _Where,
; 1293 : 		const_pointer _First, const_pointer _Last)
; 1294 : 		{	// insert [_First, _Last) at _Where, const pointers
; 1295 : 		size_type _Off = _Pdif(_Where, begin());
; 1296 : 		replace(_Where, _Where, _First, _Last);
; 1297 : 		return (begin() + _Off);
; 1298 : 		}
; 1299 : 
; 1300 : 	iterator insert(const_iterator _Where,
; 1301 : 		const_iterator _First, const_iterator _Last)
; 1302 : 		{	// insert [_First, _Last) at _Where, const_iterators
; 1303 : 		size_type _Off = _Pdif(_Where, begin());
; 1304 : 		replace(_Where, _Where, _First, _Last);
; 1305 : 		return (begin() + _Off);
; 1306 : 		}
; 1307 : 
; 1308 : 	_Myt& erase(size_type _Off = 0)
; 1309 : 		{	// erase elements [_Off, ...)
; 1310 : 		if (this->_Mysize < _Off)
; 1311 : 			_Xran();	// _Off off end
; 1312 : 		_Eos(_Off);
; 1313 : 		return (*this);
; 1314 : 		}
; 1315 : 
; 1316 : 	_Myt& erase(size_type _Off, size_type _Count)
; 1317 : 		{	// erase elements [_Off, _Off + _Count)
; 1318 : 		if (this->_Mysize < _Off)
; 1319 : 			_Xran();	// _Off off end
; 1320 : 		if (this->_Mysize - _Off <= _Count)
; 1321 : 			_Eos(_Off);	// erase elements [_Off, ...)
; 1322 : 		else if (0 < _Count)
; 1323 : 			{	// move elements down
; 1324 : 			value_type *_Ptr = this->_Myptr() + _Off;
; 1325 : 			size_type _Newsize = this->_Mysize - _Count;
; 1326 : 			_Traits::move(_Ptr, _Ptr + _Count, _Newsize - _Off);
; 1327 : 			_Eos(_Newsize);
; 1328 : 			}
; 1329 : 		return (*this);
; 1330 : 		}
; 1331 : 
; 1332 : 	iterator erase(const_iterator _Where)
; 1333 : 		{	// erase element at _Where
; 1334 : 		size_type _Count = _Pdif(_Where, begin());
; 1335 : 		erase(_Count, 1);
; 1336 : 		return (_STRING_ITERATOR(this->_Myptr() + _Count));
; 1337 : 		}
; 1338 : 
; 1339 : 	iterator erase(const_iterator _First, const_iterator _Last)
; 1340 : 		{	// erase substring [_First, _Last)
; 1341 : 		_DEBUG_RANGE(_First, _Last);
; 1342 : 		size_type _Count = _Pdif(_First, begin());
; 1343 : 		erase(_Count, _Pdif(_Last, _First));
; 1344 : 		return (_STRING_ITERATOR(this->_Myptr() + _Count));
; 1345 : 		}
; 1346 : 
; 1347 : 	void clear() _NOEXCEPT
; 1348 : 		{	// erase all
; 1349 : 		_Eos(0);
; 1350 : 		}
; 1351 : 
; 1352 : 	_Myt& replace(size_type _Off, size_type _N0, const _Myt& _Right)
; 1353 : 		{	// replace [_Off, _Off + _N0) with _Right
; 1354 : 		return (replace(_Off, _N0, _Right, 0, npos));
; 1355 : 		}
; 1356 : 
; 1357 : 	_Myt& replace(size_type _Off,
; 1358 : 		size_type _N0, const _Myt& _Right, size_type _Roff, size_type _Count)
; 1359 : 		{	// replace [_Off, _Off + _N0) with _Right [_Roff, _Roff + _Count)
; 1360 : 		if (this->_Mysize < _Off || _Right.size() < _Roff)
; 1361 : 			_Xran();	// _Off or _Roff off end
; 1362 : 		if (this->_Mysize - _Off < _N0)
; 1363 : 			_N0 = this->_Mysize - _Off;	// trim _N0 to size
; 1364 : 		size_type _Num = _Right.size() - _Roff;
; 1365 : 		if (_Num < _Count)
; 1366 : 			_Count = _Num;	// trim _Count to size
; 1367 : 		if (npos - _Count <= this->_Mysize - _N0)
; 1368 : 			_Xlen();	// result too long
; 1369 : 
; 1370 : 		size_type _Nm = this->_Mysize - _N0 - _Off;	// length of kept tail
; 1371 : 		size_type _Newsize = this->_Mysize + _Count - _N0;
; 1372 : 		if (this->_Mysize < _Newsize)
; 1373 : 			_Grow(_Newsize);
; 1374 : 
; 1375 : 		if (this != &_Right)
; 1376 : 			{	// no overlap, just move down and copy in new stuff
; 1377 : 			_Traits::move(this->_Myptr() + _Off + _Count,
; 1378 : 				this->_Myptr() + _Off + _N0, _Nm);	// empty hole
; 1379 : 			_Traits::copy(this->_Myptr() + _Off,
; 1380 : 				_Right._Myptr() + _Roff, _Count);	// fill hole
; 1381 : 			}
; 1382 : 		else if (_Count <= _N0)
; 1383 : 			{	// hole doesn't get larger, just copy in substring
; 1384 : 			_Traits::move(this->_Myptr() + _Off,
; 1385 : 				this->_Myptr() + _Roff, _Count);	// fill hole
; 1386 : 			_Traits::move(this->_Myptr() + _Off + _Count,
; 1387 : 				this->_Myptr() + _Off + _N0, _Nm);	// move tail down
; 1388 : 			}
; 1389 : 		else if (_Roff <= _Off)
; 1390 : 			{	// hole gets larger, substring begins before hole
; 1391 : 			_Traits::move(this->_Myptr() + _Off + _Count,
; 1392 : 				this->_Myptr() + _Off + _N0, _Nm);	// move tail down
; 1393 : 			_Traits::move(this->_Myptr() + _Off,
; 1394 : 				this->_Myptr() + _Roff, _Count);	// fill hole
; 1395 : 			}
; 1396 : 		else if (_Off + _N0 <= _Roff)
; 1397 : 			{	// hole gets larger, substring begins after hole
; 1398 : 			_Traits::move(this->_Myptr() + _Off + _Count,
; 1399 : 				this->_Myptr() + _Off + _N0, _Nm);	// move tail down
; 1400 : 			_Traits::move(this->_Myptr() + _Off,
; 1401 : 				this->_Myptr() + (_Roff + _Count - _N0),
; 1402 : 				_Count);	// fill hole
; 1403 : 			}
; 1404 : 		else
; 1405 : 			{	// hole gets larger, substring begins in hole
; 1406 : 			_Traits::move(this->_Myptr() + _Off,
; 1407 : 				this->_Myptr() + _Roff, _N0);	// fill old hole
; 1408 : 			_Traits::move(this->_Myptr() + _Off + _Count,
; 1409 : 				this->_Myptr() + _Off + _N0, _Nm);	// move tail down
; 1410 : 			_Traits::move(this->_Myptr() + _Off + _N0,
; 1411 : 				this->_Myptr() + _Roff + _Count,
; 1412 : 				_Count - _N0);	// fill rest of new hole
; 1413 : 			}
; 1414 : 
; 1415 : 		_Eos(_Newsize);
; 1416 : 		return (*this);
; 1417 : 		}
; 1418 : 
; 1419 : 	_Myt& replace(size_type _Off,
; 1420 : 		size_type _N0, const _Elem *_Ptr, size_type _Count)
; 1421 : 		{	// replace [_Off, _Off + _N0) with [_Ptr, _Ptr + _Count)
; 1422 :  #if _ITERATOR_DEBUG_LEVEL == 2
; 1423 : 		if (_Count != 0)
; 1424 : 			_DEBUG_POINTER(_Ptr);
; 1425 :  #endif /* _ITERATOR_DEBUG_LEVEL == 2 */
; 1426 : 
; 1427 : 		if (_Inside(_Ptr))
; 1428 : 			return (replace(_Off, _N0, *this,
; 1429 : 				_Ptr - this->_Myptr(),
; 1430 : 				_Count));	// substring, replace carefully
; 1431 : 		if (this->_Mysize < _Off)
; 1432 : 			_Xran();	// _Off off end
; 1433 : 		if (this->_Mysize - _Off < _N0)
; 1434 : 			_N0 = this->_Mysize - _Off;	// trim _N0 to size
; 1435 : 		if (npos - _Count <= this->_Mysize - _N0)
; 1436 : 			_Xlen();	// result too long
; 1437 : 		size_type _Nm = this->_Mysize - _N0 - _Off;
; 1438 : 
; 1439 : 		if (_Count < _N0)
; 1440 : 			_Traits::move(this->_Myptr() + _Off + _Count,
; 1441 : 				this->_Myptr() + _Off + _N0,
; 1442 : 				_Nm);	// smaller hole, move tail up
; 1443 : 		size_type _Num;
; 1444 : 		if ((0 < _Count || 0 < _N0)
; 1445 : 			&& _Grow(_Num = this->_Mysize + _Count - _N0))
; 1446 : 			{	// make room and rearrange
; 1447 : 			if (_N0 < _Count)
; 1448 : 				_Traits::move(this->_Myptr() + _Off + _Count,
; 1449 : 					this->_Myptr() + _Off + _N0, _Nm);	// move tail down
; 1450 : 			_Traits::copy(this->_Myptr() + _Off, _Ptr, _Count);	// fill hole
; 1451 : 			_Eos(_Num);
; 1452 : 			}
; 1453 : 		return (*this);
; 1454 : 		}
; 1455 : 
; 1456 : 	_Myt& replace(size_type _Off, size_type _N0, const _Elem *_Ptr)
; 1457 : 		{	// replace [_Off, _Off + _N0) with [_Ptr, <null>)
; 1458 : 		_DEBUG_POINTER(_Ptr);
; 1459 : 		return (replace(_Off, _N0, _Ptr, _Traits::length(_Ptr)));
; 1460 : 		}
; 1461 : 
; 1462 : 	_Myt& replace(size_type _Off,
; 1463 : 		size_type _N0, size_type _Count, _Elem _Ch)
; 1464 : 		{	// replace [_Off, _Off + _N0) with _Count * _Ch
; 1465 : 		if (this->_Mysize < _Off)
; 1466 : 			_Xran();	// _Off off end
; 1467 : 		if (this->_Mysize - _Off < _N0)
; 1468 : 			_N0 = this->_Mysize - _Off;	// trim _N0 to size
; 1469 : 		if (npos - _Count <= this->_Mysize - _N0)
; 1470 : 			_Xlen();	// result too long
; 1471 : 		size_type _Nm = this->_Mysize - _N0 - _Off;
; 1472 : 
; 1473 : 		if (_Count < _N0)
; 1474 : 			_Traits::move(this->_Myptr() + _Off + _Count,
; 1475 : 				this->_Myptr() + _Off + _N0,
; 1476 : 				_Nm);	// smaller hole, move tail up
; 1477 : 		size_type _Num;
; 1478 : 		if ((0 < _Count || 0 < _N0)
; 1479 : 			&& _Grow(_Num = this->_Mysize + _Count - _N0))
; 1480 : 			{	// make room and rearrange
; 1481 : 			if (_N0 < _Count)
; 1482 : 				_Traits::move(this->_Myptr() + _Off + _Count,
; 1483 : 					this->_Myptr() + _Off + _N0, _Nm);	// move tail down
; 1484 : 			_Chassign(_Off, _Count, _Ch);	// fill hole
; 1485 : 			_Eos(_Num);
; 1486 : 			}
; 1487 : 		return (*this);
; 1488 : 		}
; 1489 : 
; 1490 : 	_Myt& replace(const_iterator _First, const_iterator _Last,
; 1491 : 		const _Myt& _Right)
; 1492 : 		{	// replace [_First, _Last) with _Right
; 1493 : 		return (replace(
; 1494 : 			_Pdif(_First, begin()), _Pdif(_Last, _First), _Right));
; 1495 : 		}
; 1496 : 
; 1497 : 	_Myt& replace(const_iterator _First, const_iterator _Last,
; 1498 : 		const _Elem *_Ptr, size_type _Count)
; 1499 : 		{	// replace [_First, _Last) with [_Ptr, _Ptr + _Count)
; 1500 : 		return (replace(
; 1501 : 			_Pdif(_First, begin()), _Pdif(_Last, _First), _Ptr, _Count));
; 1502 : 		}
; 1503 : 
; 1504 : 	_Myt& replace(const_iterator _First, const_iterator _Last,
; 1505 : 		const _Elem *_Ptr)
; 1506 : 		{	// replace [_First, _Last) with [_Ptr, <null>)
; 1507 : 		return (replace(
; 1508 : 			_Pdif(_First, begin()), _Pdif(_Last, _First), _Ptr));
; 1509 : 		}
; 1510 : 
; 1511 : 	_Myt& replace(const_iterator _First, const_iterator _Last,
; 1512 : 		size_type _Count, _Elem _Ch)
; 1513 : 		{	// replace [_First, _Last) with _Count * _Ch
; 1514 : 		return (replace(
; 1515 : 			_Pdif(_First, begin()), _Pdif(_Last, _First), _Count, _Ch));
; 1516 : 		}
; 1517 : 
; 1518 : 	template<class _Iter>
; 1519 : 		typename enable_if<_Is_iterator<_Iter>::value,
; 1520 : 			_Myt&>::type
; 1521 : 		replace(const_iterator _First, const_iterator _Last,
; 1522 : 			_Iter _First2, _Iter _Last2)
; 1523 : 		{	// replace [_First, _Last) with [_First2, _Last2), input iterators
; 1524 : 		_Myt _Right(_First2, _Last2);
; 1525 : 		replace(_First, _Last, _Right);
; 1526 : 		return (*this);
; 1527 : 		}
; 1528 : 
; 1529 : 	_Myt& replace(const_iterator _First, const_iterator _Last,
; 1530 : 		const_pointer _First2, const_pointer _Last2)
; 1531 : 		{	// replace [_First, _Last) with [_First2, _Last2), const pointers
; 1532 : 		if (_First2 == _Last2)
; 1533 : 			erase(_Pdif(_First, begin()), _Pdif(_Last, _First));
; 1534 : 		else
; 1535 : 			replace(_Pdif(_First, begin()), _Pdif(_Last, _First),
; 1536 : 				&*_First2, _Last2 - _First2);
; 1537 : 		return (*this);
; 1538 : 		}
; 1539 : 
; 1540 : 	_Myt& replace(const_iterator _First, const_iterator _Last,
; 1541 : 		pointer _First2, pointer _Last2)
; 1542 : 		{	// replace [_First, _Last) with [_First2, _Last2), const pointers
; 1543 : 		if (_First2 == _Last2)
; 1544 : 			erase(_Pdif(_First, begin()), _Pdif(_Last, _First));
; 1545 : 		else
; 1546 : 			replace(_Pdif(_First, begin()), _Pdif(_Last, _First),
; 1547 : 				&*_First2, _Last2 - _First2);
; 1548 : 		return (*this);
; 1549 : 		}
; 1550 : 
; 1551 : 	_Myt& replace(const_iterator _First, const_iterator _Last,
; 1552 : 		const_iterator _First2, const_iterator _Last2)
; 1553 : 		{	// replace [_First, _Last) with [_First2, _Last2), const_iterators
; 1554 : 		if (_First2 == _Last2)
; 1555 : 			erase(_Pdif(_First, begin()), _Pdif(_Last, _First));
; 1556 : 		else
; 1557 : 			replace(_Pdif(_First, begin()), _Pdif(_Last, _First),
; 1558 : 				&*_First2, _Last2 - _First2);
; 1559 : 		return (*this);
; 1560 : 		}
; 1561 : 
; 1562 : 	_Myt& replace(const_iterator _First, const_iterator _Last,
; 1563 : 		iterator _First2, iterator _Last2)
; 1564 : 		{	// replace [_First, _Last) with [_First2, _Last2), const_iterators
; 1565 : 		if (_First2 == _Last2)
; 1566 : 			erase(_Pdif(_First, begin()), _Pdif(_Last, _First));
; 1567 : 		else
; 1568 : 			replace(_Pdif(_First, begin()), _Pdif(_Last, _First),
; 1569 : 				&*_First2, _Last2 - _First2);
; 1570 : 		return (*this);
; 1571 : 		}
; 1572 : 
; 1573 : 	iterator begin() _NOEXCEPT
; 1574 : 		{	// return iterator for beginning of mutable sequence
; 1575 : 		return (_STRING_ITERATOR(this->_Myptr()));
; 1576 : 		}
; 1577 : 
; 1578 : 	const_iterator begin() const _NOEXCEPT
; 1579 : 		{	// return iterator for beginning of nonmutable sequence
; 1580 : 		return (_STRING_CONST_ITERATOR(this->_Myptr()));
; 1581 : 		}
; 1582 : 
; 1583 : 	iterator end() _NOEXCEPT
; 1584 : 		{	// return iterator for end of mutable sequence
; 1585 : 		return (_STRING_ITERATOR(this->_Myptr() + this->_Mysize));
; 1586 : 		}
; 1587 : 
; 1588 : 	const_iterator end() const _NOEXCEPT
; 1589 : 		{	// return iterator for end of nonmutable sequence
; 1590 : 		return (_STRING_CONST_ITERATOR(this->_Myptr() + this->_Mysize));
; 1591 : 		}
; 1592 : 
; 1593 : 	reverse_iterator rbegin() _NOEXCEPT
; 1594 : 		{	// return iterator for beginning of reversed mutable sequence
; 1595 : 		return (reverse_iterator(end()));
; 1596 : 		}
; 1597 : 
; 1598 : 	const_reverse_iterator rbegin() const _NOEXCEPT
; 1599 : 		{	// return iterator for beginning of reversed nonmutable sequence
; 1600 : 		return (const_reverse_iterator(end()));
; 1601 : 		}
; 1602 : 
; 1603 : 	reverse_iterator rend() _NOEXCEPT
; 1604 : 		{	// return iterator for end of reversed mutable sequence
; 1605 : 		return (reverse_iterator(begin()));
; 1606 : 		}
; 1607 : 
; 1608 : 	const_reverse_iterator rend() const _NOEXCEPT
; 1609 : 		{	// return iterator for end of reversed nonmutable sequence
; 1610 : 		return (const_reverse_iterator(begin()));
; 1611 : 		}
; 1612 : 
; 1613 :  #if _HAS_CPP0X
; 1614 : 	const_iterator cbegin() const _NOEXCEPT
; 1615 : 		{	// return iterator for beginning of nonmutable sequence
; 1616 : 		return (((const _Myt *)this)->begin());
; 1617 : 		}
; 1618 : 
; 1619 : 	const_iterator cend() const _NOEXCEPT
; 1620 : 		{	// return iterator for end of nonmutable sequence
; 1621 : 		return (((const _Myt *)this)->end());
; 1622 : 		}
; 1623 : 
; 1624 : 	const_reverse_iterator crbegin() const _NOEXCEPT
; 1625 : 		{	// return iterator for beginning of reversed nonmutable sequence
; 1626 : 		return (((const _Myt *)this)->rbegin());
; 1627 : 		}
; 1628 : 
; 1629 : 	const_reverse_iterator crend() const _NOEXCEPT
; 1630 : 		{	// return iterator for end of reversed nonmutable sequence
; 1631 : 		return (((const _Myt *)this)->rend());
; 1632 : 		}
; 1633 : 
; 1634 : 	void shrink_to_fit()
; 1635 : 		{	// reduce capacity
; 1636 : 		if ((size() | this->_ALLOC_MASK) < capacity())
; 1637 : 			{	// worth shrinking, do it
; 1638 : 			_Myt _Tmp(*this);
; 1639 : 			swap(_Tmp);
; 1640 : 			}
; 1641 : 		}
; 1642 :  #endif /* _HAS_CPP0X */
; 1643 : 
; 1644 : 	reference at(size_type _Off)
; 1645 : 		{	// subscript mutable sequence with checking
; 1646 : 		if (this->_Mysize <= _Off)
; 1647 : 			_Xran();	// _Off off end
; 1648 : 		return (this->_Myptr()[_Off]);
; 1649 : 		}
; 1650 : 
; 1651 : 	const_reference at(size_type _Off) const
; 1652 : 		{	// subscript nonmutable sequence with checking
; 1653 : 		if (this->_Mysize <= _Off)
; 1654 : 			_Xran();	// _Off off end
; 1655 : 		return (this->_Myptr()[_Off]);
; 1656 : 		}
; 1657 : 
; 1658 : 	reference operator[](size_type _Off)
; 1659 : 		{	// subscript mutable sequence
; 1660 :  #if _ITERATOR_DEBUG_LEVEL == 2
; 1661 : 		if (this->_Mysize < _Off)	// sic
; 1662 : 			_DEBUG_ERROR("string subscript out of range");
; 1663 : 
; 1664 :  #elif _ITERATOR_DEBUG_LEVEL == 1
; 1665 : 		_SCL_SECURE_VALIDATE_RANGE(_Off <= this->_Mysize);	// sic
; 1666 :  #endif /* _ITERATOR_DEBUG_LEVEL == 2 */
; 1667 : 
; 1668 : 		return (this->_Myptr()[_Off]);
; 1669 : 		}
; 1670 : 
; 1671 : 	const_reference operator[](size_type _Off) const
; 1672 : 		{	// subscript nonmutable sequence
; 1673 :  #if _ITERATOR_DEBUG_LEVEL == 2
; 1674 : 		if (this->_Mysize < _Off)	// sic
; 1675 : 			_DEBUG_ERROR("string subscript out of range");
; 1676 : 
; 1677 :  #elif _ITERATOR_DEBUG_LEVEL == 1
; 1678 : 		_SCL_SECURE_VALIDATE_RANGE(_Off <= this->_Mysize);	// sic
; 1679 :  #endif /* _ITERATOR_DEBUG_LEVEL == 2 */
; 1680 : 
; 1681 : 		return (this->_Myptr()[_Off]);
; 1682 : 		}
; 1683 : 
; 1684 : 	void push_back(_Elem _Ch)
; 1685 : 		{	// insert element at end
; 1686 : 		insert(end(), _Ch);
; 1687 : 		}
; 1688 : 
; 1689 :  #if _HAS_CPP0X
; 1690 : 	void pop_back()
; 1691 : 		{	// erase element at end
; 1692 : 		erase(this->_Mysize - 1);	// throws if _Mysize == 0
; 1693 : 		}
; 1694 : 
; 1695 : 	reference front()
; 1696 : 		{	// return first element of mutable sequence
; 1697 : 		return (*begin());
; 1698 : 		}
; 1699 : 
; 1700 : 	const_reference front() const
; 1701 : 		{	// return first element of nonmutable sequence
; 1702 : 		return (*begin());
; 1703 : 		}
; 1704 : 
; 1705 : 	reference back()
; 1706 : 		{	// return last element of mutable sequence
; 1707 : 		return (*(end() - 1));
; 1708 : 		}
; 1709 : 
; 1710 : 	const_reference back() const
; 1711 : 		{	// return last element of nonmutable sequence
; 1712 : 		return (*(end() - 1));
; 1713 : 		}
; 1714 :  #endif /* _HAS_CPP0X */
; 1715 : 
; 1716 : 	const _Elem *c_str() const _NOEXCEPT
; 1717 : 		{	// return pointer to null-terminated nonmutable array
; 1718 : 		return (this->_Myptr());
; 1719 : 		}
; 1720 : 
; 1721 : 	const _Elem *data() const _NOEXCEPT
; 1722 : 		{	// return pointer to nonmutable array
; 1723 : 		return (c_str());
; 1724 : 		}
; 1725 : 
; 1726 : 	size_type length() const _NOEXCEPT
; 1727 : 		{	// return length of sequence
; 1728 : 		return (this->_Mysize);
; 1729 : 		}
; 1730 : 
; 1731 : 	size_type size() const _NOEXCEPT
; 1732 : 		{	// return length of sequence
; 1733 : 		return (this->_Mysize);
; 1734 : 		}
; 1735 : 
; 1736 : 	size_type max_size() const _NOEXCEPT
; 1737 : 		{	// return maximum possible length of sequence
; 1738 : 		size_type _Num = this->_Getal().max_size();
; 1739 : 		return (_Num <= 1 ? 1 : _Num - 1);
; 1740 : 		}
; 1741 : 
; 1742 : 	void resize(size_type _Newsize)
; 1743 : 		{	// determine new length, padding with null elements as needed
; 1744 : 		resize(_Newsize, _Elem());
; 1745 : 		}
; 1746 : 
; 1747 : 	void resize(size_type _Newsize, _Elem _Ch)
; 1748 : 		{	// determine new length, padding with _Ch elements as needed
; 1749 : 		if (_Newsize <= this->_Mysize)
; 1750 : 			_Eos(_Newsize);
; 1751 : 		else
; 1752 : 			append(_Newsize - this->_Mysize, _Ch);
; 1753 : 		}
; 1754 : 
; 1755 : 	size_type capacity() const _NOEXCEPT
; 1756 : 		{	// return current length of allocated storage
; 1757 : 		return (this->_Myres);
; 1758 : 		}
; 1759 : 
; 1760 : 	void reserve(size_type _Newcap = 0)
; 1761 : 		{	// determine new minimum length of allocated storage
; 1762 : 		if (this->_Mysize <= _Newcap && this->_Myres != _Newcap)
; 1763 : 			{	// change reservation
; 1764 : 			size_type _Size = this->_Mysize;
; 1765 : 			if (_Grow(_Newcap, true))
; 1766 : 				_Eos(_Size);
; 1767 : 			}
; 1768 : 		}
; 1769 : 
; 1770 : 	bool empty() const _NOEXCEPT
; 1771 : 		{	// test if sequence is empty
; 1772 : 		return (this->_Mysize == 0);
; 1773 : 		}
; 1774 : 
; 1775 : 	_SCL_INSECURE_DEPRECATE
; 1776 : 
; 1777 : 	size_type copy(_Elem *_Ptr,
; 1778 : 		size_type _Count, size_type _Off = 0) const
; 1779 : 		{	// copy [_Off, _Off + _Count) to [_Ptr, _Ptr + _Count)
; 1780 :  #if _ITERATOR_DEBUG_LEVEL == 2
; 1781 : 		if (_Count != 0)
; 1782 : 			_DEBUG_POINTER(_Ptr);
; 1783 :  #endif /* _ITERATOR_DEBUG_LEVEL == 2 */
; 1784 : 
; 1785 : 		if (this->_Mysize < _Off)
; 1786 : 			_Xran();	// _Off off end
; 1787 : 		if (this->_Mysize - _Off < _Count)
; 1788 : 			_Count = this->_Mysize - _Off;
; 1789 : 		_Traits::copy(_Ptr, this->_Myptr() + _Off, _Count);
; 1790 : 		return (_Count);
; 1791 : 		}
; 1792 : 
; 1793 : 	size_type _Copy_s(_Elem *_Dest, size_type _Dest_size,
; 1794 : 		size_type _Count, size_type _Off = 0) const
; 1795 : 		{	// copy [_Off, _Off + _Count) to [_Dest, _Dest + _Count)
; 1796 :  #if _ITERATOR_DEBUG_LEVEL == 2
; 1797 : 		if (_Count != 0)
; 1798 : 			_DEBUG_POINTER(_Dest);
; 1799 :  #endif /* _ITERATOR_DEBUG_LEVEL == 2 */
; 1800 : 
; 1801 : 		if (this->_Mysize < _Off)
; 1802 : 			_Xran();	// _Off off end
; 1803 : 		if (this->_Mysize - _Off < _Count)
; 1804 : 			_Count = this->_Mysize - _Off;
; 1805 : 		_Traits::_Copy_s(_Dest, _Dest_size, this->_Myptr() + _Off, _Count);
; 1806 : 		return (_Count);
; 1807 : 		}
; 1808 : 
; 1809 : 	void _Swap_bx(_Myt& _Right)
; 1810 : 		{	// exchange _Bx with _Right._Bx
; 1811 : 		if (this->_BUF_SIZE <= this->_Myres)
; 1812 : 			if (this->_BUF_SIZE <= _Right._Myres)
; 1813 : 				_Swap_adl(this->_Bx._Ptr, _Right._Bx._Ptr);
; 1814 : 			else
; 1815 : 				{	// swap large with small
; 1816 : 				pointer _Ptr = this->_Bx._Ptr;
; 1817 : 				this->_Getal().destroy(&this->_Bx._Ptr);
; 1818 : 				_Traits::copy(this->_Bx._Buf,
; 1819 : 					_Right._Bx._Buf, _Right._Mysize + 1);
; 1820 : 				this->_Getal().construct(&_Right._Bx._Ptr, _Ptr);
; 1821 : 				}
; 1822 : 		else
; 1823 : 			if (_Right._Myres < this->_BUF_SIZE)
; 1824 : 				_STD swap(this->_Bx._Buf, _Right._Bx._Buf);
; 1825 : 			else
; 1826 : 				{	// swap small with large
; 1827 : 				pointer _Ptr = _Right._Bx._Ptr;
; 1828 : 				this->_Getal().destroy(&_Right._Bx._Ptr);
; 1829 : 				_Traits::copy(_Right._Bx._Buf,
; 1830 : 					this->_Bx._Buf, this->_Mysize + 1);
; 1831 : 				this->_Getal().construct(&this->_Bx._Ptr, _Ptr);
; 1832 : 				}
; 1833 : 		}
; 1834 : 
; 1835 : 	void swap(_Myt& _Right)
; 1836 : 		{	// exchange contents with _Right
; 1837 : 		if (this == &_Right)
; 1838 : 			;	// same object, do nothing
; 1839 : 		else if (this->_Getal() == _Right._Getal())
; 1840 : 			{	// same allocator, swap control information
; 1841 : 			this->_Swap_all(_Right);
; 1842 : 			_Swap_bx(_Right);
; 1843 : 			_STD swap(this->_Mysize, _Right._Mysize);
; 1844 : 			_STD swap(this->_Myres, _Right._Myres);
; 1845 : 			}
; 1846 : 
; 1847 :  #if _HAS_CPP0X
; 1848 : 		else if (_Alty::propagate_on_container_swap::value)
; 1849 : 			{	// swap allocators and control information
; 1850 : 			this->_Swap_alloc(_Right);
; 1851 : 			_Swap_bx(_Right);
; 1852 : 			_STD swap(this->_Bx, _Right._Bx);	// pointer bitwise copyable?
; 1853 : 			_STD swap(this->_Mysize, _Right._Mysize);
; 1854 : 			_STD swap(this->_Myres, _Right._Myres);
; 1855 : 			}
; 1856 :  #endif /* _HAS_CPP0X */
; 1857 : 
; 1858 : 		else
; 1859 : 			{	// different allocator, do multiple assigns
; 1860 : 			_Myt _Tmp = *this;
; 1861 : 
; 1862 : 			*this = _Right;
; 1863 : 			_Right = _Tmp;
; 1864 : 			}
; 1865 : 		}
; 1866 : 
; 1867 : 	size_type find(const _Myt& _Right, size_type _Off = 0) const _NOEXCEPT
; 1868 : 		{	// look for _Right beginning at or after _Off
; 1869 : 		return (find(_Right._Myptr(), _Off, _Right.size()));
; 1870 : 		}
; 1871 : 
; 1872 : 	size_type find(const _Elem *_Ptr,
; 1873 : 		size_type _Off, size_type _Count) const
; 1874 : 		{	// look for [_Ptr, _Ptr + _Count) beginning at or after _Off
; 1875 :  #if _ITERATOR_DEBUG_LEVEL == 2
; 1876 : 		if (_Count != 0)
; 1877 : 			_DEBUG_POINTER(_Ptr);
; 1878 :  #endif /* _ITERATOR_DEBUG_LEVEL == 2 */
; 1879 : 
; 1880 : 		if (_Count == 0 && _Off <= this->_Mysize)
; 1881 : 			return (_Off);	// null string always matches (if inside string)
; 1882 : 
; 1883 : 		size_type _Nm;
; 1884 : 		if (_Off < this->_Mysize && _Count <= (_Nm = this->_Mysize - _Off))
; 1885 : 			{	// room for match, look for it
; 1886 : 			const _Elem *_Uptr, *_Vptr;
; 1887 : 			for (_Nm -= _Count - 1, _Vptr = this->_Myptr() + _Off;
; 1888 : 				(_Uptr = _Traits::find(_Vptr, _Nm, *_Ptr)) != 0;
; 1889 : 				_Nm -= _Uptr - _Vptr + 1, _Vptr = _Uptr + 1)
; 1890 : 				if (_Traits::compare(_Uptr, _Ptr, _Count) == 0)
; 1891 : 					return (_Uptr - this->_Myptr());	// found a match
; 1892 : 			}
; 1893 : 
; 1894 : 		return (npos);	// no match
; 1895 : 		}
; 1896 : 
; 1897 : 	size_type find(const _Elem *_Ptr, size_type _Off = 0) const
; 1898 : 		{	// look for [_Ptr, <null>) beginning at or after _Off
; 1899 : 		_DEBUG_POINTER(_Ptr);
; 1900 : 		return (find(_Ptr, _Off, _Traits::length(_Ptr)));
; 1901 : 		}
; 1902 : 
; 1903 : 	size_type find(_Elem _Ch, size_type _Off = 0) const
; 1904 : 		{	// look for _Ch at or after _Off
; 1905 : 		return (find((const _Elem *)&_Ch, _Off, 1));
; 1906 : 		}
; 1907 : 
; 1908 : 	size_type rfind(const _Myt& _Right, size_type _Off = npos) const _NOEXCEPT
; 1909 : 		{	// look for _Right beginning before _Off
; 1910 : 		return (rfind(_Right._Myptr(), _Off, _Right.size()));
; 1911 : 		}
; 1912 : 
; 1913 : 	size_type rfind(const _Elem *_Ptr,
; 1914 : 		size_type _Off, size_type _Count) const
; 1915 : 		{	// look for [_Ptr, _Ptr + _Count) beginning before _Off
; 1916 :  #if _ITERATOR_DEBUG_LEVEL == 2
; 1917 : 		if (_Count != 0)
; 1918 : 			_DEBUG_POINTER(_Ptr);
; 1919 :  #endif /* _ITERATOR_DEBUG_LEVEL == 2 */
; 1920 : 
; 1921 : 		if (_Count == 0)
; 1922 : 			return (_Off < this->_Mysize ? _Off
; 1923 : 				: this->_Mysize);	// null always matches
; 1924 : 		if (_Count <= this->_Mysize)
; 1925 : 			{	// room for match, look for it
; 1926 : 			const _Elem *_Uptr = this->_Myptr() +
; 1927 : 				(_Off < this->_Mysize - _Count ? _Off
; 1928 : 					: this->_Mysize - _Count);
; 1929 : 			for (; ; --_Uptr)
; 1930 : 				if (_Traits::eq(*_Uptr, *_Ptr)
; 1931 : 					&& _Traits::compare(_Uptr, _Ptr, _Count) == 0)
; 1932 : 					return (_Uptr - this->_Myptr());	// found a match
; 1933 : 				else if (_Uptr == this->_Myptr())
; 1934 : 					break;	// at beginning, no more chance for match
; 1935 : 			}
; 1936 : 
; 1937 : 		return (npos);	// no match
; 1938 : 		}
; 1939 : 
; 1940 : 	size_type rfind(const _Elem *_Ptr, size_type _Off = npos) const
; 1941 : 		{	// look for [_Ptr, <null>) beginning before _Off
; 1942 : 		_DEBUG_POINTER(_Ptr);
; 1943 : 		return (rfind(_Ptr, _Off, _Traits::length(_Ptr)));
; 1944 : 		}
; 1945 : 
; 1946 : 	size_type rfind(_Elem _Ch, size_type _Off = npos) const
; 1947 : 		{	// look for _Ch before _Off
; 1948 : 		return (rfind((const _Elem *)&_Ch, _Off, 1));
; 1949 : 		}
; 1950 : 
; 1951 : 	size_type find_first_of(const _Myt& _Right,
; 1952 : 		size_type _Off = 0) const _NOEXCEPT
; 1953 : 		{	// look for one of _Right at or after _Off
; 1954 : 		return (find_first_of(_Right._Myptr(), _Off, _Right.size()));
; 1955 : 		}
; 1956 : 
; 1957 : 	size_type find_first_of(const _Elem *_Ptr,
; 1958 : 		size_type _Off, size_type _Count) const
; 1959 : 		{	// look for one of [_Ptr, _Ptr + _Count) at or after _Off
; 1960 :  #if _ITERATOR_DEBUG_LEVEL == 2
; 1961 : 		if (_Count != 0)
; 1962 : 			_DEBUG_POINTER(_Ptr);
; 1963 :  #endif /* _ITERATOR_DEBUG_LEVEL == 2 */
; 1964 : 
; 1965 : 		if (0 < _Count && _Off < this->_Mysize)
; 1966 : 			{	// room for match, look for it
; 1967 : 			const _Elem *const _Vptr = this->_Myptr() + this->_Mysize;
; 1968 : 			for (const _Elem *_Uptr = this->_Myptr() + _Off;
; 1969 : 				_Uptr < _Vptr; ++_Uptr)
; 1970 : 				if (_Traits::find(_Ptr, _Count, *_Uptr) != 0)
; 1971 : 					return (_Uptr - this->_Myptr());	// found a match
; 1972 : 			}
; 1973 : 
; 1974 : 		return (npos);	// no match
; 1975 : 		}
; 1976 : 
; 1977 : 	size_type find_first_of(const _Elem *_Ptr,
; 1978 : 		size_type _Off = 0) const
; 1979 : 		{	// look for one of [_Ptr, <null>) at or after _Off
; 1980 : 		_DEBUG_POINTER(_Ptr);
; 1981 : 		return (find_first_of(_Ptr, _Off, _Traits::length(_Ptr)));
; 1982 : 		}
; 1983 : 
; 1984 : 	size_type find_first_of(_Elem _Ch,
; 1985 : 		size_type _Off = 0) const
; 1986 : 		{	// look for _Ch at or after _Off
; 1987 : 		return (find((const _Elem *)&_Ch, _Off, 1));
; 1988 : 		}
; 1989 : 
; 1990 : 	size_type find_last_of(const _Myt& _Right,
; 1991 : 		size_type _Off = npos) const _NOEXCEPT
; 1992 : 		{	// look for one of _Right before _Off
; 1993 : 		return (find_last_of(_Right._Myptr(), _Off, _Right.size()));
; 1994 : 		}
; 1995 : 
; 1996 : 	size_type find_last_of(const _Elem *_Ptr,
; 1997 : 		size_type _Off, size_type _Count) const
; 1998 : 		{	// look for one of [_Ptr, _Ptr + _Count) before _Off
; 1999 :  #if _ITERATOR_DEBUG_LEVEL == 2
; 2000 : 		if (_Count != 0)
; 2001 : 			_DEBUG_POINTER(_Ptr);
; 2002 :  #endif /* _ITERATOR_DEBUG_LEVEL == 2 */
; 2003 : 
; 2004 : 		if (0 < _Count && 0 < this->_Mysize)
; 2005 : 			{	// worth searching, do it
; 2006 : 			const _Elem *_Uptr = this->_Myptr()
; 2007 : 				+ (_Off < this->_Mysize ? _Off : this->_Mysize - 1);
; 2008 : 			for (; ; --_Uptr)
; 2009 : 				if (_Traits::find(_Ptr, _Count, *_Uptr) != 0)
; 2010 : 					return (_Uptr - this->_Myptr());	// found a match
; 2011 : 				else if (_Uptr == this->_Myptr())
; 2012 : 					break;	// at beginning, no more chance for match
; 2013 : 			}
; 2014 : 
; 2015 : 		return (npos);	// no match
; 2016 : 		}
; 2017 : 
; 2018 : 	size_type find_last_of(const _Elem *_Ptr,
; 2019 : 		size_type _Off = npos) const
; 2020 : 		{	// look for one of [_Ptr, <null>) before _Off
; 2021 : 		_DEBUG_POINTER(_Ptr);
; 2022 : 		return (find_last_of(_Ptr, _Off, _Traits::length(_Ptr)));
; 2023 : 		}
; 2024 : 
; 2025 : 	size_type find_last_of(_Elem _Ch,
; 2026 : 		size_type _Off = npos) const
; 2027 : 		{	// look for _Ch before _Off
; 2028 : 		return (rfind((const _Elem *)&_Ch, _Off, 1));
; 2029 : 		}
; 2030 : 
; 2031 : 	size_type find_first_not_of(const _Myt& _Right,
; 2032 : 		size_type _Off = 0) const _NOEXCEPT
; 2033 : 		{	// look for none of _Right at or after _Off
; 2034 : 		return (find_first_not_of(_Right._Myptr(), _Off,
; 2035 : 			_Right.size()));
; 2036 : 		}
; 2037 : 
; 2038 : 	size_type find_first_not_of(const _Elem *_Ptr,
; 2039 : 		size_type _Off, size_type _Count) const
; 2040 : 		{	// look for none of [_Ptr, _Ptr + _Count) at or after _Off
; 2041 :  #if _ITERATOR_DEBUG_LEVEL == 2
; 2042 : 		if (_Count != 0)
; 2043 : 			_DEBUG_POINTER(_Ptr);
; 2044 :  #endif /* _ITERATOR_DEBUG_LEVEL == 2 */
; 2045 : 
; 2046 : 		if (_Off < this->_Mysize)
; 2047 : 			{	// room for match, look for it
; 2048 : 			const _Elem *const _Vptr = this->_Myptr() + this->_Mysize;
; 2049 : 			for (const _Elem *_Uptr = this->_Myptr() + _Off;
; 2050 : 				_Uptr < _Vptr; ++_Uptr)
; 2051 : 				if (_Traits::find(_Ptr, _Count, *_Uptr) == 0)
; 2052 : 					return (_Uptr - this->_Myptr());
; 2053 : 			}
; 2054 : 		return (npos);
; 2055 : 		}
; 2056 : 
; 2057 : 	size_type find_first_not_of(const _Elem *_Ptr,
; 2058 : 		size_type _Off = 0) const
; 2059 : 		{	// look for one of [_Ptr, <null>) at or after _Off
; 2060 : 		_DEBUG_POINTER(_Ptr);
; 2061 : 		return (find_first_not_of(_Ptr, _Off, _Traits::length(_Ptr)));
; 2062 : 		}
; 2063 : 
; 2064 : 	size_type find_first_not_of(_Elem _Ch,
; 2065 : 		size_type _Off = 0) const
; 2066 : 		{	// look for non _Ch at or after _Off
; 2067 : 		return (find_first_not_of((const _Elem *)&_Ch, _Off, 1));
; 2068 : 		}
; 2069 : 
; 2070 : 	size_type find_last_not_of(const _Myt& _Right,
; 2071 : 		size_type _Off = npos) const _NOEXCEPT
; 2072 : 		{	// look for none of _Right before _Off
; 2073 : 		return (find_last_not_of(_Right._Myptr(), _Off, _Right.size()));
; 2074 : 		}
; 2075 : 
; 2076 : 	size_type find_last_not_of(const _Elem *_Ptr,
; 2077 : 		size_type _Off, size_type _Count) const
; 2078 : 		{	// look for none of [_Ptr, _Ptr + _Count) before _Off
; 2079 :  #if _ITERATOR_DEBUG_LEVEL == 2
; 2080 : 		if (_Count != 0)
; 2081 : 			_DEBUG_POINTER(_Ptr);
; 2082 :  #endif /* _ITERATOR_DEBUG_LEVEL == 2 */
; 2083 : 
; 2084 : 		if (0 < this->_Mysize)
; 2085 : 			{	// worth searching, do it
; 2086 : 			const _Elem *_Uptr = this->_Myptr()
; 2087 : 				+ (_Off < this->_Mysize ? _Off : this->_Mysize - 1);
; 2088 : 			for (; ; --_Uptr)
; 2089 : 				if (_Traits::find(_Ptr, _Count, *_Uptr) == 0)
; 2090 : 					return (_Uptr - this->_Myptr());
; 2091 : 				else if (_Uptr == this->_Myptr())
; 2092 : 					break;
; 2093 : 			}
; 2094 : 		return (npos);
; 2095 : 		}
; 2096 : 
; 2097 : 	size_type find_last_not_of(const _Elem *_Ptr,
; 2098 : 		size_type _Off = npos) const
; 2099 : 		{	// look for none of [_Ptr, <null>) before _Off
; 2100 : 		_DEBUG_POINTER(_Ptr);
; 2101 : 		return (find_last_not_of(_Ptr, _Off, _Traits::length(_Ptr)));
; 2102 : 		}
; 2103 : 
; 2104 : 	size_type find_last_not_of(_Elem _Ch,
; 2105 : 		size_type _Off = npos) const
; 2106 : 		{	// look for non _Ch before _Off
; 2107 : 		return (find_last_not_of((const _Elem *)&_Ch, _Off, 1));
; 2108 : 		}
; 2109 : 
; 2110 : 	_Myt substr(size_type _Off = 0, size_type _Count = npos) const
; 2111 : 		{	// return [_Off, _Off + _Count) as new string
; 2112 : 		return (_Myt(*this, _Off, _Count, get_allocator()));
; 2113 : 		}
; 2114 : 
; 2115 : 	int compare(const _Myt& _Right) const _NOEXCEPT
; 2116 : 		{	// compare [0, _Mysize) with _Right
; 2117 : 		return (compare(0, this->_Mysize, _Right._Myptr(), _Right.size()));
; 2118 : 		}
; 2119 : 
; 2120 : 	int compare(size_type _Off, size_type _N0,
; 2121 : 		const _Myt& _Right) const
; 2122 : 		{	// compare [_Off, _Off + _N0) with _Right
; 2123 : 		return (compare(_Off, _N0, _Right, 0, npos));
; 2124 : 		}
; 2125 : 
; 2126 : 	int compare(size_type _Off,
; 2127 : 		size_type _N0, const _Myt& _Right,
; 2128 : 		size_type _Roff, size_type _Count) const
; 2129 : 		{	// compare [_Off, _Off + _N0) with _Right [_Roff, _Roff + _Count)
; 2130 : 		if (_Right.size() < _Roff)
; 2131 : 			_Xran();	// _Off off end
; 2132 : 		if (_Right._Mysize - _Roff < _Count)
; 2133 : 			_Count = _Right._Mysize - _Roff;	// trim _Count to size
; 2134 : 		return (compare(_Off, _N0, _Right._Myptr() + _Roff, _Count));
; 2135 : 		}
; 2136 : 
; 2137 : 	int compare(const _Elem *_Ptr) const
; 2138 : 		{	// compare [0, _Mysize) with [_Ptr, <null>)
; 2139 : 		_DEBUG_POINTER(_Ptr);
; 2140 : 		return (compare(0, this->_Mysize, _Ptr, _Traits::length(_Ptr)));
; 2141 : 		}
; 2142 : 
; 2143 : 	int compare(size_type _Off, size_type _N0, const _Elem *_Ptr) const
; 2144 : 		{	// compare [_Off, _Off + _N0) with [_Ptr, <null>)
; 2145 : 		_DEBUG_POINTER(_Ptr);
; 2146 : 		return (compare(_Off, _N0, _Ptr, _Traits::length(_Ptr)));
; 2147 : 		}
; 2148 : 
; 2149 : 	int compare(size_type _Off,
; 2150 : 		size_type _N0, const _Elem *_Ptr, size_type _Count) const
; 2151 : 		{	// compare [_Off, _Off + _N0) with [_Ptr, _Ptr + _Count)
; 2152 :  #if _ITERATOR_DEBUG_LEVEL == 2
; 2153 : 		if (_Count != 0)
; 2154 : 			_DEBUG_POINTER(_Ptr);
; 2155 :  #endif /* _ITERATOR_DEBUG_LEVEL == 2 */
; 2156 : 
; 2157 : 		if (this->_Mysize < _Off)
; 2158 : 			_Xran();	// _Off off end
; 2159 : 		if (this->_Mysize - _Off < _N0)
; 2160 : 			_N0 = this->_Mysize - _Off;	// trim _N0 to size
; 2161 : 
; 2162 : 		size_type _Ans = _Traits::compare(this->_Myptr() + _Off, _Ptr,
; 2163 : 			_N0 < _Count ? _N0 : _Count);
; 2164 : 		return (_Ans != 0 ? (int)_Ans : _N0 < _Count ? -1
; 2165 : 			: _N0 == _Count ? 0 : +1);
; 2166 : 		}
; 2167 : 
; 2168 : 	allocator_type get_allocator() const _NOEXCEPT
; 2169 : 		{	// return allocator object for values
; 2170 : 		return (this->_Getal());
; 2171 : 		}
; 2172 : 
; 2173 : 	void _Chassign(size_type _Off, size_type _Count, _Elem _Ch)
; 2174 : 		{	// assign _Count copies of _Ch beginning at _Off
; 2175 : 		if (_Count == 1)
; 2176 : 			_Traits::assign(*(this->_Myptr() + _Off), _Ch);
; 2177 : 		else
; 2178 : 			_Traits::assign(this->_Myptr() + _Off, _Count, _Ch);
; 2179 : 		}
; 2180 : 
; 2181 : 	void _Copy(size_type _Newsize, size_type _Oldlen)
; 2182 : 		{	// copy _Oldlen elements to newly allocated buffer
; 2183 : 		size_type _Newres = _Newsize | this->_ALLOC_MASK;
; 2184 : 		if (max_size() < _Newres)
; 2185 : 			_Newres = _Newsize;	// undo roundup if too big
; 2186 : 		else if (this->_Myres / 2 <= _Newres / 3)
; 2187 : 			;
; 2188 : 		else if (this->_Myres <= max_size() - this->_Myres / 2)
; 2189 : 			_Newres = this->_Myres
; 2190 : 				+ this->_Myres / 2;	// grow exponentially if possible
; 2191 : 		else
; 2192 : 			_Newres = max_size();	// settle for max_size()
; 2193 : 
; 2194 : 		_Elem *_Ptr;
; 2195 : 		_TRY_BEGIN
; 2196 : 			_Ptr = this->_Getal().allocate(_Newres + 1);
; 2197 : 		_CATCH_ALL
; 2198 : 			_Newres = _Newsize;	// allocation failed, undo roundup and retry
; 2199 : 			_TRY_BEGIN
; 2200 : 				_Ptr = this->_Getal().allocate(_Newres + 1);
; 2201 : 			_CATCH_ALL
; 2202 : 			_Tidy(true);	// failed again, discard storage and reraise
; 2203 : 			_RERAISE;
; 2204 : 			_CATCH_END
; 2205 : 		_CATCH_END
; 2206 : 
; 2207 : 		if (0 < _Oldlen)
; 2208 : 			_Traits::copy(_Ptr, this->_Myptr(),
; 2209 : 				_Oldlen);	// copy existing elements
; 2210 : 		_Tidy(true);
; 2211 : 		this->_Getal().construct(&this->_Bx._Ptr, _Ptr);
; 2212 : 		this->_Myres = _Newres;
; 2213 : 		_Eos(_Oldlen);
; 2214 : 		}
; 2215 : 
; 2216 : 	void _Eos(size_type _Newsize)
; 2217 : 		{	// set new length and null terminator
; 2218 : 		_Traits::assign(this->_Myptr()[this->_Mysize = _Newsize], _Elem());

  005eb	4c 89 65 60	 mov	 QWORD PTR $T15[rbp-240], r12
; File c:\program files (x86)\microsoft visual studio 11.0\vc\include\iosfwd

; 564  : 		_Left = _Right;

  005ef	44 88 65 50	 mov	 BYTE PTR $T15[rbp-256], r12b
; File c:\program files (x86)\microsoft visual studio 11.0\vc\include\xstring

; 1144 : 		return (assign(_Ptr, _Traits::length(_Ptr)));

  005f3	41 b8 0d 00 00
	00		 mov	 r8d, 13
  005f9	48 8d 15 00 00
	00 00		 lea	 rdx, OFFSET FLAT:$SG4294945226
  00600	48 8d 4d 50	 lea	 rcx, QWORD PTR $T15[rbp-256]
  00604	e8 00 00 00 00	 call	 ?assign@?$basic_string@DU?$char_traits@D@std@@V?$allocator@D@2@@std@@QEAAAEAV12@PEBD_K@Z ; std::basic_string<char,std::char_traits<char>,std::allocator<char> >::assign
; File c:\users\glenn\documents\github\wind\project\wind\wind\renderthread.cpp

; 83   : 	if(!program.prepare("gridTransform")) return false;

  00609	48 8d 55 50	 lea	 rdx, QWORD PTR $T15[rbp-256]
  0060d	48 8d 0d 00 00
	00 00		 lea	 rcx, OFFSET FLAT:?program@@3VProgram@cl@@A ; program
  00614	e8 00 00 00 00	 call	 ?prepare@Program@cl@@QEAA_NV?$basic_string@DU?$char_traits@D@std@@V?$allocator@D@2@@std@@@Z ; cl::Program::prepare
  00619	84 c0		 test	 al, al
  0061b	0f 84 0f 10 00
	00		 je	 $LN1151@tick
; File c:\users\glenn\documents\github\wind\project\wind\wind\opencl.cpp

; 214  : 	if(!preparedKernel)

  00621	48 8b 0d 28 00
	00 00		 mov	 rcx, QWORD PTR ?program@@3VProgram@cl@@A+40
  00628	48 85 c9	 test	 rcx, rcx
  0062b	75 13		 jne	 SHORT $LN170@tick
$LN1172@tick:

; 215  : 	{
; 216  : 		GLWindow::instance->postError("Tried to set argument for unprepared kernel", "OpenCL kernel argument error");

  0062d	4c 8d 05 00 00
	00 00		 lea	 r8, OFFSET FLAT:$SG4294952799
  00634	48 8d 15 00 00
	00 00		 lea	 rdx, OFFSET FLAT:$SG4294952798

; 217  : 		return false;

  0063b	e9 eb 0f 00 00	 jmp	 $LN1158@tick
$LN170@tick:

; 218  : 	}
; 219  : 	cl_int error = clSetKernelArg(preparedKernel, argIndex++, size, value);

  00640	8b 05 20 00 00
	00		 mov	 eax, DWORD PTR ?program@@3VProgram@cl@@A+32
  00646	8b d0		 mov	 edx, eax
  00648	ff c0		 inc	 eax
  0064a	89 05 20 00 00
	00		 mov	 DWORD PTR ?program@@3VProgram@cl@@A+32, eax
  00650	4c 8d 0d 00 00
	00 00		 lea	 r9, OFFSET FLAT:renderDistance
  00657	41 b8 04 00 00
	00		 mov	 r8d, 4
  0065d	ff 15 00 00 00
	00		 call	 QWORD PTR __imp_clSetKernelArg

; 220  : 	if(error != CL_SUCCESS)

  00663	85 c0		 test	 eax, eax
  00665	74 13		 je	 SHORT $LN33@tick
$LN1170@tick:

; 222  : 		GLWindow::instance->postError("Failed to set kernel argument", "OpenCL kernel argument error");

  00667	4c 8d 05 00 00
	00 00		 lea	 r8, OFFSET FLAT:$SG4294952797
  0066e	48 8d 15 00 00
	00 00		 lea	 rdx, OFFSET FLAT:$SG4294952796
; File c:\users\glenn\documents\github\wind\project\wind\wind\renderthread.cpp

; 84   : 	if(!program.setArgument(sizeof(const unsigned int), &renderDistance)) return false;

  00675	e9 b1 0f 00 00	 jmp	 $LN1158@tick
$LN33@tick:
; File c:\users\glenn\documents\github\wind\project\wind\wind\opencl.cpp

; 214  : 	if(!preparedKernel)

  0067a	48 8b 0d 28 00
	00 00		 mov	 rcx, QWORD PTR ?program@@3VProgram@cl@@A+40
  00681	48 85 c9	 test	 rcx, rcx
  00684	74 a7		 je	 SHORT $LN1172@tick

; 218  : 	}
; 219  : 	cl_int error = clSetKernelArg(preparedKernel, argIndex++, size, value);

  00686	8b 05 20 00 00
	00		 mov	 eax, DWORD PTR ?program@@3VProgram@cl@@A+32
  0068c	8b d0		 mov	 edx, eax
  0068e	ff c0		 inc	 eax
  00690	89 05 20 00 00
	00		 mov	 DWORD PTR ?program@@3VProgram@cl@@A+32, eax
  00696	4c 8d 0d 08 00
	00 00		 lea	 r9, OFFSET FLAT:?projectionMatrixBuffer@@3VBuffer@cl@@A+8
  0069d	41 b8 08 00 00
	00		 mov	 r8d, 8
  006a3	ff 15 00 00 00
	00		 call	 QWORD PTR __imp_clSetKernelArg

; 220  : 	if(error != CL_SUCCESS)

  006a9	85 c0		 test	 eax, eax
  006ab	75 ba		 jne	 SHORT $LN1170@tick

; 214  : 	if(!preparedKernel)

  006ad	48 8b 0d 28 00
	00 00		 mov	 rcx, QWORD PTR ?program@@3VProgram@cl@@A+40
  006b4	48 85 c9	 test	 rcx, rcx
  006b7	0f 84 70 ff ff
	ff		 je	 $LN1172@tick

; 218  : 	}
; 219  : 	cl_int error = clSetKernelArg(preparedKernel, argIndex++, size, value);

  006bd	8b 05 20 00 00
	00		 mov	 eax, DWORD PTR ?program@@3VProgram@cl@@A+32
  006c3	8b d0		 mov	 edx, eax
  006c5	ff c0		 inc	 eax
  006c7	89 05 20 00 00
	00		 mov	 DWORD PTR ?program@@3VProgram@cl@@A+32, eax
  006cd	4c 8d 4c 24 70	 lea	 r9, QWORD PTR xCam$[rsp]
  006d2	41 b8 04 00 00
	00		 mov	 r8d, 4
  006d8	ff 15 00 00 00
	00		 call	 QWORD PTR __imp_clSetKernelArg

; 220  : 	if(error != CL_SUCCESS)

  006de	85 c0		 test	 eax, eax
  006e0	75 85		 jne	 SHORT $LN1170@tick

; 214  : 	if(!preparedKernel)

  006e2	48 8b 0d 28 00
	00 00		 mov	 rcx, QWORD PTR ?program@@3VProgram@cl@@A+40
  006e9	48 85 c9	 test	 rcx, rcx
  006ec	0f 84 3b ff ff
	ff		 je	 $LN1172@tick

; 218  : 	}
; 219  : 	cl_int error = clSetKernelArg(preparedKernel, argIndex++, size, value);

  006f2	8b 05 20 00 00
	00		 mov	 eax, DWORD PTR ?program@@3VProgram@cl@@A+32
  006f8	8b d0		 mov	 edx, eax
  006fa	ff c0		 inc	 eax
  006fc	89 05 20 00 00
	00		 mov	 DWORD PTR ?program@@3VProgram@cl@@A+32, eax
  00702	4c 8d 4c 24 6c	 lea	 r9, QWORD PTR yCam$[rsp]
  00707	41 b8 04 00 00
	00		 mov	 r8d, 4
  0070d	ff 15 00 00 00
	00		 call	 QWORD PTR __imp_clSetKernelArg

; 220  : 	if(error != CL_SUCCESS)

  00713	85 c0		 test	 eax, eax
  00715	0f 85 4c ff ff
	ff		 jne	 $LN1170@tick

; 214  : 	if(!preparedKernel)

  0071b	48 8b 0d 28 00
	00 00		 mov	 rcx, QWORD PTR ?program@@3VProgram@cl@@A+40
  00722	48 85 c9	 test	 rcx, rcx
  00725	0f 84 02 ff ff
	ff		 je	 $LN1172@tick

; 218  : 	}
; 219  : 	cl_int error = clSetKernelArg(preparedKernel, argIndex++, size, value);

  0072b	8b 05 20 00 00
	00		 mov	 eax, DWORD PTR ?program@@3VProgram@cl@@A+32
  00731	8b d0		 mov	 edx, eax
  00733	ff c0		 inc	 eax
  00735	89 05 20 00 00
	00		 mov	 DWORD PTR ?program@@3VProgram@cl@@A+32, eax
  0073b	4c 8d 4c 24 68	 lea	 r9, QWORD PTR zCam$[rsp]
  00740	41 b8 04 00 00
	00		 mov	 r8d, 4
  00746	ff 15 00 00 00
	00		 call	 QWORD PTR __imp_clSetKernelArg

; 220  : 	if(error != CL_SUCCESS)

  0074c	85 c0		 test	 eax, eax
  0074e	0f 85 13 ff ff
	ff		 jne	 $LN1170@tick

; 214  : 	if(!preparedKernel)

  00754	48 8b 0d 28 00
	00 00		 mov	 rcx, QWORD PTR ?program@@3VProgram@cl@@A+40
  0075b	48 85 c9	 test	 rcx, rcx
  0075e	0f 84 c9 fe ff
	ff		 je	 $LN1172@tick

; 218  : 	}
; 219  : 	cl_int error = clSetKernelArg(preparedKernel, argIndex++, size, value);

  00764	8b 05 20 00 00
	00		 mov	 eax, DWORD PTR ?program@@3VProgram@cl@@A+32
  0076a	8b d0		 mov	 edx, eax
  0076c	ff c0		 inc	 eax
  0076e	89 05 20 00 00
	00		 mov	 DWORD PTR ?program@@3VProgram@cl@@A+32, eax
  00774	4c 8d 0d 08 00
	00 00		 lea	 r9, OFFSET FLAT:?boolBuffer@@3VBuffer@cl@@A+8
  0077b	41 b8 08 00 00
	00		 mov	 r8d, 8
  00781	ff 15 00 00 00
	00		 call	 QWORD PTR __imp_clSetKernelArg

; 220  : 	if(error != CL_SUCCESS)

  00787	85 c0		 test	 eax, eax
  00789	0f 85 d8 fe ff
	ff		 jne	 $LN1170@tick

; 223  : 		return false;
; 224  : 	}
; 225  : 	return true;
; 226  : }
; 227  : 
; 228  : bool cl::Program::setArgument(size_t size, Buffer* value)
; 229  : {
; 230  : 	return setArgument(size, &value->mem);
; 231  : }
; 232  : 
; 233  : bool cl::Program::invoke(CommandQueue& queue, cl_uint dimensions, const size_t* globalWorkSize, const size_t* localWorkSize)
; 234  : {
; 235  : 	if(!preparedKernel)

  0078f	48 8b 15 28 00
	00 00		 mov	 rdx, QWORD PTR ?program@@3VProgram@cl@@A+40
  00796	48 85 d2	 test	 rdx, rdx
  00799	75 13		 jne	 SHORT $LN198@tick
$LN1173@tick:

; 236  : 	{
; 237  : 		GLWindow::instance->postError("Tried to execute unprepared kernel", "OpenCL program execution error");

  0079b	4c 8d 05 00 00
	00 00		 lea	 r8, OFFSET FLAT:$SG4294952795
  007a2	48 8d 15 00 00
	00 00		 lea	 rdx, OFFSET FLAT:$SG4294952794

; 238  : 		return false;

  007a9	e9 7d 0e 00 00	 jmp	 $LN1158@tick
$LN198@tick:

; 239  : 	}
; 240  : 
; 241  : 	cl_int error;
; 242  : 	cl_event event;
; 243  : 
; 244  : 	error = clEnqueueNDRangeKernel(queue.queue, preparedKernel, dimensions, NULL, globalWorkSize, localWorkSize, 0, NULL, &event);

  007ae	48 8d 45 18	 lea	 rax, QWORD PTR event$11[rbp-256]
  007b2	48 89 44 24 40	 mov	 QWORD PTR [rsp+64], rax
  007b7	4c 89 64 24 38	 mov	 QWORD PTR [rsp+56], r12
  007bc	44 89 64 24 30	 mov	 DWORD PTR [rsp+48], r12d
  007c1	48 8d 85 c8 05
	00 00		 lea	 rax, QWORD PTR local_ws_1$[rbp-256]
  007c8	48 89 44 24 28	 mov	 QWORD PTR [rsp+40], rax
  007cd	48 8d 85 b0 05
	00 00		 lea	 rax, QWORD PTR global_ws_1$[rbp-256]
  007d4	48 89 44 24 20	 mov	 QWORD PTR [rsp+32], rax
  007d9	45 33 c9	 xor	 r9d, r9d
  007dc	45 8d 41 03	 lea	 r8d, QWORD PTR [r9+3]
  007e0	48 8b 0d 00 00
	00 00		 mov	 rcx, QWORD PTR ?commandQueue@@3VCommandQueue@cl@@A
  007e7	ff 15 00 00 00
	00		 call	 QWORD PTR __imp_clEnqueueNDRangeKernel

; 245  : 	if(error != CL_SUCCESS)

  007ed	85 c0		 test	 eax, eax
  007ef	74 13		 je	 SHORT $LN197@tick
$LN1171@tick:

; 246  : 	{
; 247  : 		GLWindow::instance->postError("Failed to exectue kernel", "OpenCL program execution error");

  007f1	4c 8d 05 00 00
	00 00		 lea	 r8, OFFSET FLAT:$SG4294952793
  007f8	48 8d 15 00 00
	00 00		 lea	 rdx, OFFSET FLAT:$SG4294952792
; File c:\users\glenn\documents\github\wind\project\wind\wind\renderthread.cpp

; 90   : 	if(!program.invoke(commandQueue, 3, global_ws_1, local_ws_1)) return false;

  007ff	e9 27 0e 00 00	 jmp	 $LN1158@tick
$LN197@tick:
; File c:\users\glenn\documents\github\wind\project\wind\wind\opencl.cpp

; 251  : 	queue.addSyncEvent(event);

  00804	48 8b 55 18	 mov	 rdx, QWORD PTR event$11[rbp-256]
  00808	48 8d 0d 00 00
	00 00		 lea	 rcx, OFFSET FLAT:?commandQueue@@3VCommandQueue@cl@@A ; commandQueue
  0080f	e8 00 00 00 00	 call	 ?addSyncEvent@CommandQueue@cl@@QEAAXPEAU_cl_event@@@Z ; cl::CommandQueue::addSyncEvent

; 252  : 
; 253  : 	preparedKernel = 0;

  00814	4c 89 25 28 00
	00 00		 mov	 QWORD PTR ?program@@3VProgram@cl@@A+40, r12
; File c:\program files (x86)\microsoft visual studio 11.0\vc\include\thr\xthread

; 83   : 	return (_Check_C_return(_Mtx_unlock(_Mtx)));

  0081b	48 8d 0d 18 00
	00 00		 lea	 rcx, OFFSET FLAT:?program@@3VProgram@cl@@A+24
  00822	e8 00 00 00 00	 call	 _Mtx_unlock

; 32   : 	if (_Res != _Thrd_success)

  00827	85 c0		 test	 eax, eax
  00829	74 07		 je	 SHORT $LN27@tick

; 33   : 		_Throw_C_error(_Res);

  0082b	8b c8		 mov	 ecx, eax
  0082d	e8 00 00 00 00	 call	 ?_Throw_C_error@std@@YAXH@Z ; std::_Throw_C_error
$LN27@tick:
; File c:\users\glenn\documents\github\wind\project\wind\wind\renderthread.cpp

; 92   : 	const size_t global_ws_2[] = {renderDistance * 2 + 1, renderDistance * 2 + 1, renderDistance * 2 + 1};

  00832	48 c7 85 e0 05
	00 00 15 00 00
	00		 mov	 QWORD PTR global_ws_2$[rbp-256], 21
  0083d	48 c7 85 e8 05
	00 00 15 00 00
	00		 mov	 QWORD PTR global_ws_2$[rbp-248], 21
  00848	48 c7 85 f0 05
	00 00 15 00 00
	00		 mov	 QWORD PTR global_ws_2$[rbp-240], 21

; 93   : 	const size_t local_ws_2[] = {1, 1, 1};

  00853	4c 89 b5 f8 05
	00 00		 mov	 QWORD PTR local_ws_2$[rbp-256], r14
  0085a	4c 89 b5 00 06
	00 00		 mov	 QWORD PTR local_ws_2$[rbp-248], r14
  00861	4c 89 b5 08 06
	00 00		 mov	 QWORD PTR local_ws_2$[rbp-240], r14
; File c:\program files (x86)\microsoft visual studio 11.0\vc\include\xstring

; 2265 : 		this->_Myres = this->_BUF_SIZE - 1;

  00868	48 c7 45 48 0f
	00 00 00	 mov	 QWORD PTR $T14[rbp-232], 15

; 1145 : 		}
; 1146 : 
; 1147 : 	_Myt& assign(size_type _Count, _Elem _Ch)
; 1148 : 		{	// assign _Count * _Ch
; 1149 : 		if (_Count == npos)
; 1150 : 			_Xlen();	// result too long
; 1151 : 
; 1152 : 		if (_Grow(_Count))
; 1153 : 			{	// make room and assign new stuff
; 1154 : 			_Chassign(0, _Count, _Ch);
; 1155 : 			_Eos(_Count);
; 1156 : 			}
; 1157 : 		return (*this);
; 1158 : 		}
; 1159 : 
; 1160 : 	template<class _Iter>
; 1161 : 		typename enable_if<_Is_iterator<_Iter>::value,
; 1162 : 			_Myt&>::type
; 1163 : 		assign(_Iter _First, _Iter _Last)
; 1164 : 		{	// assign [First, _Last), input iterators
; 1165 : 		return (replace(begin(), end(), _First, _Last));
; 1166 : 		}
; 1167 : 
; 1168 : 	_Myt& assign(const_pointer _First, const_pointer _Last)
; 1169 : 		{	// assign [First, _Last), const pointers
; 1170 : 		return (replace(begin(), end(), _First, _Last));
; 1171 : 		}
; 1172 : 
; 1173 : 	_Myt& assign(const_iterator _First, const_iterator _Last)
; 1174 : 		{	// assign [First, _Last), const_iterators
; 1175 : 		return (replace(begin(), end(), _First, _Last));
; 1176 : 		}
; 1177 : 
; 1178 : 	_Myt& insert(size_type _Off, const _Myt& _Right)
; 1179 : 		{	// insert _Right at _Off
; 1180 : 		return (insert(_Off, _Right, 0, npos));
; 1181 : 		}
; 1182 : 
; 1183 : 	_Myt& insert(size_type _Off,
; 1184 : 		const _Myt& _Right, size_type _Roff, size_type _Count)
; 1185 : 		{	// insert _Right [_Roff, _Roff + _Count) at _Off
; 1186 : 		if (this->_Mysize < _Off || _Right.size() < _Roff)
; 1187 : 			_Xran();	// _Off or _Roff off end
; 1188 : 		size_type _Num = _Right.size() - _Roff;
; 1189 : 		if (_Num < _Count)
; 1190 : 			_Count = _Num;	// trim _Count to size
; 1191 : 		if (npos - this->_Mysize <= _Count)
; 1192 : 			_Xlen();	// result too long
; 1193 : 
; 1194 : 		if (0 < _Count && _Grow(_Num = this->_Mysize + _Count))
; 1195 : 			{	// make room and insert new stuff
; 1196 : 			_Traits::move(this->_Myptr() + _Off + _Count,
; 1197 : 				this->_Myptr() + _Off,
; 1198 : 				this->_Mysize - _Off);	// empty out hole
; 1199 : 			if (this == &_Right)
; 1200 : 				_Traits::move(this->_Myptr() + _Off,
; 1201 : 					this->_Myptr() + (_Off < _Roff ? _Roff + _Count : _Roff),
; 1202 : 						_Count);	// substring
; 1203 : 			else
; 1204 : 				_Traits::copy(this->_Myptr() + _Off,
; 1205 : 					_Right._Myptr() + _Roff, _Count);	// fill hole
; 1206 : 			_Eos(_Num);
; 1207 : 			}
; 1208 : 		return (*this);
; 1209 : 		}
; 1210 : 
; 1211 : 	_Myt& insert(size_type _Off,
; 1212 : 		const _Elem *_Ptr, size_type _Count)
; 1213 : 		{	// insert [_Ptr, _Ptr + _Count) at _Off
; 1214 :  #if _ITERATOR_DEBUG_LEVEL == 2
; 1215 : 		if (_Count != 0)
; 1216 : 			_DEBUG_POINTER(_Ptr);
; 1217 :  #endif /* _ITERATOR_DEBUG_LEVEL == 2 */
; 1218 : 
; 1219 : 		if (_Inside(_Ptr))
; 1220 : 			return (insert(_Off, *this,
; 1221 : 				_Ptr - this->_Myptr(), _Count));	// substring
; 1222 : 		if (this->_Mysize < _Off)
; 1223 : 			_Xran();	// _Off off end
; 1224 : 		if (npos - this->_Mysize <= _Count)
; 1225 : 			_Xlen();	// result too long
; 1226 : 		size_type _Num;
; 1227 : 		if (0 < _Count && _Grow(_Num = this->_Mysize + _Count))
; 1228 : 			{	// make room and insert new stuff
; 1229 : 			_Traits::move(this->_Myptr() + _Off + _Count,
; 1230 : 				this->_Myptr() + _Off,
; 1231 : 				this->_Mysize - _Off);	// empty out hole
; 1232 : 			_Traits::copy(this->_Myptr() + _Off, _Ptr, _Count);	// fill hole
; 1233 : 			_Eos(_Num);
; 1234 : 			}
; 1235 : 		return (*this);
; 1236 : 		}
; 1237 : 
; 1238 : 	_Myt& insert(size_type _Off, const _Elem *_Ptr)
; 1239 : 		{	// insert [_Ptr, <null>) at _Off
; 1240 : 		_DEBUG_POINTER(_Ptr);
; 1241 : 		return (insert(_Off, _Ptr, _Traits::length(_Ptr)));
; 1242 : 		}
; 1243 : 
; 1244 : 	_Myt& insert(size_type _Off,
; 1245 : 		size_type _Count, _Elem _Ch)
; 1246 : 		{	// insert _Count * _Ch at _Off
; 1247 : 		if (this->_Mysize < _Off)
; 1248 : 			_Xran();	// _Off off end
; 1249 : 		if (npos - this->_Mysize <= _Count)
; 1250 : 			_Xlen();	// result too long
; 1251 : 		size_type _Num;
; 1252 : 		if (0 < _Count && _Grow(_Num = this->_Mysize + _Count))
; 1253 : 			{	// make room and insert new stuff
; 1254 : 			_Traits::move(this->_Myptr() + _Off + _Count,
; 1255 : 				this->_Myptr() + _Off,
; 1256 : 				this->_Mysize - _Off);	// empty out hole
; 1257 : 			_Chassign(_Off, _Count, _Ch);	// fill hole
; 1258 : 			_Eos(_Num);
; 1259 : 			}
; 1260 : 		return (*this);
; 1261 : 		}
; 1262 : 
; 1263 : 	iterator insert(const_iterator _Where)
; 1264 : 		{	// insert <null> at _Where
; 1265 : 		return (insert(_Where, _Elem()));
; 1266 : 		}
; 1267 : 
; 1268 : 	iterator insert(const_iterator _Where, _Elem _Ch)
; 1269 : 		{	// insert _Ch at _Where
; 1270 : 		size_type _Off = _Pdif(_Where, begin());
; 1271 : 		insert(_Off, 1, _Ch);
; 1272 : 		return (begin() + _Off);
; 1273 : 		}
; 1274 : 
; 1275 : 	iterator insert(const_iterator _Where, size_type _Count, _Elem _Ch)
; 1276 : 		{	// insert _Count * _Elem at _Where
; 1277 : 		size_type _Off = _Pdif(_Where, begin());
; 1278 : 		insert(_Off, _Count, _Ch);
; 1279 : 		return (begin() + _Off);
; 1280 : 		}
; 1281 : 
; 1282 : 	template<class _Iter>
; 1283 : 		typename enable_if<_Is_iterator<_Iter>::value,
; 1284 : 			iterator>::type
; 1285 : 		insert(const_iterator _Where, _Iter _First, _Iter _Last)
; 1286 : 		{	// insert [_First, _Last) at _Where, input iterators
; 1287 : 		size_type _Off = _Pdif(_Where, begin());
; 1288 : 		replace(_Where, _Where, _First, _Last);
; 1289 : 		return (begin() + _Off);
; 1290 : 		}
; 1291 : 
; 1292 : 	iterator insert(const_iterator _Where,
; 1293 : 		const_pointer _First, const_pointer _Last)
; 1294 : 		{	// insert [_First, _Last) at _Where, const pointers
; 1295 : 		size_type _Off = _Pdif(_Where, begin());
; 1296 : 		replace(_Where, _Where, _First, _Last);
; 1297 : 		return (begin() + _Off);
; 1298 : 		}
; 1299 : 
; 1300 : 	iterator insert(const_iterator _Where,
; 1301 : 		const_iterator _First, const_iterator _Last)
; 1302 : 		{	// insert [_First, _Last) at _Where, const_iterators
; 1303 : 		size_type _Off = _Pdif(_Where, begin());
; 1304 : 		replace(_Where, _Where, _First, _Last);
; 1305 : 		return (begin() + _Off);
; 1306 : 		}
; 1307 : 
; 1308 : 	_Myt& erase(size_type _Off = 0)
; 1309 : 		{	// erase elements [_Off, ...)
; 1310 : 		if (this->_Mysize < _Off)
; 1311 : 			_Xran();	// _Off off end
; 1312 : 		_Eos(_Off);
; 1313 : 		return (*this);
; 1314 : 		}
; 1315 : 
; 1316 : 	_Myt& erase(size_type _Off, size_type _Count)
; 1317 : 		{	// erase elements [_Off, _Off + _Count)
; 1318 : 		if (this->_Mysize < _Off)
; 1319 : 			_Xran();	// _Off off end
; 1320 : 		if (this->_Mysize - _Off <= _Count)
; 1321 : 			_Eos(_Off);	// erase elements [_Off, ...)
; 1322 : 		else if (0 < _Count)
; 1323 : 			{	// move elements down
; 1324 : 			value_type *_Ptr = this->_Myptr() + _Off;
; 1325 : 			size_type _Newsize = this->_Mysize - _Count;
; 1326 : 			_Traits::move(_Ptr, _Ptr + _Count, _Newsize - _Off);
; 1327 : 			_Eos(_Newsize);
; 1328 : 			}
; 1329 : 		return (*this);
; 1330 : 		}
; 1331 : 
; 1332 : 	iterator erase(const_iterator _Where)
; 1333 : 		{	// erase element at _Where
; 1334 : 		size_type _Count = _Pdif(_Where, begin());
; 1335 : 		erase(_Count, 1);
; 1336 : 		return (_STRING_ITERATOR(this->_Myptr() + _Count));
; 1337 : 		}
; 1338 : 
; 1339 : 	iterator erase(const_iterator _First, const_iterator _Last)
; 1340 : 		{	// erase substring [_First, _Last)
; 1341 : 		_DEBUG_RANGE(_First, _Last);
; 1342 : 		size_type _Count = _Pdif(_First, begin());
; 1343 : 		erase(_Count, _Pdif(_Last, _First));
; 1344 : 		return (_STRING_ITERATOR(this->_Myptr() + _Count));
; 1345 : 		}
; 1346 : 
; 1347 : 	void clear() _NOEXCEPT
; 1348 : 		{	// erase all
; 1349 : 		_Eos(0);
; 1350 : 		}
; 1351 : 
; 1352 : 	_Myt& replace(size_type _Off, size_type _N0, const _Myt& _Right)
; 1353 : 		{	// replace [_Off, _Off + _N0) with _Right
; 1354 : 		return (replace(_Off, _N0, _Right, 0, npos));
; 1355 : 		}
; 1356 : 
; 1357 : 	_Myt& replace(size_type _Off,
; 1358 : 		size_type _N0, const _Myt& _Right, size_type _Roff, size_type _Count)
; 1359 : 		{	// replace [_Off, _Off + _N0) with _Right [_Roff, _Roff + _Count)
; 1360 : 		if (this->_Mysize < _Off || _Right.size() < _Roff)
; 1361 : 			_Xran();	// _Off or _Roff off end
; 1362 : 		if (this->_Mysize - _Off < _N0)
; 1363 : 			_N0 = this->_Mysize - _Off;	// trim _N0 to size
; 1364 : 		size_type _Num = _Right.size() - _Roff;
; 1365 : 		if (_Num < _Count)
; 1366 : 			_Count = _Num;	// trim _Count to size
; 1367 : 		if (npos - _Count <= this->_Mysize - _N0)
; 1368 : 			_Xlen();	// result too long
; 1369 : 
; 1370 : 		size_type _Nm = this->_Mysize - _N0 - _Off;	// length of kept tail
; 1371 : 		size_type _Newsize = this->_Mysize + _Count - _N0;
; 1372 : 		if (this->_Mysize < _Newsize)
; 1373 : 			_Grow(_Newsize);
; 1374 : 
; 1375 : 		if (this != &_Right)
; 1376 : 			{	// no overlap, just move down and copy in new stuff
; 1377 : 			_Traits::move(this->_Myptr() + _Off + _Count,
; 1378 : 				this->_Myptr() + _Off + _N0, _Nm);	// empty hole
; 1379 : 			_Traits::copy(this->_Myptr() + _Off,
; 1380 : 				_Right._Myptr() + _Roff, _Count);	// fill hole
; 1381 : 			}
; 1382 : 		else if (_Count <= _N0)
; 1383 : 			{	// hole doesn't get larger, just copy in substring
; 1384 : 			_Traits::move(this->_Myptr() + _Off,
; 1385 : 				this->_Myptr() + _Roff, _Count);	// fill hole
; 1386 : 			_Traits::move(this->_Myptr() + _Off + _Count,
; 1387 : 				this->_Myptr() + _Off + _N0, _Nm);	// move tail down
; 1388 : 			}
; 1389 : 		else if (_Roff <= _Off)
; 1390 : 			{	// hole gets larger, substring begins before hole
; 1391 : 			_Traits::move(this->_Myptr() + _Off + _Count,
; 1392 : 				this->_Myptr() + _Off + _N0, _Nm);	// move tail down
; 1393 : 			_Traits::move(this->_Myptr() + _Off,
; 1394 : 				this->_Myptr() + _Roff, _Count);	// fill hole
; 1395 : 			}
; 1396 : 		else if (_Off + _N0 <= _Roff)
; 1397 : 			{	// hole gets larger, substring begins after hole
; 1398 : 			_Traits::move(this->_Myptr() + _Off + _Count,
; 1399 : 				this->_Myptr() + _Off + _N0, _Nm);	// move tail down
; 1400 : 			_Traits::move(this->_Myptr() + _Off,
; 1401 : 				this->_Myptr() + (_Roff + _Count - _N0),
; 1402 : 				_Count);	// fill hole
; 1403 : 			}
; 1404 : 		else
; 1405 : 			{	// hole gets larger, substring begins in hole
; 1406 : 			_Traits::move(this->_Myptr() + _Off,
; 1407 : 				this->_Myptr() + _Roff, _N0);	// fill old hole
; 1408 : 			_Traits::move(this->_Myptr() + _Off + _Count,
; 1409 : 				this->_Myptr() + _Off + _N0, _Nm);	// move tail down
; 1410 : 			_Traits::move(this->_Myptr() + _Off + _N0,
; 1411 : 				this->_Myptr() + _Roff + _Count,
; 1412 : 				_Count - _N0);	// fill rest of new hole
; 1413 : 			}
; 1414 : 
; 1415 : 		_Eos(_Newsize);
; 1416 : 		return (*this);
; 1417 : 		}
; 1418 : 
; 1419 : 	_Myt& replace(size_type _Off,
; 1420 : 		size_type _N0, const _Elem *_Ptr, size_type _Count)
; 1421 : 		{	// replace [_Off, _Off + _N0) with [_Ptr, _Ptr + _Count)
; 1422 :  #if _ITERATOR_DEBUG_LEVEL == 2
; 1423 : 		if (_Count != 0)
; 1424 : 			_DEBUG_POINTER(_Ptr);
; 1425 :  #endif /* _ITERATOR_DEBUG_LEVEL == 2 */
; 1426 : 
; 1427 : 		if (_Inside(_Ptr))
; 1428 : 			return (replace(_Off, _N0, *this,
; 1429 : 				_Ptr - this->_Myptr(),
; 1430 : 				_Count));	// substring, replace carefully
; 1431 : 		if (this->_Mysize < _Off)
; 1432 : 			_Xran();	// _Off off end
; 1433 : 		if (this->_Mysize - _Off < _N0)
; 1434 : 			_N0 = this->_Mysize - _Off;	// trim _N0 to size
; 1435 : 		if (npos - _Count <= this->_Mysize - _N0)
; 1436 : 			_Xlen();	// result too long
; 1437 : 		size_type _Nm = this->_Mysize - _N0 - _Off;
; 1438 : 
; 1439 : 		if (_Count < _N0)
; 1440 : 			_Traits::move(this->_Myptr() + _Off + _Count,
; 1441 : 				this->_Myptr() + _Off + _N0,
; 1442 : 				_Nm);	// smaller hole, move tail up
; 1443 : 		size_type _Num;
; 1444 : 		if ((0 < _Count || 0 < _N0)
; 1445 : 			&& _Grow(_Num = this->_Mysize + _Count - _N0))
; 1446 : 			{	// make room and rearrange
; 1447 : 			if (_N0 < _Count)
; 1448 : 				_Traits::move(this->_Myptr() + _Off + _Count,
; 1449 : 					this->_Myptr() + _Off + _N0, _Nm);	// move tail down
; 1450 : 			_Traits::copy(this->_Myptr() + _Off, _Ptr, _Count);	// fill hole
; 1451 : 			_Eos(_Num);
; 1452 : 			}
; 1453 : 		return (*this);
; 1454 : 		}
; 1455 : 
; 1456 : 	_Myt& replace(size_type _Off, size_type _N0, const _Elem *_Ptr)
; 1457 : 		{	// replace [_Off, _Off + _N0) with [_Ptr, <null>)
; 1458 : 		_DEBUG_POINTER(_Ptr);
; 1459 : 		return (replace(_Off, _N0, _Ptr, _Traits::length(_Ptr)));
; 1460 : 		}
; 1461 : 
; 1462 : 	_Myt& replace(size_type _Off,
; 1463 : 		size_type _N0, size_type _Count, _Elem _Ch)
; 1464 : 		{	// replace [_Off, _Off + _N0) with _Count * _Ch
; 1465 : 		if (this->_Mysize < _Off)
; 1466 : 			_Xran();	// _Off off end
; 1467 : 		if (this->_Mysize - _Off < _N0)
; 1468 : 			_N0 = this->_Mysize - _Off;	// trim _N0 to size
; 1469 : 		if (npos - _Count <= this->_Mysize - _N0)
; 1470 : 			_Xlen();	// result too long
; 1471 : 		size_type _Nm = this->_Mysize - _N0 - _Off;
; 1472 : 
; 1473 : 		if (_Count < _N0)
; 1474 : 			_Traits::move(this->_Myptr() + _Off + _Count,
; 1475 : 				this->_Myptr() + _Off + _N0,
; 1476 : 				_Nm);	// smaller hole, move tail up
; 1477 : 		size_type _Num;
; 1478 : 		if ((0 < _Count || 0 < _N0)
; 1479 : 			&& _Grow(_Num = this->_Mysize + _Count - _N0))
; 1480 : 			{	// make room and rearrange
; 1481 : 			if (_N0 < _Count)
; 1482 : 				_Traits::move(this->_Myptr() + _Off + _Count,
; 1483 : 					this->_Myptr() + _Off + _N0, _Nm);	// move tail down
; 1484 : 			_Chassign(_Off, _Count, _Ch);	// fill hole
; 1485 : 			_Eos(_Num);
; 1486 : 			}
; 1487 : 		return (*this);
; 1488 : 		}
; 1489 : 
; 1490 : 	_Myt& replace(const_iterator _First, const_iterator _Last,
; 1491 : 		const _Myt& _Right)
; 1492 : 		{	// replace [_First, _Last) with _Right
; 1493 : 		return (replace(
; 1494 : 			_Pdif(_First, begin()), _Pdif(_Last, _First), _Right));
; 1495 : 		}
; 1496 : 
; 1497 : 	_Myt& replace(const_iterator _First, const_iterator _Last,
; 1498 : 		const _Elem *_Ptr, size_type _Count)
; 1499 : 		{	// replace [_First, _Last) with [_Ptr, _Ptr + _Count)
; 1500 : 		return (replace(
; 1501 : 			_Pdif(_First, begin()), _Pdif(_Last, _First), _Ptr, _Count));
; 1502 : 		}
; 1503 : 
; 1504 : 	_Myt& replace(const_iterator _First, const_iterator _Last,
; 1505 : 		const _Elem *_Ptr)
; 1506 : 		{	// replace [_First, _Last) with [_Ptr, <null>)
; 1507 : 		return (replace(
; 1508 : 			_Pdif(_First, begin()), _Pdif(_Last, _First), _Ptr));
; 1509 : 		}
; 1510 : 
; 1511 : 	_Myt& replace(const_iterator _First, const_iterator _Last,
; 1512 : 		size_type _Count, _Elem _Ch)
; 1513 : 		{	// replace [_First, _Last) with _Count * _Ch
; 1514 : 		return (replace(
; 1515 : 			_Pdif(_First, begin()), _Pdif(_Last, _First), _Count, _Ch));
; 1516 : 		}
; 1517 : 
; 1518 : 	template<class _Iter>
; 1519 : 		typename enable_if<_Is_iterator<_Iter>::value,
; 1520 : 			_Myt&>::type
; 1521 : 		replace(const_iterator _First, const_iterator _Last,
; 1522 : 			_Iter _First2, _Iter _Last2)
; 1523 : 		{	// replace [_First, _Last) with [_First2, _Last2), input iterators
; 1524 : 		_Myt _Right(_First2, _Last2);
; 1525 : 		replace(_First, _Last, _Right);
; 1526 : 		return (*this);
; 1527 : 		}
; 1528 : 
; 1529 : 	_Myt& replace(const_iterator _First, const_iterator _Last,
; 1530 : 		const_pointer _First2, const_pointer _Last2)
; 1531 : 		{	// replace [_First, _Last) with [_First2, _Last2), const pointers
; 1532 : 		if (_First2 == _Last2)
; 1533 : 			erase(_Pdif(_First, begin()), _Pdif(_Last, _First));
; 1534 : 		else
; 1535 : 			replace(_Pdif(_First, begin()), _Pdif(_Last, _First),
; 1536 : 				&*_First2, _Last2 - _First2);
; 1537 : 		return (*this);
; 1538 : 		}
; 1539 : 
; 1540 : 	_Myt& replace(const_iterator _First, const_iterator _Last,
; 1541 : 		pointer _First2, pointer _Last2)
; 1542 : 		{	// replace [_First, _Last) with [_First2, _Last2), const pointers
; 1543 : 		if (_First2 == _Last2)
; 1544 : 			erase(_Pdif(_First, begin()), _Pdif(_Last, _First));
; 1545 : 		else
; 1546 : 			replace(_Pdif(_First, begin()), _Pdif(_Last, _First),
; 1547 : 				&*_First2, _Last2 - _First2);
; 1548 : 		return (*this);
; 1549 : 		}
; 1550 : 
; 1551 : 	_Myt& replace(const_iterator _First, const_iterator _Last,
; 1552 : 		const_iterator _First2, const_iterator _Last2)
; 1553 : 		{	// replace [_First, _Last) with [_First2, _Last2), const_iterators
; 1554 : 		if (_First2 == _Last2)
; 1555 : 			erase(_Pdif(_First, begin()), _Pdif(_Last, _First));
; 1556 : 		else
; 1557 : 			replace(_Pdif(_First, begin()), _Pdif(_Last, _First),
; 1558 : 				&*_First2, _Last2 - _First2);
; 1559 : 		return (*this);
; 1560 : 		}
; 1561 : 
; 1562 : 	_Myt& replace(const_iterator _First, const_iterator _Last,
; 1563 : 		iterator _First2, iterator _Last2)
; 1564 : 		{	// replace [_First, _Last) with [_First2, _Last2), const_iterators
; 1565 : 		if (_First2 == _Last2)
; 1566 : 			erase(_Pdif(_First, begin()), _Pdif(_Last, _First));
; 1567 : 		else
; 1568 : 			replace(_Pdif(_First, begin()), _Pdif(_Last, _First),
; 1569 : 				&*_First2, _Last2 - _First2);
; 1570 : 		return (*this);
; 1571 : 		}
; 1572 : 
; 1573 : 	iterator begin() _NOEXCEPT
; 1574 : 		{	// return iterator for beginning of mutable sequence
; 1575 : 		return (_STRING_ITERATOR(this->_Myptr()));
; 1576 : 		}
; 1577 : 
; 1578 : 	const_iterator begin() const _NOEXCEPT
; 1579 : 		{	// return iterator for beginning of nonmutable sequence
; 1580 : 		return (_STRING_CONST_ITERATOR(this->_Myptr()));
; 1581 : 		}
; 1582 : 
; 1583 : 	iterator end() _NOEXCEPT
; 1584 : 		{	// return iterator for end of mutable sequence
; 1585 : 		return (_STRING_ITERATOR(this->_Myptr() + this->_Mysize));
; 1586 : 		}
; 1587 : 
; 1588 : 	const_iterator end() const _NOEXCEPT
; 1589 : 		{	// return iterator for end of nonmutable sequence
; 1590 : 		return (_STRING_CONST_ITERATOR(this->_Myptr() + this->_Mysize));
; 1591 : 		}
; 1592 : 
; 1593 : 	reverse_iterator rbegin() _NOEXCEPT
; 1594 : 		{	// return iterator for beginning of reversed mutable sequence
; 1595 : 		return (reverse_iterator(end()));
; 1596 : 		}
; 1597 : 
; 1598 : 	const_reverse_iterator rbegin() const _NOEXCEPT
; 1599 : 		{	// return iterator for beginning of reversed nonmutable sequence
; 1600 : 		return (const_reverse_iterator(end()));
; 1601 : 		}
; 1602 : 
; 1603 : 	reverse_iterator rend() _NOEXCEPT
; 1604 : 		{	// return iterator for end of reversed mutable sequence
; 1605 : 		return (reverse_iterator(begin()));
; 1606 : 		}
; 1607 : 
; 1608 : 	const_reverse_iterator rend() const _NOEXCEPT
; 1609 : 		{	// return iterator for end of reversed nonmutable sequence
; 1610 : 		return (const_reverse_iterator(begin()));
; 1611 : 		}
; 1612 : 
; 1613 :  #if _HAS_CPP0X
; 1614 : 	const_iterator cbegin() const _NOEXCEPT
; 1615 : 		{	// return iterator for beginning of nonmutable sequence
; 1616 : 		return (((const _Myt *)this)->begin());
; 1617 : 		}
; 1618 : 
; 1619 : 	const_iterator cend() const _NOEXCEPT
; 1620 : 		{	// return iterator for end of nonmutable sequence
; 1621 : 		return (((const _Myt *)this)->end());
; 1622 : 		}
; 1623 : 
; 1624 : 	const_reverse_iterator crbegin() const _NOEXCEPT
; 1625 : 		{	// return iterator for beginning of reversed nonmutable sequence
; 1626 : 		return (((const _Myt *)this)->rbegin());
; 1627 : 		}
; 1628 : 
; 1629 : 	const_reverse_iterator crend() const _NOEXCEPT
; 1630 : 		{	// return iterator for end of reversed nonmutable sequence
; 1631 : 		return (((const _Myt *)this)->rend());
; 1632 : 		}
; 1633 : 
; 1634 : 	void shrink_to_fit()
; 1635 : 		{	// reduce capacity
; 1636 : 		if ((size() | this->_ALLOC_MASK) < capacity())
; 1637 : 			{	// worth shrinking, do it
; 1638 : 			_Myt _Tmp(*this);
; 1639 : 			swap(_Tmp);
; 1640 : 			}
; 1641 : 		}
; 1642 :  #endif /* _HAS_CPP0X */
; 1643 : 
; 1644 : 	reference at(size_type _Off)
; 1645 : 		{	// subscript mutable sequence with checking
; 1646 : 		if (this->_Mysize <= _Off)
; 1647 : 			_Xran();	// _Off off end
; 1648 : 		return (this->_Myptr()[_Off]);
; 1649 : 		}
; 1650 : 
; 1651 : 	const_reference at(size_type _Off) const
; 1652 : 		{	// subscript nonmutable sequence with checking
; 1653 : 		if (this->_Mysize <= _Off)
; 1654 : 			_Xran();	// _Off off end
; 1655 : 		return (this->_Myptr()[_Off]);
; 1656 : 		}
; 1657 : 
; 1658 : 	reference operator[](size_type _Off)
; 1659 : 		{	// subscript mutable sequence
; 1660 :  #if _ITERATOR_DEBUG_LEVEL == 2
; 1661 : 		if (this->_Mysize < _Off)	// sic
; 1662 : 			_DEBUG_ERROR("string subscript out of range");
; 1663 : 
; 1664 :  #elif _ITERATOR_DEBUG_LEVEL == 1
; 1665 : 		_SCL_SECURE_VALIDATE_RANGE(_Off <= this->_Mysize);	// sic
; 1666 :  #endif /* _ITERATOR_DEBUG_LEVEL == 2 */
; 1667 : 
; 1668 : 		return (this->_Myptr()[_Off]);
; 1669 : 		}
; 1670 : 
; 1671 : 	const_reference operator[](size_type _Off) const
; 1672 : 		{	// subscript nonmutable sequence
; 1673 :  #if _ITERATOR_DEBUG_LEVEL == 2
; 1674 : 		if (this->_Mysize < _Off)	// sic
; 1675 : 			_DEBUG_ERROR("string subscript out of range");
; 1676 : 
; 1677 :  #elif _ITERATOR_DEBUG_LEVEL == 1
; 1678 : 		_SCL_SECURE_VALIDATE_RANGE(_Off <= this->_Mysize);	// sic
; 1679 :  #endif /* _ITERATOR_DEBUG_LEVEL == 2 */
; 1680 : 
; 1681 : 		return (this->_Myptr()[_Off]);
; 1682 : 		}
; 1683 : 
; 1684 : 	void push_back(_Elem _Ch)
; 1685 : 		{	// insert element at end
; 1686 : 		insert(end(), _Ch);
; 1687 : 		}
; 1688 : 
; 1689 :  #if _HAS_CPP0X
; 1690 : 	void pop_back()
; 1691 : 		{	// erase element at end
; 1692 : 		erase(this->_Mysize - 1);	// throws if _Mysize == 0
; 1693 : 		}
; 1694 : 
; 1695 : 	reference front()
; 1696 : 		{	// return first element of mutable sequence
; 1697 : 		return (*begin());
; 1698 : 		}
; 1699 : 
; 1700 : 	const_reference front() const
; 1701 : 		{	// return first element of nonmutable sequence
; 1702 : 		return (*begin());
; 1703 : 		}
; 1704 : 
; 1705 : 	reference back()
; 1706 : 		{	// return last element of mutable sequence
; 1707 : 		return (*(end() - 1));
; 1708 : 		}
; 1709 : 
; 1710 : 	const_reference back() const
; 1711 : 		{	// return last element of nonmutable sequence
; 1712 : 		return (*(end() - 1));
; 1713 : 		}
; 1714 :  #endif /* _HAS_CPP0X */
; 1715 : 
; 1716 : 	const _Elem *c_str() const _NOEXCEPT
; 1717 : 		{	// return pointer to null-terminated nonmutable array
; 1718 : 		return (this->_Myptr());
; 1719 : 		}
; 1720 : 
; 1721 : 	const _Elem *data() const _NOEXCEPT
; 1722 : 		{	// return pointer to nonmutable array
; 1723 : 		return (c_str());
; 1724 : 		}
; 1725 : 
; 1726 : 	size_type length() const _NOEXCEPT
; 1727 : 		{	// return length of sequence
; 1728 : 		return (this->_Mysize);
; 1729 : 		}
; 1730 : 
; 1731 : 	size_type size() const _NOEXCEPT
; 1732 : 		{	// return length of sequence
; 1733 : 		return (this->_Mysize);
; 1734 : 		}
; 1735 : 
; 1736 : 	size_type max_size() const _NOEXCEPT
; 1737 : 		{	// return maximum possible length of sequence
; 1738 : 		size_type _Num = this->_Getal().max_size();
; 1739 : 		return (_Num <= 1 ? 1 : _Num - 1);
; 1740 : 		}
; 1741 : 
; 1742 : 	void resize(size_type _Newsize)
; 1743 : 		{	// determine new length, padding with null elements as needed
; 1744 : 		resize(_Newsize, _Elem());
; 1745 : 		}
; 1746 : 
; 1747 : 	void resize(size_type _Newsize, _Elem _Ch)
; 1748 : 		{	// determine new length, padding with _Ch elements as needed
; 1749 : 		if (_Newsize <= this->_Mysize)
; 1750 : 			_Eos(_Newsize);
; 1751 : 		else
; 1752 : 			append(_Newsize - this->_Mysize, _Ch);
; 1753 : 		}
; 1754 : 
; 1755 : 	size_type capacity() const _NOEXCEPT
; 1756 : 		{	// return current length of allocated storage
; 1757 : 		return (this->_Myres);
; 1758 : 		}
; 1759 : 
; 1760 : 	void reserve(size_type _Newcap = 0)
; 1761 : 		{	// determine new minimum length of allocated storage
; 1762 : 		if (this->_Mysize <= _Newcap && this->_Myres != _Newcap)
; 1763 : 			{	// change reservation
; 1764 : 			size_type _Size = this->_Mysize;
; 1765 : 			if (_Grow(_Newcap, true))
; 1766 : 				_Eos(_Size);
; 1767 : 			}
; 1768 : 		}
; 1769 : 
; 1770 : 	bool empty() const _NOEXCEPT
; 1771 : 		{	// test if sequence is empty
; 1772 : 		return (this->_Mysize == 0);
; 1773 : 		}
; 1774 : 
; 1775 : 	_SCL_INSECURE_DEPRECATE
; 1776 : 
; 1777 : 	size_type copy(_Elem *_Ptr,
; 1778 : 		size_type _Count, size_type _Off = 0) const
; 1779 : 		{	// copy [_Off, _Off + _Count) to [_Ptr, _Ptr + _Count)
; 1780 :  #if _ITERATOR_DEBUG_LEVEL == 2
; 1781 : 		if (_Count != 0)
; 1782 : 			_DEBUG_POINTER(_Ptr);
; 1783 :  #endif /* _ITERATOR_DEBUG_LEVEL == 2 */
; 1784 : 
; 1785 : 		if (this->_Mysize < _Off)
; 1786 : 			_Xran();	// _Off off end
; 1787 : 		if (this->_Mysize - _Off < _Count)
; 1788 : 			_Count = this->_Mysize - _Off;
; 1789 : 		_Traits::copy(_Ptr, this->_Myptr() + _Off, _Count);
; 1790 : 		return (_Count);
; 1791 : 		}
; 1792 : 
; 1793 : 	size_type _Copy_s(_Elem *_Dest, size_type _Dest_size,
; 1794 : 		size_type _Count, size_type _Off = 0) const
; 1795 : 		{	// copy [_Off, _Off + _Count) to [_Dest, _Dest + _Count)
; 1796 :  #if _ITERATOR_DEBUG_LEVEL == 2
; 1797 : 		if (_Count != 0)
; 1798 : 			_DEBUG_POINTER(_Dest);
; 1799 :  #endif /* _ITERATOR_DEBUG_LEVEL == 2 */
; 1800 : 
; 1801 : 		if (this->_Mysize < _Off)
; 1802 : 			_Xran();	// _Off off end
; 1803 : 		if (this->_Mysize - _Off < _Count)
; 1804 : 			_Count = this->_Mysize - _Off;
; 1805 : 		_Traits::_Copy_s(_Dest, _Dest_size, this->_Myptr() + _Off, _Count);
; 1806 : 		return (_Count);
; 1807 : 		}
; 1808 : 
; 1809 : 	void _Swap_bx(_Myt& _Right)
; 1810 : 		{	// exchange _Bx with _Right._Bx
; 1811 : 		if (this->_BUF_SIZE <= this->_Myres)
; 1812 : 			if (this->_BUF_SIZE <= _Right._Myres)
; 1813 : 				_Swap_adl(this->_Bx._Ptr, _Right._Bx._Ptr);
; 1814 : 			else
; 1815 : 				{	// swap large with small
; 1816 : 				pointer _Ptr = this->_Bx._Ptr;
; 1817 : 				this->_Getal().destroy(&this->_Bx._Ptr);
; 1818 : 				_Traits::copy(this->_Bx._Buf,
; 1819 : 					_Right._Bx._Buf, _Right._Mysize + 1);
; 1820 : 				this->_Getal().construct(&_Right._Bx._Ptr, _Ptr);
; 1821 : 				}
; 1822 : 		else
; 1823 : 			if (_Right._Myres < this->_BUF_SIZE)
; 1824 : 				_STD swap(this->_Bx._Buf, _Right._Bx._Buf);
; 1825 : 			else
; 1826 : 				{	// swap small with large
; 1827 : 				pointer _Ptr = _Right._Bx._Ptr;
; 1828 : 				this->_Getal().destroy(&_Right._Bx._Ptr);
; 1829 : 				_Traits::copy(_Right._Bx._Buf,
; 1830 : 					this->_Bx._Buf, this->_Mysize + 1);
; 1831 : 				this->_Getal().construct(&this->_Bx._Ptr, _Ptr);
; 1832 : 				}
; 1833 : 		}
; 1834 : 
; 1835 : 	void swap(_Myt& _Right)
; 1836 : 		{	// exchange contents with _Right
; 1837 : 		if (this == &_Right)
; 1838 : 			;	// same object, do nothing
; 1839 : 		else if (this->_Getal() == _Right._Getal())
; 1840 : 			{	// same allocator, swap control information
; 1841 : 			this->_Swap_all(_Right);
; 1842 : 			_Swap_bx(_Right);
; 1843 : 			_STD swap(this->_Mysize, _Right._Mysize);
; 1844 : 			_STD swap(this->_Myres, _Right._Myres);
; 1845 : 			}
; 1846 : 
; 1847 :  #if _HAS_CPP0X
; 1848 : 		else if (_Alty::propagate_on_container_swap::value)
; 1849 : 			{	// swap allocators and control information
; 1850 : 			this->_Swap_alloc(_Right);
; 1851 : 			_Swap_bx(_Right);
; 1852 : 			_STD swap(this->_Bx, _Right._Bx);	// pointer bitwise copyable?
; 1853 : 			_STD swap(this->_Mysize, _Right._Mysize);
; 1854 : 			_STD swap(this->_Myres, _Right._Myres);
; 1855 : 			}
; 1856 :  #endif /* _HAS_CPP0X */
; 1857 : 
; 1858 : 		else
; 1859 : 			{	// different allocator, do multiple assigns
; 1860 : 			_Myt _Tmp = *this;
; 1861 : 
; 1862 : 			*this = _Right;
; 1863 : 			_Right = _Tmp;
; 1864 : 			}
; 1865 : 		}
; 1866 : 
; 1867 : 	size_type find(const _Myt& _Right, size_type _Off = 0) const _NOEXCEPT
; 1868 : 		{	// look for _Right beginning at or after _Off
; 1869 : 		return (find(_Right._Myptr(), _Off, _Right.size()));
; 1870 : 		}
; 1871 : 
; 1872 : 	size_type find(const _Elem *_Ptr,
; 1873 : 		size_type _Off, size_type _Count) const
; 1874 : 		{	// look for [_Ptr, _Ptr + _Count) beginning at or after _Off
; 1875 :  #if _ITERATOR_DEBUG_LEVEL == 2
; 1876 : 		if (_Count != 0)
; 1877 : 			_DEBUG_POINTER(_Ptr);
; 1878 :  #endif /* _ITERATOR_DEBUG_LEVEL == 2 */
; 1879 : 
; 1880 : 		if (_Count == 0 && _Off <= this->_Mysize)
; 1881 : 			return (_Off);	// null string always matches (if inside string)
; 1882 : 
; 1883 : 		size_type _Nm;
; 1884 : 		if (_Off < this->_Mysize && _Count <= (_Nm = this->_Mysize - _Off))
; 1885 : 			{	// room for match, look for it
; 1886 : 			const _Elem *_Uptr, *_Vptr;
; 1887 : 			for (_Nm -= _Count - 1, _Vptr = this->_Myptr() + _Off;
; 1888 : 				(_Uptr = _Traits::find(_Vptr, _Nm, *_Ptr)) != 0;
; 1889 : 				_Nm -= _Uptr - _Vptr + 1, _Vptr = _Uptr + 1)
; 1890 : 				if (_Traits::compare(_Uptr, _Ptr, _Count) == 0)
; 1891 : 					return (_Uptr - this->_Myptr());	// found a match
; 1892 : 			}
; 1893 : 
; 1894 : 		return (npos);	// no match
; 1895 : 		}
; 1896 : 
; 1897 : 	size_type find(const _Elem *_Ptr, size_type _Off = 0) const
; 1898 : 		{	// look for [_Ptr, <null>) beginning at or after _Off
; 1899 : 		_DEBUG_POINTER(_Ptr);
; 1900 : 		return (find(_Ptr, _Off, _Traits::length(_Ptr)));
; 1901 : 		}
; 1902 : 
; 1903 : 	size_type find(_Elem _Ch, size_type _Off = 0) const
; 1904 : 		{	// look for _Ch at or after _Off
; 1905 : 		return (find((const _Elem *)&_Ch, _Off, 1));
; 1906 : 		}
; 1907 : 
; 1908 : 	size_type rfind(const _Myt& _Right, size_type _Off = npos) const _NOEXCEPT
; 1909 : 		{	// look for _Right beginning before _Off
; 1910 : 		return (rfind(_Right._Myptr(), _Off, _Right.size()));
; 1911 : 		}
; 1912 : 
; 1913 : 	size_type rfind(const _Elem *_Ptr,
; 1914 : 		size_type _Off, size_type _Count) const
; 1915 : 		{	// look for [_Ptr, _Ptr + _Count) beginning before _Off
; 1916 :  #if _ITERATOR_DEBUG_LEVEL == 2
; 1917 : 		if (_Count != 0)
; 1918 : 			_DEBUG_POINTER(_Ptr);
; 1919 :  #endif /* _ITERATOR_DEBUG_LEVEL == 2 */
; 1920 : 
; 1921 : 		if (_Count == 0)
; 1922 : 			return (_Off < this->_Mysize ? _Off
; 1923 : 				: this->_Mysize);	// null always matches
; 1924 : 		if (_Count <= this->_Mysize)
; 1925 : 			{	// room for match, look for it
; 1926 : 			const _Elem *_Uptr = this->_Myptr() +
; 1927 : 				(_Off < this->_Mysize - _Count ? _Off
; 1928 : 					: this->_Mysize - _Count);
; 1929 : 			for (; ; --_Uptr)
; 1930 : 				if (_Traits::eq(*_Uptr, *_Ptr)
; 1931 : 					&& _Traits::compare(_Uptr, _Ptr, _Count) == 0)
; 1932 : 					return (_Uptr - this->_Myptr());	// found a match
; 1933 : 				else if (_Uptr == this->_Myptr())
; 1934 : 					break;	// at beginning, no more chance for match
; 1935 : 			}
; 1936 : 
; 1937 : 		return (npos);	// no match
; 1938 : 		}
; 1939 : 
; 1940 : 	size_type rfind(const _Elem *_Ptr, size_type _Off = npos) const
; 1941 : 		{	// look for [_Ptr, <null>) beginning before _Off
; 1942 : 		_DEBUG_POINTER(_Ptr);
; 1943 : 		return (rfind(_Ptr, _Off, _Traits::length(_Ptr)));
; 1944 : 		}
; 1945 : 
; 1946 : 	size_type rfind(_Elem _Ch, size_type _Off = npos) const
; 1947 : 		{	// look for _Ch before _Off
; 1948 : 		return (rfind((const _Elem *)&_Ch, _Off, 1));
; 1949 : 		}
; 1950 : 
; 1951 : 	size_type find_first_of(const _Myt& _Right,
; 1952 : 		size_type _Off = 0) const _NOEXCEPT
; 1953 : 		{	// look for one of _Right at or after _Off
; 1954 : 		return (find_first_of(_Right._Myptr(), _Off, _Right.size()));
; 1955 : 		}
; 1956 : 
; 1957 : 	size_type find_first_of(const _Elem *_Ptr,
; 1958 : 		size_type _Off, size_type _Count) const
; 1959 : 		{	// look for one of [_Ptr, _Ptr + _Count) at or after _Off
; 1960 :  #if _ITERATOR_DEBUG_LEVEL == 2
; 1961 : 		if (_Count != 0)
; 1962 : 			_DEBUG_POINTER(_Ptr);
; 1963 :  #endif /* _ITERATOR_DEBUG_LEVEL == 2 */
; 1964 : 
; 1965 : 		if (0 < _Count && _Off < this->_Mysize)
; 1966 : 			{	// room for match, look for it
; 1967 : 			const _Elem *const _Vptr = this->_Myptr() + this->_Mysize;
; 1968 : 			for (const _Elem *_Uptr = this->_Myptr() + _Off;
; 1969 : 				_Uptr < _Vptr; ++_Uptr)
; 1970 : 				if (_Traits::find(_Ptr, _Count, *_Uptr) != 0)
; 1971 : 					return (_Uptr - this->_Myptr());	// found a match
; 1972 : 			}
; 1973 : 
; 1974 : 		return (npos);	// no match
; 1975 : 		}
; 1976 : 
; 1977 : 	size_type find_first_of(const _Elem *_Ptr,
; 1978 : 		size_type _Off = 0) const
; 1979 : 		{	// look for one of [_Ptr, <null>) at or after _Off
; 1980 : 		_DEBUG_POINTER(_Ptr);
; 1981 : 		return (find_first_of(_Ptr, _Off, _Traits::length(_Ptr)));
; 1982 : 		}
; 1983 : 
; 1984 : 	size_type find_first_of(_Elem _Ch,
; 1985 : 		size_type _Off = 0) const
; 1986 : 		{	// look for _Ch at or after _Off
; 1987 : 		return (find((const _Elem *)&_Ch, _Off, 1));
; 1988 : 		}
; 1989 : 
; 1990 : 	size_type find_last_of(const _Myt& _Right,
; 1991 : 		size_type _Off = npos) const _NOEXCEPT
; 1992 : 		{	// look for one of _Right before _Off
; 1993 : 		return (find_last_of(_Right._Myptr(), _Off, _Right.size()));
; 1994 : 		}
; 1995 : 
; 1996 : 	size_type find_last_of(const _Elem *_Ptr,
; 1997 : 		size_type _Off, size_type _Count) const
; 1998 : 		{	// look for one of [_Ptr, _Ptr + _Count) before _Off
; 1999 :  #if _ITERATOR_DEBUG_LEVEL == 2
; 2000 : 		if (_Count != 0)
; 2001 : 			_DEBUG_POINTER(_Ptr);
; 2002 :  #endif /* _ITERATOR_DEBUG_LEVEL == 2 */
; 2003 : 
; 2004 : 		if (0 < _Count && 0 < this->_Mysize)
; 2005 : 			{	// worth searching, do it
; 2006 : 			const _Elem *_Uptr = this->_Myptr()
; 2007 : 				+ (_Off < this->_Mysize ? _Off : this->_Mysize - 1);
; 2008 : 			for (; ; --_Uptr)
; 2009 : 				if (_Traits::find(_Ptr, _Count, *_Uptr) != 0)
; 2010 : 					return (_Uptr - this->_Myptr());	// found a match
; 2011 : 				else if (_Uptr == this->_Myptr())
; 2012 : 					break;	// at beginning, no more chance for match
; 2013 : 			}
; 2014 : 
; 2015 : 		return (npos);	// no match
; 2016 : 		}
; 2017 : 
; 2018 : 	size_type find_last_of(const _Elem *_Ptr,
; 2019 : 		size_type _Off = npos) const
; 2020 : 		{	// look for one of [_Ptr, <null>) before _Off
; 2021 : 		_DEBUG_POINTER(_Ptr);
; 2022 : 		return (find_last_of(_Ptr, _Off, _Traits::length(_Ptr)));
; 2023 : 		}
; 2024 : 
; 2025 : 	size_type find_last_of(_Elem _Ch,
; 2026 : 		size_type _Off = npos) const
; 2027 : 		{	// look for _Ch before _Off
; 2028 : 		return (rfind((const _Elem *)&_Ch, _Off, 1));
; 2029 : 		}
; 2030 : 
; 2031 : 	size_type find_first_not_of(const _Myt& _Right,
; 2032 : 		size_type _Off = 0) const _NOEXCEPT
; 2033 : 		{	// look for none of _Right at or after _Off
; 2034 : 		return (find_first_not_of(_Right._Myptr(), _Off,
; 2035 : 			_Right.size()));
; 2036 : 		}
; 2037 : 
; 2038 : 	size_type find_first_not_of(const _Elem *_Ptr,
; 2039 : 		size_type _Off, size_type _Count) const
; 2040 : 		{	// look for none of [_Ptr, _Ptr + _Count) at or after _Off
; 2041 :  #if _ITERATOR_DEBUG_LEVEL == 2
; 2042 : 		if (_Count != 0)
; 2043 : 			_DEBUG_POINTER(_Ptr);
; 2044 :  #endif /* _ITERATOR_DEBUG_LEVEL == 2 */
; 2045 : 
; 2046 : 		if (_Off < this->_Mysize)
; 2047 : 			{	// room for match, look for it
; 2048 : 			const _Elem *const _Vptr = this->_Myptr() + this->_Mysize;
; 2049 : 			for (const _Elem *_Uptr = this->_Myptr() + _Off;
; 2050 : 				_Uptr < _Vptr; ++_Uptr)
; 2051 : 				if (_Traits::find(_Ptr, _Count, *_Uptr) == 0)
; 2052 : 					return (_Uptr - this->_Myptr());
; 2053 : 			}
; 2054 : 		return (npos);
; 2055 : 		}
; 2056 : 
; 2057 : 	size_type find_first_not_of(const _Elem *_Ptr,
; 2058 : 		size_type _Off = 0) const
; 2059 : 		{	// look for one of [_Ptr, <null>) at or after _Off
; 2060 : 		_DEBUG_POINTER(_Ptr);
; 2061 : 		return (find_first_not_of(_Ptr, _Off, _Traits::length(_Ptr)));
; 2062 : 		}
; 2063 : 
; 2064 : 	size_type find_first_not_of(_Elem _Ch,
; 2065 : 		size_type _Off = 0) const
; 2066 : 		{	// look for non _Ch at or after _Off
; 2067 : 		return (find_first_not_of((const _Elem *)&_Ch, _Off, 1));
; 2068 : 		}
; 2069 : 
; 2070 : 	size_type find_last_not_of(const _Myt& _Right,
; 2071 : 		size_type _Off = npos) const _NOEXCEPT
; 2072 : 		{	// look for none of _Right before _Off
; 2073 : 		return (find_last_not_of(_Right._Myptr(), _Off, _Right.size()));
; 2074 : 		}
; 2075 : 
; 2076 : 	size_type find_last_not_of(const _Elem *_Ptr,
; 2077 : 		size_type _Off, size_type _Count) const
; 2078 : 		{	// look for none of [_Ptr, _Ptr + _Count) before _Off
; 2079 :  #if _ITERATOR_DEBUG_LEVEL == 2
; 2080 : 		if (_Count != 0)
; 2081 : 			_DEBUG_POINTER(_Ptr);
; 2082 :  #endif /* _ITERATOR_DEBUG_LEVEL == 2 */
; 2083 : 
; 2084 : 		if (0 < this->_Mysize)
; 2085 : 			{	// worth searching, do it
; 2086 : 			const _Elem *_Uptr = this->_Myptr()
; 2087 : 				+ (_Off < this->_Mysize ? _Off : this->_Mysize - 1);
; 2088 : 			for (; ; --_Uptr)
; 2089 : 				if (_Traits::find(_Ptr, _Count, *_Uptr) == 0)
; 2090 : 					return (_Uptr - this->_Myptr());
; 2091 : 				else if (_Uptr == this->_Myptr())
; 2092 : 					break;
; 2093 : 			}
; 2094 : 		return (npos);
; 2095 : 		}
; 2096 : 
; 2097 : 	size_type find_last_not_of(const _Elem *_Ptr,
; 2098 : 		size_type _Off = npos) const
; 2099 : 		{	// look for none of [_Ptr, <null>) before _Off
; 2100 : 		_DEBUG_POINTER(_Ptr);
; 2101 : 		return (find_last_not_of(_Ptr, _Off, _Traits::length(_Ptr)));
; 2102 : 		}
; 2103 : 
; 2104 : 	size_type find_last_not_of(_Elem _Ch,
; 2105 : 		size_type _Off = npos) const
; 2106 : 		{	// look for non _Ch before _Off
; 2107 : 		return (find_last_not_of((const _Elem *)&_Ch, _Off, 1));
; 2108 : 		}
; 2109 : 
; 2110 : 	_Myt substr(size_type _Off = 0, size_type _Count = npos) const
; 2111 : 		{	// return [_Off, _Off + _Count) as new string
; 2112 : 		return (_Myt(*this, _Off, _Count, get_allocator()));
; 2113 : 		}
; 2114 : 
; 2115 : 	int compare(const _Myt& _Right) const _NOEXCEPT
; 2116 : 		{	// compare [0, _Mysize) with _Right
; 2117 : 		return (compare(0, this->_Mysize, _Right._Myptr(), _Right.size()));
; 2118 : 		}
; 2119 : 
; 2120 : 	int compare(size_type _Off, size_type _N0,
; 2121 : 		const _Myt& _Right) const
; 2122 : 		{	// compare [_Off, _Off + _N0) with _Right
; 2123 : 		return (compare(_Off, _N0, _Right, 0, npos));
; 2124 : 		}
; 2125 : 
; 2126 : 	int compare(size_type _Off,
; 2127 : 		size_type _N0, const _Myt& _Right,
; 2128 : 		size_type _Roff, size_type _Count) const
; 2129 : 		{	// compare [_Off, _Off + _N0) with _Right [_Roff, _Roff + _Count)
; 2130 : 		if (_Right.size() < _Roff)
; 2131 : 			_Xran();	// _Off off end
; 2132 : 		if (_Right._Mysize - _Roff < _Count)
; 2133 : 			_Count = _Right._Mysize - _Roff;	// trim _Count to size
; 2134 : 		return (compare(_Off, _N0, _Right._Myptr() + _Roff, _Count));
; 2135 : 		}
; 2136 : 
; 2137 : 	int compare(const _Elem *_Ptr) const
; 2138 : 		{	// compare [0, _Mysize) with [_Ptr, <null>)
; 2139 : 		_DEBUG_POINTER(_Ptr);
; 2140 : 		return (compare(0, this->_Mysize, _Ptr, _Traits::length(_Ptr)));
; 2141 : 		}
; 2142 : 
; 2143 : 	int compare(size_type _Off, size_type _N0, const _Elem *_Ptr) const
; 2144 : 		{	// compare [_Off, _Off + _N0) with [_Ptr, <null>)
; 2145 : 		_DEBUG_POINTER(_Ptr);
; 2146 : 		return (compare(_Off, _N0, _Ptr, _Traits::length(_Ptr)));
; 2147 : 		}
; 2148 : 
; 2149 : 	int compare(size_type _Off,
; 2150 : 		size_type _N0, const _Elem *_Ptr, size_type _Count) const
; 2151 : 		{	// compare [_Off, _Off + _N0) with [_Ptr, _Ptr + _Count)
; 2152 :  #if _ITERATOR_DEBUG_LEVEL == 2
; 2153 : 		if (_Count != 0)
; 2154 : 			_DEBUG_POINTER(_Ptr);
; 2155 :  #endif /* _ITERATOR_DEBUG_LEVEL == 2 */
; 2156 : 
; 2157 : 		if (this->_Mysize < _Off)
; 2158 : 			_Xran();	// _Off off end
; 2159 : 		if (this->_Mysize - _Off < _N0)
; 2160 : 			_N0 = this->_Mysize - _Off;	// trim _N0 to size
; 2161 : 
; 2162 : 		size_type _Ans = _Traits::compare(this->_Myptr() + _Off, _Ptr,
; 2163 : 			_N0 < _Count ? _N0 : _Count);
; 2164 : 		return (_Ans != 0 ? (int)_Ans : _N0 < _Count ? -1
; 2165 : 			: _N0 == _Count ? 0 : +1);
; 2166 : 		}
; 2167 : 
; 2168 : 	allocator_type get_allocator() const _NOEXCEPT
; 2169 : 		{	// return allocator object for values
; 2170 : 		return (this->_Getal());
; 2171 : 		}
; 2172 : 
; 2173 : 	void _Chassign(size_type _Off, size_type _Count, _Elem _Ch)
; 2174 : 		{	// assign _Count copies of _Ch beginning at _Off
; 2175 : 		if (_Count == 1)
; 2176 : 			_Traits::assign(*(this->_Myptr() + _Off), _Ch);
; 2177 : 		else
; 2178 : 			_Traits::assign(this->_Myptr() + _Off, _Count, _Ch);
; 2179 : 		}
; 2180 : 
; 2181 : 	void _Copy(size_type _Newsize, size_type _Oldlen)
; 2182 : 		{	// copy _Oldlen elements to newly allocated buffer
; 2183 : 		size_type _Newres = _Newsize | this->_ALLOC_MASK;
; 2184 : 		if (max_size() < _Newres)
; 2185 : 			_Newres = _Newsize;	// undo roundup if too big
; 2186 : 		else if (this->_Myres / 2 <= _Newres / 3)
; 2187 : 			;
; 2188 : 		else if (this->_Myres <= max_size() - this->_Myres / 2)
; 2189 : 			_Newres = this->_Myres
; 2190 : 				+ this->_Myres / 2;	// grow exponentially if possible
; 2191 : 		else
; 2192 : 			_Newres = max_size();	// settle for max_size()
; 2193 : 
; 2194 : 		_Elem *_Ptr;
; 2195 : 		_TRY_BEGIN
; 2196 : 			_Ptr = this->_Getal().allocate(_Newres + 1);
; 2197 : 		_CATCH_ALL
; 2198 : 			_Newres = _Newsize;	// allocation failed, undo roundup and retry
; 2199 : 			_TRY_BEGIN
; 2200 : 				_Ptr = this->_Getal().allocate(_Newres + 1);
; 2201 : 			_CATCH_ALL
; 2202 : 			_Tidy(true);	// failed again, discard storage and reraise
; 2203 : 			_RERAISE;
; 2204 : 			_CATCH_END
; 2205 : 		_CATCH_END
; 2206 : 
; 2207 : 		if (0 < _Oldlen)
; 2208 : 			_Traits::copy(_Ptr, this->_Myptr(),
; 2209 : 				_Oldlen);	// copy existing elements
; 2210 : 		_Tidy(true);
; 2211 : 		this->_Getal().construct(&this->_Bx._Ptr, _Ptr);
; 2212 : 		this->_Myres = _Newres;
; 2213 : 		_Eos(_Oldlen);
; 2214 : 		}
; 2215 : 
; 2216 : 	void _Eos(size_type _Newsize)
; 2217 : 		{	// set new length and null terminator
; 2218 : 		_Traits::assign(this->_Myptr()[this->_Mysize = _Newsize], _Elem());

  00870	4c 89 65 40	 mov	 QWORD PTR $T14[rbp-240], r12
; File c:\program files (x86)\microsoft visual studio 11.0\vc\include\iosfwd

; 564  : 		_Left = _Right;

  00874	44 88 65 30	 mov	 BYTE PTR $T14[rbp-256], r12b
; File c:\program files (x86)\microsoft visual studio 11.0\vc\include\xstring

; 1144 : 		return (assign(_Ptr, _Traits::length(_Ptr)));

  00878	41 b8 10 00 00
	00		 mov	 r8d, 16
  0087e	48 8d 15 00 00
	00 00		 lea	 rdx, OFFSET FLAT:$SG4294945225
  00885	48 8d 4d 30	 lea	 rcx, QWORD PTR $T14[rbp-256]
  00889	e8 00 00 00 00	 call	 ?assign@?$basic_string@DU?$char_traits@D@std@@V?$allocator@D@2@@std@@QEAAAEAV12@PEBD_K@Z ; std::basic_string<char,std::char_traits<char>,std::allocator<char> >::assign
; File c:\users\glenn\documents\github\wind\project\wind\wind\renderthread.cpp

; 95   : 	if(!program.prepare("arrayInsideCheck")) return false;

  0088e	48 8d 55 30	 lea	 rdx, QWORD PTR $T14[rbp-256]
  00892	48 8d 0d 00 00
	00 00		 lea	 rcx, OFFSET FLAT:?program@@3VProgram@cl@@A ; program
  00899	e8 00 00 00 00	 call	 ?prepare@Program@cl@@QEAA_NV?$basic_string@DU?$char_traits@D@std@@V?$allocator@D@2@@std@@@Z ; cl::Program::prepare
  0089e	84 c0		 test	 al, al
  008a0	0f 84 8a 0d 00
	00		 je	 $LN1151@tick
; File c:\users\glenn\documents\github\wind\project\wind\wind\opencl.cpp

; 214  : 	if(!preparedKernel)

  008a6	48 8b 0d 28 00
	00 00		 mov	 rcx, QWORD PTR ?program@@3VProgram@cl@@A+40
  008ad	48 85 c9	 test	 rcx, rcx
  008b0	0f 84 77 fd ff
	ff		 je	 $LN1172@tick

; 218  : 	}
; 219  : 	cl_int error = clSetKernelArg(preparedKernel, argIndex++, size, value);

  008b6	8b 05 20 00 00
	00		 mov	 eax, DWORD PTR ?program@@3VProgram@cl@@A+32
  008bc	8b d0		 mov	 edx, eax
  008be	ff c0		 inc	 eax
  008c0	89 05 20 00 00
	00		 mov	 DWORD PTR ?program@@3VProgram@cl@@A+32, eax
  008c6	4c 8d 0d 00 00
	00 00		 lea	 r9, OFFSET FLAT:renderDistance
  008cd	41 b8 04 00 00
	00		 mov	 r8d, 4
  008d3	ff 15 00 00 00
	00		 call	 QWORD PTR __imp_clSetKernelArg

; 220  : 	if(error != CL_SUCCESS)

  008d9	85 c0		 test	 eax, eax
  008db	0f 85 86 fd ff
	ff		 jne	 $LN1170@tick

; 214  : 	if(!preparedKernel)

  008e1	48 8b 0d 28 00
	00 00		 mov	 rcx, QWORD PTR ?program@@3VProgram@cl@@A+40
  008e8	48 85 c9	 test	 rcx, rcx
  008eb	0f 84 3c fd ff
	ff		 je	 $LN1172@tick

; 218  : 	}
; 219  : 	cl_int error = clSetKernelArg(preparedKernel, argIndex++, size, value);

  008f1	8b 05 20 00 00
	00		 mov	 eax, DWORD PTR ?program@@3VProgram@cl@@A+32
  008f7	8b d0		 mov	 edx, eax
  008f9	ff c0		 inc	 eax
  008fb	89 05 20 00 00
	00		 mov	 DWORD PTR ?program@@3VProgram@cl@@A+32, eax
  00901	4c 8d 0d 08 00
	00 00		 lea	 r9, OFFSET FLAT:?gridBuffer@@3VBuffer@cl@@A+8
  00908	41 b8 08 00 00
	00		 mov	 r8d, 8
  0090e	ff 15 00 00 00
	00		 call	 QWORD PTR __imp_clSetKernelArg

; 220  : 	if(error != CL_SUCCESS)

  00914	85 c0		 test	 eax, eax
  00916	0f 85 4b fd ff
	ff		 jne	 $LN1170@tick

; 214  : 	if(!preparedKernel)

  0091c	48 8b 0d 28 00
	00 00		 mov	 rcx, QWORD PTR ?program@@3VProgram@cl@@A+40
  00923	48 85 c9	 test	 rcx, rcx
  00926	0f 84 01 fd ff
	ff		 je	 $LN1172@tick

; 218  : 	}
; 219  : 	cl_int error = clSetKernelArg(preparedKernel, argIndex++, size, value);

  0092c	8b 05 20 00 00
	00		 mov	 eax, DWORD PTR ?program@@3VProgram@cl@@A+32
  00932	8b d0		 mov	 edx, eax
  00934	ff c0		 inc	 eax
  00936	89 05 20 00 00
	00		 mov	 DWORD PTR ?program@@3VProgram@cl@@A+32, eax
  0093c	4c 8d 0d 08 00
	00 00		 lea	 r9, OFFSET FLAT:?boolBuffer@@3VBuffer@cl@@A+8
  00943	41 b8 08 00 00
	00		 mov	 r8d, 8
  00949	ff 15 00 00 00
	00		 call	 QWORD PTR __imp_clSetKernelArg

; 220  : 	if(error != CL_SUCCESS)

  0094f	85 c0		 test	 eax, eax
  00951	0f 85 10 fd ff
	ff		 jne	 $LN1170@tick

; 223  : 		return false;
; 224  : 	}
; 225  : 	return true;
; 226  : }
; 227  : 
; 228  : bool cl::Program::setArgument(size_t size, Buffer* value)
; 229  : {
; 230  : 	return setArgument(size, &value->mem);
; 231  : }
; 232  : 
; 233  : bool cl::Program::invoke(CommandQueue& queue, cl_uint dimensions, const size_t* globalWorkSize, const size_t* localWorkSize)
; 234  : {
; 235  : 	if(!preparedKernel)

  00957	48 8b 15 28 00
	00 00		 mov	 rdx, QWORD PTR ?program@@3VProgram@cl@@A+40
  0095e	48 85 d2	 test	 rdx, rdx
  00961	0f 84 34 fe ff
	ff		 je	 $LN1173@tick

; 239  : 	}
; 240  : 
; 241  : 	cl_int error;
; 242  : 	cl_event event;
; 243  : 
; 244  : 	error = clEnqueueNDRangeKernel(queue.queue, preparedKernel, dimensions, NULL, globalWorkSize, localWorkSize, 0, NULL, &event);

  00967	48 8d 45 28	 lea	 rax, QWORD PTR event$13[rbp-256]
  0096b	48 89 44 24 40	 mov	 QWORD PTR [rsp+64], rax
  00970	4c 89 64 24 38	 mov	 QWORD PTR [rsp+56], r12
  00975	44 89 64 24 30	 mov	 DWORD PTR [rsp+48], r12d
  0097a	48 8d 85 f8 05
	00 00		 lea	 rax, QWORD PTR local_ws_2$[rbp-256]
  00981	48 89 44 24 28	 mov	 QWORD PTR [rsp+40], rax
  00986	48 8d 85 e0 05
	00 00		 lea	 rax, QWORD PTR global_ws_2$[rbp-256]
  0098d	48 89 44 24 20	 mov	 QWORD PTR [rsp+32], rax
  00992	45 33 c9	 xor	 r9d, r9d
  00995	45 8d 41 03	 lea	 r8d, QWORD PTR [r9+3]
  00999	48 8b 0d 00 00
	00 00		 mov	 rcx, QWORD PTR ?commandQueue@@3VCommandQueue@cl@@A
  009a0	ff 15 00 00 00
	00		 call	 QWORD PTR __imp_clEnqueueNDRangeKernel

; 245  : 	if(error != CL_SUCCESS)

  009a6	85 c0		 test	 eax, eax
  009a8	0f 85 43 fe ff
	ff		 jne	 $LN1171@tick

; 251  : 	queue.addSyncEvent(event);

  009ae	48 8b 55 28	 mov	 rdx, QWORD PTR event$13[rbp-256]
  009b2	48 8d 0d 00 00
	00 00		 lea	 rcx, OFFSET FLAT:?commandQueue@@3VCommandQueue@cl@@A ; commandQueue
  009b9	e8 00 00 00 00	 call	 ?addSyncEvent@CommandQueue@cl@@QEAAXPEAU_cl_event@@@Z ; cl::CommandQueue::addSyncEvent

; 252  : 
; 253  : 	preparedKernel = 0;

  009be	4c 89 25 28 00
	00 00		 mov	 QWORD PTR ?program@@3VProgram@cl@@A+40, r12
; File c:\program files (x86)\microsoft visual studio 11.0\vc\include\thr\xthread

; 83   : 	return (_Check_C_return(_Mtx_unlock(_Mtx)));

  009c5	48 8d 0d 18 00
	00 00		 lea	 rcx, OFFSET FLAT:?program@@3VProgram@cl@@A+24
  009cc	e8 00 00 00 00	 call	 _Mtx_unlock

; 32   : 	if (_Res != _Thrd_success)

  009d1	85 c0		 test	 eax, eax
  009d3	74 07		 je	 SHORT $LN22@tick

; 33   : 		_Throw_C_error(_Res);

  009d5	8b c8		 mov	 ecx, eax
  009d7	e8 00 00 00 00	 call	 ?_Throw_C_error@std@@YAXH@Z ; std::_Throw_C_error
$LN22@tick:
; File c:\users\glenn\documents\github\wind\project\wind\wind\opencl.cpp

; 317  : 	if(!okay) return false;

  009dc	44 38 25 00 00
	00 00		 cmp	 BYTE PTR ?gridBuffer@@3VBuffer@cl@@A, r12b
  009e3	0f 84 47 0c 00
	00		 je	 $LN1151@tick

; 318  : 
; 319  : 	cl_event event;
; 320  : 
; 321  : 	cl_int error = clEnqueueReadBuffer(queue.queue, mem, CL_TRUE, offset, cb, data, 0, NULL, &event);

  009e9	48 8d 45 00	 lea	 rax, QWORD PTR event$9[rbp-256]
  009ed	48 89 44 24 40	 mov	 QWORD PTR [rsp+64], rax
  009f2	4c 89 64 24 38	 mov	 QWORD PTR [rsp+56], r12
  009f7	44 89 64 24 30	 mov	 DWORD PTR [rsp+48], r12d
  009fc	48 8d 05 00 00
	00 00		 lea	 rax, OFFSET FLAT:?bGrid@@3PAY1BF@BF@_NA ; bGrid
  00a03	48 89 44 24 28	 mov	 QWORD PTR [rsp+40], rax
  00a08	48 8b 05 10 00
	00 00		 mov	 rax, QWORD PTR ?gridBuffer@@3VBuffer@cl@@A+16
  00a0f	48 89 44 24 20	 mov	 QWORD PTR [rsp+32], rax
  00a14	45 33 c9	 xor	 r9d, r9d
  00a17	45 8b c6	 mov	 r8d, r14d
  00a1a	48 8b 15 08 00
	00 00		 mov	 rdx, QWORD PTR ?gridBuffer@@3VBuffer@cl@@A+8
  00a21	48 8b 0d 00 00
	00 00		 mov	 rcx, QWORD PTR ?commandQueue@@3VCommandQueue@cl@@A
  00a28	ff 15 00 00 00
	00		 call	 QWORD PTR __imp_clEnqueueReadBuffer

; 322  : 	if(error)

  00a2e	85 c0		 test	 eax, eax
  00a30	74 13		 je	 SHORT $LN281@tick

; 323  : 	{
; 324  : 		GLWindow::instance->postError("Failed to read buffer", "OpenCL buffer read error");

  00a32	4c 8d 05 00 00
	00 00		 lea	 r8, OFFSET FLAT:$SG4294952785
  00a39	48 8d 15 00 00
	00 00		 lea	 rdx, OFFSET FLAT:$SG4294952784

; 325  : 		return false;

  00a40	e9 e6 0b 00 00	 jmp	 $LN1158@tick
$LN281@tick:

; 326  : 	}
; 327  : 
; 328  : 	queue.addSyncEvent(event);

  00a45	48 8b 55 00	 mov	 rdx, QWORD PTR event$9[rbp-256]
  00a49	48 8d 0d 00 00
	00 00		 lea	 rcx, OFFSET FLAT:?commandQueue@@3VCommandQueue@cl@@A ; commandQueue
  00a50	e8 00 00 00 00	 call	 ?addSyncEvent@CommandQueue@cl@@QEAAXPEAU_cl_event@@@Z ; cl::CommandQueue::addSyncEvent
; File c:\users\glenn\documents\github\wind\project\wind\wind\graphics.cpp

; 879  : 	int error = glGetError();

  00a55	ff 15 00 00 00
	00		 call	 QWORD PTR __imp_glGetError

; 880  : 	if(error != GL_NO_ERROR)

  00a5b	85 c0		 test	 eax, eax
  00a5d	74 17		 je	 SHORT $LN286@tick

; 881  : 	{
; 882  : 		const char* errorString = (const char*)gluErrorString(error);

  00a5f	8b c8		 mov	 ecx, eax
  00a61	ff 15 00 00 00
	00		 call	 QWORD PTR __imp_gluErrorString

; 883  : 		GLWindow::instance->postError(errorString, caption);

  00a67	4c 8d 05 00 00
	00 00		 lea	 r8, OFFSET FLAT:$SG4294945224
  00a6e	48 8b d0	 mov	 rdx, rax
  00a71	e8 00 00 00 00	 call	 ?postError@GLWindow@@QEAAXPEBD0@Z ; GLWindow::postError
$LN286@tick:
; File c:\program files (x86)\microsoft visual studio 11.0\vc\include\thr\xthread

; 68   : 	return (_Check_C_return(_Mtx_lock(_Mtx)));

  00a76	48 8d 0d 40 00
	00 00		 lea	 rcx, OFFSET FLAT:?world@GlobalThread@@3VWorld@@A+64
  00a7d	e8 00 00 00 00	 call	 _Mtx_lock

; 32   : 	if (_Res != _Thrd_success)

  00a82	85 c0		 test	 eax, eax
  00a84	74 07		 je	 SHORT $LN293@tick

; 33   : 		_Throw_C_error(_Res);

  00a86	8b c8		 mov	 ecx, eax
  00a88	e8 00 00 00 00	 call	 ?_Throw_C_error@std@@YAXH@Z ; std::_Throw_C_error
$LN293@tick:

; 68   : 	return (_Check_C_return(_Mtx_lock(_Mtx)));

  00a8d	48 8d 0d 88 00
	00 00		 lea	 rcx, OFFSET FLAT:?world@GlobalThread@@3VWorld@@A+136
  00a94	e8 00 00 00 00	 call	 _Mtx_lock

; 32   : 	if (_Res != _Thrd_success)

  00a99	85 c0		 test	 eax, eax
  00a9b	74 07		 je	 SHORT $LN1103@tick

; 33   : 		_Throw_C_error(_Res);

  00a9d	8b c8		 mov	 ecx, eax
  00a9f	e8 00 00 00 00	 call	 ?_Throw_C_error@std@@YAXH@Z ; std::_Throw_C_error
$LN1103@tick:
; File c:\program files (x86)\microsoft visual studio 11.0\vc\include\deque

; 1382 : 		return (this->_Mysize == 0);

  00aa4	4c 39 25 b0 00
	00 00		 cmp	 QWORD PTR ?world@GlobalThread@@3VWorld@@A+176, r12
; File c:\users\glenn\documents\github\wind\project\wind\wind\renderthread.cpp

; 121  : 	while(!GlobalThread::world.additionQueue.empty())

  00aab	0f 84 be 00 00
	00		 je	 $LN19@tick
$LL20@tick:
; File c:\program files (x86)\microsoft visual studio 11.0\vc\include\deque

; 1426 : 		return (*begin());

  00ab1	48 8d 95 00 03
	00 00		 lea	 rdx, QWORD PTR $T31[rbp-256]
  00ab8	48 8d 0d 90 00
	00 00		 lea	 rcx, OFFSET FLAT:?world@GlobalThread@@3VWorld@@A+144
  00abf	e8 00 00 00 00	 call	 ?begin@?$deque@V?$shared_ptr@VChunkBase@@@std@@V?$allocator@V?$shared_ptr@VChunkBase@@@std@@@2@@std@@QEAA?AV?$_Deque_iterator@V?$_Deque_val@U?$_Deque_simple_types@V?$shared_ptr@VChunkBase@@@std@@@std@@@std@@@2@XZ ; std::deque<std::shared_ptr<ChunkBase>,std::allocator<std::shared_ptr<ChunkBase> > >::begin
  00ac4	48 8b d0	 mov	 rdx, rax
; File c:\program files (x86)\microsoft visual studio 11.0\vc\include\xutility

; 178  : 		return (_Myproxy == 0 ? 0 : _Myproxy->_Mycont);

  00ac7	48 8b 00	 mov	 rax, QWORD PTR [rax]
  00aca	48 85 c0	 test	 rax, rax
  00acd	75 05		 jne	 SHORT $LN317@tick
  00acf	49 8b c4	 mov	 rax, r12
  00ad2	eb 03		 jmp	 SHORT $LN318@tick
$LN317@tick:
  00ad4	48 8b 00	 mov	 rax, QWORD PTR [rax]
$LN318@tick:
; File c:\program files (x86)\microsoft visual studio 11.0\vc\include\deque

; 787  : 		return ((_Off / _DEQUESIZ) & (this->_Mapsize - 1));

  00ad7	48 8b 48 10	 mov	 rcx, QWORD PTR [rax+16]
  00adb	48 ff c9	 dec	 rcx
  00ade	48 23 4a 10	 and	 rcx, QWORD PTR [rdx+16]

; 1426 : 		return (*begin());

  00ae2	48 8b 40 08	 mov	 rax, QWORD PTR [rax+8]
  00ae6	48 8b 0c c8	 mov	 rcx, QWORD PTR [rax+rcx*8]
; File c:\program files (x86)\microsoft visual studio 11.0\vc\include\memory

; 357  : 		_Reset(_Other._Ptr, _Other._Rep);

  00aea	48 8b 59 08	 mov	 rbx, QWORD PTR [rcx+8]
  00aee	48 8b 39	 mov	 rdi, QWORD PTR [rcx]

; 358  : 		}
; 359  : 
; 360  : 	template<class _Ty2>
; 361  : 		void _Reset(const _Ptr_base<_Ty2>& _Other, bool _Throw)
; 362  : 		{	// release resource and take ownership from weak_ptr _Other._Ptr
; 363  : 		_Reset(_Other._Ptr, _Other._Rep, _Throw);
; 364  : 		}
; 365  : 
; 366  : 	template<class _Ty2>
; 367  : 		void _Reset(const _Ptr_base<_Ty2>& _Other, const _Static_tag&)
; 368  : 		{	// release resource and take ownership of _Other._Ptr
; 369  : 		_Reset(static_cast<_Elem *>(_Other._Ptr), _Other._Rep);
; 370  : 		}
; 371  : 
; 372  : 	template<class _Ty2>
; 373  : 		void _Reset(const _Ptr_base<_Ty2>& _Other, const _Const_tag&)
; 374  : 		{	// release resource and take ownership of _Other._Ptr
; 375  : 		_Reset(const_cast<_Elem *>(_Other._Ptr), _Other._Rep);
; 376  : 		}
; 377  : 
; 378  : 	template<class _Ty2>
; 379  : 		void _Reset(const _Ptr_base<_Ty2>& _Other, const _Dynamic_tag&)
; 380  : 		{	// release resource and take ownership of _Other._Ptr
; 381  : 		_Elem *_Ptr = dynamic_cast<_Elem *>(_Other._Ptr);
; 382  : 		if (_Ptr)
; 383  : 			_Reset(_Ptr, _Other._Rep);
; 384  : 		else
; 385  : 			_Reset();
; 386  : 		}
; 387  : 
; 388  : 	template<class _Ty2>
; 389  : 		void _Reset(auto_ptr<_Ty2>&& _Other)
; 390  : 		{	// release resource and take _Other.get()
; 391  : 		_Ty2 *_Px = _Other.get();
; 392  : 		_Reset0(_Px, new _Ref_count<_Elem>(_Px));
; 393  : 		_Other.release();
; 394  : 		_Enable_shared(_Px, _Rep);
; 395  : 		}
; 396  : 
; 397  :  #if _HAS_CPP0X
; 398  : 	template<class _Ty2>
; 399  : 		void _Reset(_Ty *_Ptr, const _Ptr_base<_Ty2>& _Other)
; 400  : 		{	// release resource and alias _Ptr with _Other_rep
; 401  : 		_Reset(_Ptr, _Other._Rep);
; 402  : 		}
; 403  :  #endif /* _HAS_CPP0X */
; 404  : 
; 405  : 	void _Reset(_Ty *_Other_ptr, _Ref_count_base *_Other_rep)
; 406  : 		{	// release resource and take _Other_ptr through _Other_rep
; 407  : 		if (_Other_rep)

  00af1	48 85 db	 test	 rbx, rbx
  00af4	74 04		 je	 SHORT $LN338@tick

; 108  : 		_MT_INCR(_Ignored, _Uses);

  00af6	f0 ff 43 08	 lock inc DWORD PTR [rbx+8]
$LN338@tick:

; 410  : 		}
; 411  : 
; 412  : 	void _Reset(_Ty *_Other_ptr, _Ref_count_base *_Other_rep, bool _Throw)
; 413  : 		{	// take _Other_ptr through _Other_rep from weak_ptr if not expired
; 414  : 			// otherwise, leave in default state if !_Throw,
; 415  : 			// otherwise throw exception
; 416  : 		if (_Other_rep && _Other_rep->_Incref_nz())
; 417  : 			_Reset0(_Other_ptr, _Other_rep);
; 418  : 		else if (_Throw)
; 419  : 			_THROW_NCEE(bad_weak_ptr, 0);
; 420  : 		}
; 421  : 
; 422  : 	void _Reset0(_Ty *_Other_ptr, _Ref_count_base *_Other_rep)
; 423  : 		{	// release resource and take new resource
; 424  : 		if (_Rep != 0)
; 425  : 			_Rep->_Decref();
; 426  : 		_Rep = _Other_rep;

  00afa	48 89 5d 78	 mov	 QWORD PTR c$16[rbp-248], rbx

; 427  : 		_Ptr = _Other_ptr;

  00afe	48 89 7d 70	 mov	 QWORD PTR c$16[rbp-256], rdi
; File c:\program files (x86)\microsoft visual studio 11.0\vc\include\queue

; 160  : 		c.pop_front();

  00b02	48 8d 0d 90 00
	00 00		 lea	 rcx, OFFSET FLAT:?world@GlobalThread@@3VWorld@@A+144
  00b09	e8 00 00 00 00	 call	 ?pop_front@?$deque@V?$shared_ptr@VChunkBase@@@std@@V?$allocator@V?$shared_ptr@VChunkBase@@@std@@@2@@std@@QEAAXXZ ; std::deque<std::shared_ptr<ChunkBase>,std::allocator<std::shared_ptr<ChunkBase> > >::pop_front
; File c:\program files (x86)\microsoft visual studio 11.0\vc\include\memory

; 282  : 		{	// construct

  00b0e	4c 89 65 08	 mov	 QWORD PTR $T10[rbp-256], r12
  00b12	4c 89 65 10	 mov	 QWORD PTR $T10[rbp-248], r12

; 358  : 		}
; 359  : 
; 360  : 	template<class _Ty2>
; 361  : 		void _Reset(const _Ptr_base<_Ty2>& _Other, bool _Throw)
; 362  : 		{	// release resource and take ownership from weak_ptr _Other._Ptr
; 363  : 		_Reset(_Other._Ptr, _Other._Rep, _Throw);
; 364  : 		}
; 365  : 
; 366  : 	template<class _Ty2>
; 367  : 		void _Reset(const _Ptr_base<_Ty2>& _Other, const _Static_tag&)
; 368  : 		{	// release resource and take ownership of _Other._Ptr
; 369  : 		_Reset(static_cast<_Elem *>(_Other._Ptr), _Other._Rep);
; 370  : 		}
; 371  : 
; 372  : 	template<class _Ty2>
; 373  : 		void _Reset(const _Ptr_base<_Ty2>& _Other, const _Const_tag&)
; 374  : 		{	// release resource and take ownership of _Other._Ptr
; 375  : 		_Reset(const_cast<_Elem *>(_Other._Ptr), _Other._Rep);
; 376  : 		}
; 377  : 
; 378  : 	template<class _Ty2>
; 379  : 		void _Reset(const _Ptr_base<_Ty2>& _Other, const _Dynamic_tag&)
; 380  : 		{	// release resource and take ownership of _Other._Ptr
; 381  : 		_Elem *_Ptr = dynamic_cast<_Elem *>(_Other._Ptr);
; 382  : 		if (_Ptr)
; 383  : 			_Reset(_Ptr, _Other._Rep);
; 384  : 		else
; 385  : 			_Reset();
; 386  : 		}
; 387  : 
; 388  : 	template<class _Ty2>
; 389  : 		void _Reset(auto_ptr<_Ty2>&& _Other)
; 390  : 		{	// release resource and take _Other.get()
; 391  : 		_Ty2 *_Px = _Other.get();
; 392  : 		_Reset0(_Px, new _Ref_count<_Elem>(_Px));
; 393  : 		_Other.release();
; 394  : 		_Enable_shared(_Px, _Rep);
; 395  : 		}
; 396  : 
; 397  :  #if _HAS_CPP0X
; 398  : 	template<class _Ty2>
; 399  : 		void _Reset(_Ty *_Ptr, const _Ptr_base<_Ty2>& _Other)
; 400  : 		{	// release resource and alias _Ptr with _Other_rep
; 401  : 		_Reset(_Ptr, _Other._Rep);
; 402  : 		}
; 403  :  #endif /* _HAS_CPP0X */
; 404  : 
; 405  : 	void _Reset(_Ty *_Other_ptr, _Ref_count_base *_Other_rep)
; 406  : 		{	// release resource and take _Other_ptr through _Other_rep
; 407  : 		if (_Other_rep)

  00b16	48 85 db	 test	 rbx, rbx
  00b19	74 04		 je	 SHORT $LN352@tick

; 108  : 		_MT_INCR(_Ignored, _Uses);

  00b1b	f0 ff 43 08	 lock inc DWORD PTR [rbx+8]
$LN352@tick:

; 408  : 			_Other_rep->_Incref();
; 409  : 		_Reset0(_Other_ptr, _Other_rep);

  00b1f	4c 8b c3	 mov	 r8, rbx
  00b22	48 8b d7	 mov	 rdx, rdi
  00b25	48 8d 4d 08	 lea	 rcx, QWORD PTR $T10[rbp-256]
  00b29	e8 00 00 00 00	 call	 ?_Reset0@?$_Ptr_base@VChunkBase@@@std@@QEAAXPEAVChunkBase@@PEAV_Ref_count_base@2@@Z ; std::_Ptr_base<ChunkBase>::_Reset0
; File c:\users\glenn\documents\github\wind\project\wind\wind\renderthread.cpp

; 125  : 		GlobalThread::world.addChunk(c);

  00b2e	48 8d 55 08	 lea	 rdx, QWORD PTR $T10[rbp-256]
  00b32	48 8d 0d 00 00
	00 00		 lea	 rcx, OFFSET FLAT:?world@GlobalThread@@3VWorld@@A ; GlobalThread::world
  00b39	e8 00 00 00 00	 call	 ?addChunk@World@@QEAA_NV?$shared_ptr@VChunkBase@@@std@@@Z ; World::addChunk
  00b3e	90		 npad	 1
; File c:\program files (x86)\microsoft visual studio 11.0\vc\include\memory

; 345  : 		if (_Rep != 0)

  00b3f	48 85 db	 test	 rbx, rbx
  00b42	74 1d		 je	 SHORT $LN362@tick

; 109  : 		}
; 110  : 
; 111  : 	void _Incwref()
; 112  : 		{	// increment weak reference count
; 113  : 		_MT_INCR(_Ignored, _Weaks);
; 114  : 		}
; 115  : 
; 116  : 	void _Decref()
; 117  : 		{	// decrement use count
; 118  : 		if (_MT_DECR(_Ignored, _Uses) == 0)

  00b44	f0 ff 4b 08	 lock dec DWORD PTR [rbx+8]
  00b48	75 17		 jne	 SHORT $LN362@tick

; 119  : 			{	// destroy managed resource, decrement weak reference count
; 120  : 			_Destroy();

  00b4a	48 8b 03	 mov	 rax, QWORD PTR [rbx]
  00b4d	48 8b cb	 mov	 rcx, rbx
  00b50	ff 10		 call	 QWORD PTR [rax]

; 121  : 			_Decwref();
; 122  : 			}
; 123  : 		}
; 124  : 
; 125  : 	void _Decwref()
; 126  : 		{	// decrement weak reference count
; 127  : 		if (_MT_DECR(_Ignored, _Weaks) == 0)

  00b52	f0 ff 4b 0c	 lock dec DWORD PTR [rbx+12]
  00b56	75 09		 jne	 SHORT $LN362@tick

; 128  : 			_Delete_this();

  00b58	48 8b 03	 mov	 rax, QWORD PTR [rbx]
  00b5b	48 8b cb	 mov	 rcx, rbx
  00b5e	ff 50 08	 call	 QWORD PTR [rax+8]
$LN362@tick:
; File c:\program files (x86)\microsoft visual studio 11.0\vc\include\deque

; 1382 : 		return (this->_Mysize == 0);

  00b61	48 83 3d b0 00
	00 00 00	 cmp	 QWORD PTR ?world@GlobalThread@@3VWorld@@A+176, 0
; File c:\users\glenn\documents\github\wind\project\wind\wind\renderthread.cpp

; 121  : 	while(!GlobalThread::world.additionQueue.empty())

  00b69	0f 85 42 ff ff
	ff		 jne	 $LL20@tick
$LN19@tick:
; File c:\program files (x86)\microsoft visual studio 11.0\vc\include\thr\xthread

; 83   : 	return (_Check_C_return(_Mtx_unlock(_Mtx)));

  00b6f	48 8d 0d 88 00
	00 00		 lea	 rcx, OFFSET FLAT:?world@GlobalThread@@3VWorld@@A+136
  00b76	e8 00 00 00 00	 call	 _Mtx_unlock

; 32   : 	if (_Res != _Thrd_success)

  00b7b	85 c0		 test	 eax, eax
  00b7d	74 07		 je	 SHORT $LN369@tick

; 33   : 		_Throw_C_error(_Res);

  00b7f	8b c8		 mov	 ecx, eax
  00b81	e8 00 00 00 00	 call	 ?_Throw_C_error@std@@YAXH@Z ; std::_Throw_C_error
$LN369@tick:

; 68   : 	return (_Check_C_return(_Mtx_lock(_Mtx)));

  00b86	48 8d 0d b8 00
	00 00		 lea	 rcx, OFFSET FLAT:?world@GlobalThread@@3VWorld@@A+184
  00b8d	e8 00 00 00 00	 call	 _Mtx_lock

; 32   : 	if (_Res != _Thrd_success)

  00b92	85 c0		 test	 eax, eax
  00b94	74 07		 je	 SHORT $LN1104@tick

; 33   : 		_Throw_C_error(_Res);

  00b96	8b c8		 mov	 ecx, eax
  00b98	e8 00 00 00 00	 call	 ?_Throw_C_error@std@@YAXH@Z ; std::_Throw_C_error
$LN1104@tick:
; File c:\program files (x86)\microsoft visual studio 11.0\vc\include\deque

; 1382 : 		return (this->_Mysize == 0);

  00b9d	48 83 3d e0 00
	00 00 00	 cmp	 QWORD PTR ?world@GlobalThread@@3VWorld@@A+224, 0
; File c:\users\glenn\documents\github\wind\project\wind\wind\renderthread.cpp

; 130  : 	while(!GlobalThread::world.removalQueue.empty())

  00ba5	0f 84 e1 00 00
	00		 je	 $LN17@tick
  00bab	0f 1f 44 00 00	 npad	 5
$LL18@tick:
; File c:\program files (x86)\microsoft visual studio 11.0\vc\include\deque

; 1426 : 		return (*begin());

  00bb0	48 8d 95 18 03
	00 00		 lea	 rdx, QWORD PTR $T32[rbp-256]
  00bb7	48 8d 0d c0 00
	00 00		 lea	 rcx, OFFSET FLAT:?world@GlobalThread@@3VWorld@@A+192
  00bbe	e8 00 00 00 00	 call	 ?begin@?$deque@V?$shared_ptr@VChunkBase@@@std@@V?$allocator@V?$shared_ptr@VChunkBase@@@std@@@2@@std@@QEAA?AV?$_Deque_iterator@V?$_Deque_val@U?$_Deque_simple_types@V?$shared_ptr@VChunkBase@@@std@@@std@@@std@@@2@XZ ; std::deque<std::shared_ptr<ChunkBase>,std::allocator<std::shared_ptr<ChunkBase> > >::begin
  00bc3	48 8b d0	 mov	 rdx, rax
; File c:\program files (x86)\microsoft visual studio 11.0\vc\include\xutility

; 178  : 		return (_Myproxy == 0 ? 0 : _Myproxy->_Mycont);

  00bc6	48 8b 00	 mov	 rax, QWORD PTR [rax]
  00bc9	48 85 c0	 test	 rax, rax
  00bcc	75 05		 jne	 SHORT $LN393@tick
  00bce	49 8b c4	 mov	 rax, r12
  00bd1	eb 03		 jmp	 SHORT $LN394@tick
$LN393@tick:
  00bd3	48 8b 00	 mov	 rax, QWORD PTR [rax]
$LN394@tick:
; File c:\program files (x86)\microsoft visual studio 11.0\vc\include\deque

; 787  : 		return ((_Off / _DEQUESIZ) & (this->_Mapsize - 1));

  00bd6	48 8b 48 10	 mov	 rcx, QWORD PTR [rax+16]
  00bda	48 ff c9	 dec	 rcx
  00bdd	48 23 4a 10	 and	 rcx, QWORD PTR [rdx+16]

; 1426 : 		return (*begin());

  00be1	48 8b 40 08	 mov	 rax, QWORD PTR [rax+8]
  00be5	48 8b 0c c8	 mov	 rcx, QWORD PTR [rax+rcx*8]
; File c:\program files (x86)\microsoft visual studio 11.0\vc\include\memory

; 357  : 		_Reset(_Other._Ptr, _Other._Rep);

  00be9	48 8b 59 08	 mov	 rbx, QWORD PTR [rcx+8]
  00bed	48 8b 39	 mov	 rdi, QWORD PTR [rcx]

; 358  : 		}
; 359  : 
; 360  : 	template<class _Ty2>
; 361  : 		void _Reset(const _Ptr_base<_Ty2>& _Other, bool _Throw)
; 362  : 		{	// release resource and take ownership from weak_ptr _Other._Ptr
; 363  : 		_Reset(_Other._Ptr, _Other._Rep, _Throw);
; 364  : 		}
; 365  : 
; 366  : 	template<class _Ty2>
; 367  : 		void _Reset(const _Ptr_base<_Ty2>& _Other, const _Static_tag&)
; 368  : 		{	// release resource and take ownership of _Other._Ptr
; 369  : 		_Reset(static_cast<_Elem *>(_Other._Ptr), _Other._Rep);
; 370  : 		}
; 371  : 
; 372  : 	template<class _Ty2>
; 373  : 		void _Reset(const _Ptr_base<_Ty2>& _Other, const _Const_tag&)
; 374  : 		{	// release resource and take ownership of _Other._Ptr
; 375  : 		_Reset(const_cast<_Elem *>(_Other._Ptr), _Other._Rep);
; 376  : 		}
; 377  : 
; 378  : 	template<class _Ty2>
; 379  : 		void _Reset(const _Ptr_base<_Ty2>& _Other, const _Dynamic_tag&)
; 380  : 		{	// release resource and take ownership of _Other._Ptr
; 381  : 		_Elem *_Ptr = dynamic_cast<_Elem *>(_Other._Ptr);
; 382  : 		if (_Ptr)
; 383  : 			_Reset(_Ptr, _Other._Rep);
; 384  : 		else
; 385  : 			_Reset();
; 386  : 		}
; 387  : 
; 388  : 	template<class _Ty2>
; 389  : 		void _Reset(auto_ptr<_Ty2>&& _Other)
; 390  : 		{	// release resource and take _Other.get()
; 391  : 		_Ty2 *_Px = _Other.get();
; 392  : 		_Reset0(_Px, new _Ref_count<_Elem>(_Px));
; 393  : 		_Other.release();
; 394  : 		_Enable_shared(_Px, _Rep);
; 395  : 		}
; 396  : 
; 397  :  #if _HAS_CPP0X
; 398  : 	template<class _Ty2>
; 399  : 		void _Reset(_Ty *_Ptr, const _Ptr_base<_Ty2>& _Other)
; 400  : 		{	// release resource and alias _Ptr with _Other_rep
; 401  : 		_Reset(_Ptr, _Other._Rep);
; 402  : 		}
; 403  :  #endif /* _HAS_CPP0X */
; 404  : 
; 405  : 	void _Reset(_Ty *_Other_ptr, _Ref_count_base *_Other_rep)
; 406  : 		{	// release resource and take _Other_ptr through _Other_rep
; 407  : 		if (_Other_rep)

  00bf0	48 85 db	 test	 rbx, rbx
  00bf3	74 04		 je	 SHORT $LN414@tick

; 108  : 		_MT_INCR(_Ignored, _Uses);

  00bf5	f0 ff 43 08	 lock inc DWORD PTR [rbx+8]
$LN414@tick:
; File c:\users\glenn\documents\github\wind\project\wind\wind\world.cpp

; 80   : 	unloaded = true;

  00bf9	c6 47 0a 01	 mov	 BYTE PTR [rdi+10], 1
; File c:\program files (x86)\microsoft visual studio 11.0\vc\include\queue

; 160  : 		c.pop_front();

  00bfd	48 8d 0d c0 00
	00 00		 lea	 rcx, OFFSET FLAT:?world@GlobalThread@@3VWorld@@A+192
  00c04	e8 00 00 00 00	 call	 ?pop_front@?$deque@V?$shared_ptr@VChunkBase@@@std@@V?$allocator@V?$shared_ptr@VChunkBase@@@std@@@2@@std@@QEAAXXZ ; std::deque<std::shared_ptr<ChunkBase>,std::allocator<std::shared_ptr<ChunkBase> > >::pop_front
; File c:\users\glenn\documents\github\wind\project\wind\wind\renderthread.cpp

; 135  : 		GlobalThread::world.removeChunk(c->pos);

  00c09	8b 47 18	 mov	 eax, DWORD PTR [rdi+24]
  00c0c	89 45 e0	 mov	 DWORD PTR $T7[rbp-256], eax
  00c0f	8b 47 1c	 mov	 eax, DWORD PTR [rdi+28]
  00c12	89 45 e4	 mov	 DWORD PTR $T7[rbp-252], eax
  00c15	8b 47 20	 mov	 eax, DWORD PTR [rdi+32]
  00c18	89 45 e8	 mov	 DWORD PTR $T7[rbp-248], eax
; File c:\program files (x86)\microsoft visual studio 11.0\vc\include\xhash

; 713  : 		_Pairii _Where = equal_range(_Keyval);

  00c1b	4c 8d 45 e0	 lea	 r8, QWORD PTR $T7[rbp-256]
  00c1f	48 8d 95 f0 02
	00 00		 lea	 rdx, QWORD PTR $T30[rbp-256]
  00c26	48 8d 0d 48 00
	00 00		 lea	 rcx, OFFSET FLAT:?world@GlobalThread@@3VWorld@@A+72
  00c2d	e8 00 00 00 00	 call	 ?equal_range@?$_Hash@V?$_Umap_traits@VChunkPosition@@V?$shared_ptr@VChunkBase@@@std@@V?$_Uhash_compare@VChunkPosition@@U?$hash@VChunkPosition@@@std@@U?$equal_to@VChunkPosition@@@3@@3@V?$allocator@U?$pair@$$CBVChunkPosition@@V?$shared_ptr@VChunkBase@@@std@@@std@@@3@$0A@@std@@@std@@QEAA?AU?$pair@V?$_List_iterator@V?$_List_val@U?$_List_simple_types@U?$pair@$$CBVChunkPosition@@V?$shared_ptr@VChunkBase@@@std@@@std@@@std@@@std@@@std@@V12@@2@AEBVChunkPosition@@@Z ; std::_Hash<std::_Umap_traits<ChunkPosition,std::shared_ptr<ChunkBase>,std::_Uhash_compare<ChunkPosition,std::hash<ChunkPosition>,std::equal_to<ChunkPosition> >,std::allocator<std::pair<ChunkPosition const ,std::shared_ptr<ChunkBase> > >,0> >::equal_range
; File c:\program files (x86)\microsoft visual studio 11.0\vc\include\utility

; 182  : 		{	// construct from moved compatible pair

  00c32	4c 8b 00	 mov	 r8, QWORD PTR [rax]
  00c35	4c 8b 48 08	 mov	 r9, QWORD PTR [rax+8]
; File c:\program files (x86)\microsoft visual studio 11.0\vc\include\xutility

; 831  : 	_Distance2(_First, _Last, _Off, _Iter_cat(_First));

  00c39	49 8b c0	 mov	 rax, r8
; File c:\program files (x86)\microsoft visual studio 11.0\vc\include\list

; 298  : 		return (this->_Ptr == _Right._Ptr);

  00c3c	4d 3b c1	 cmp	 r8, r9
; File c:\program files (x86)\microsoft visual studio 11.0\vc\include\xutility

; 798  : 	for (; _First != _Last; ++_First)

  00c3f	74 08		 je	 SHORT $LN443@tick
$LL450@tick:
; File c:\program files (x86)\microsoft visual studio 11.0\vc\include\list

; 240  : 		this->_Ptr = _Mylist::_Nextnode(this->_Ptr);

  00c41	48 8b 00	 mov	 rax, QWORD PTR [rax]

; 298  : 		return (this->_Ptr == _Right._Ptr);

  00c44	49 3b c1	 cmp	 rax, r9
; File c:\program files (x86)\microsoft visual studio 11.0\vc\include\xutility

; 798  : 	for (; _First != _Last; ++_First)

  00c47	75 f8		 jne	 SHORT $LL450@tick
$LN443@tick:
; File c:\program files (x86)\microsoft visual studio 11.0\vc\include\xhash

; 716  : 		erase(_Where.first, _Where.second);

  00c49	48 8d 95 80 00
	00 00		 lea	 rdx, QWORD PTR $T17[rbp-256]
  00c50	48 8d 0d 48 00
	00 00		 lea	 rcx, OFFSET FLAT:?world@GlobalThread@@3VWorld@@A+72
  00c57	e8 00 00 00 00	 call	 ?erase@?$_Hash@V?$_Umap_traits@VChunkPosition@@V?$shared_ptr@VChunkBase@@@std@@V?$_Uhash_compare@VChunkPosition@@U?$hash@VChunkPosition@@@std@@U?$equal_to@VChunkPosition@@@3@@3@V?$allocator@U?$pair@$$CBVChunkPosition@@V?$shared_ptr@VChunkBase@@@std@@@std@@@3@$0A@@std@@@std@@QEAA?AV?$_List_iterator@V?$_List_val@U?$_List_simple_types@U?$pair@$$CBVChunkPosition@@V?$shared_ptr@VChunkBase@@@std@@@std@@@std@@@std@@@2@V?$_List_const_iterator@V?$_List_val@U?$_List_simple_types@U?$pair@$$CBVChunkPosition@@V?$shared_ptr@VChunkBase@@@std@@@std@@@std@@@std@@@2@0@Z ; std::_Hash<std::_Umap_traits<ChunkPosition,std::shared_ptr<ChunkBase>,std::_Uhash_compare<ChunkPosition,std::hash<ChunkPosition>,std::equal_to<ChunkPosition> >,std::allocator<std::pair<ChunkPosition const ,std::shared_ptr<ChunkBase> > >,0> >::erase
; File c:\program files (x86)\microsoft visual studio 11.0\vc\include\memory

; 345  : 		if (_Rep != 0)

  00c5c	48 85 db	 test	 rbx, rbx
  00c5f	74 1d		 je	 SHORT $LN466@tick

; 109  : 		}
; 110  : 
; 111  : 	void _Incwref()
; 112  : 		{	// increment weak reference count
; 113  : 		_MT_INCR(_Ignored, _Weaks);
; 114  : 		}
; 115  : 
; 116  : 	void _Decref()
; 117  : 		{	// decrement use count
; 118  : 		if (_MT_DECR(_Ignored, _Uses) == 0)

  00c61	f0 ff 4b 08	 lock dec DWORD PTR [rbx+8]
  00c65	75 17		 jne	 SHORT $LN466@tick

; 119  : 			{	// destroy managed resource, decrement weak reference count
; 120  : 			_Destroy();

  00c67	48 8b 03	 mov	 rax, QWORD PTR [rbx]
  00c6a	48 8b cb	 mov	 rcx, rbx
  00c6d	ff 10		 call	 QWORD PTR [rax]

; 121  : 			_Decwref();
; 122  : 			}
; 123  : 		}
; 124  : 
; 125  : 	void _Decwref()
; 126  : 		{	// decrement weak reference count
; 127  : 		if (_MT_DECR(_Ignored, _Weaks) == 0)

  00c6f	f0 ff 4b 0c	 lock dec DWORD PTR [rbx+12]
  00c73	75 09		 jne	 SHORT $LN466@tick

; 128  : 			_Delete_this();

  00c75	48 8b 03	 mov	 rax, QWORD PTR [rbx]
  00c78	48 8b cb	 mov	 rcx, rbx
  00c7b	ff 50 08	 call	 QWORD PTR [rax+8]
$LN466@tick:
; File c:\program files (x86)\microsoft visual studio 11.0\vc\include\deque

; 1382 : 		return (this->_Mysize == 0);

  00c7e	48 83 3d e0 00
	00 00 00	 cmp	 QWORD PTR ?world@GlobalThread@@3VWorld@@A+224, 0
; File c:\users\glenn\documents\github\wind\project\wind\wind\renderthread.cpp

; 130  : 	while(!GlobalThread::world.removalQueue.empty())

  00c86	0f 85 24 ff ff
	ff		 jne	 $LL18@tick
$LN17@tick:
; File c:\program files (x86)\microsoft visual studio 11.0\vc\include\thr\xthread

; 83   : 	return (_Check_C_return(_Mtx_unlock(_Mtx)));

  00c8c	48 8d 0d b8 00
	00 00		 lea	 rcx, OFFSET FLAT:?world@GlobalThread@@3VWorld@@A+184
  00c93	e8 00 00 00 00	 call	 _Mtx_unlock

; 32   : 	if (_Res != _Thrd_success)

  00c98	85 c0		 test	 eax, eax
  00c9a	74 07		 je	 SHORT $LN473@tick

; 33   : 		_Throw_C_error(_Res);

  00c9c	8b c8		 mov	 ecx, eax
  00c9e	e8 00 00 00 00	 call	 ?_Throw_C_error@std@@YAXH@Z ; std::_Throw_C_error
$LN473@tick:
; File c:\program files (x86)\microsoft visual studio 11.0\vc\include\vector

; 486  : 		_Myfirst = pointer();

  00ca3	49 8b f4	 mov	 rsi, r12
  00ca6	4c 89 64 24 50	 mov	 QWORD PTR chunksToRender$[rsp], r12

; 487  : 		_Mylast = pointer();

  00cab	49 8b fc	 mov	 rdi, r12
  00cae	4c 89 64 24 58	 mov	 QWORD PTR chunksToRender$[rsp+8], r12

; 488  : 		_Myend = pointer();

  00cb3	4c 89 64 24 60	 mov	 QWORD PTR chunksToRender$[rsp+16], r12
; File c:\program files (x86)\microsoft visual studio 11.0\vc\include\list

; 44   : 		{	// construct with node pointer _Pnode

  00cb8	48 8b 05 48 00
	00 00		 mov	 rax, QWORD PTR ?world@GlobalThread@@3VWorld@@A+72
  00cbf	48 8b 18	 mov	 rbx, QWORD PTR [rax]

; 298  : 		return (this->_Ptr == _Right._Ptr);

  00cc2	48 3b d8	 cmp	 rbx, rax
$LN1169@tick:
; File c:\users\glenn\documents\github\wind\project\wind\wind\renderthread.cpp

; 140  : 	for(auto iter = GlobalThread::world.chunkMap.begin(); iter != GlobalThread::world.chunkMap.end(); ++iter)

  00cc5	0f 84 a1 02 00
	00		 je	 $LN1156@tick
; File c:\program files (x86)\microsoft visual studio 11.0\vc\include\memory

; 357  : 		_Reset(_Other._Ptr, _Other._Rep);

  00ccb	4c 8b 73 28	 mov	 r14, QWORD PTR [rbx+40]
  00ccf	4c 8b 7b 20	 mov	 r15, QWORD PTR [rbx+32]

; 358  : 		}
; 359  : 
; 360  : 	template<class _Ty2>
; 361  : 		void _Reset(const _Ptr_base<_Ty2>& _Other, bool _Throw)
; 362  : 		{	// release resource and take ownership from weak_ptr _Other._Ptr
; 363  : 		_Reset(_Other._Ptr, _Other._Rep, _Throw);
; 364  : 		}
; 365  : 
; 366  : 	template<class _Ty2>
; 367  : 		void _Reset(const _Ptr_base<_Ty2>& _Other, const _Static_tag&)
; 368  : 		{	// release resource and take ownership of _Other._Ptr
; 369  : 		_Reset(static_cast<_Elem *>(_Other._Ptr), _Other._Rep);
; 370  : 		}
; 371  : 
; 372  : 	template<class _Ty2>
; 373  : 		void _Reset(const _Ptr_base<_Ty2>& _Other, const _Const_tag&)
; 374  : 		{	// release resource and take ownership of _Other._Ptr
; 375  : 		_Reset(const_cast<_Elem *>(_Other._Ptr), _Other._Rep);
; 376  : 		}
; 377  : 
; 378  : 	template<class _Ty2>
; 379  : 		void _Reset(const _Ptr_base<_Ty2>& _Other, const _Dynamic_tag&)
; 380  : 		{	// release resource and take ownership of _Other._Ptr
; 381  : 		_Elem *_Ptr = dynamic_cast<_Elem *>(_Other._Ptr);
; 382  : 		if (_Ptr)
; 383  : 			_Reset(_Ptr, _Other._Rep);
; 384  : 		else
; 385  : 			_Reset();
; 386  : 		}
; 387  : 
; 388  : 	template<class _Ty2>
; 389  : 		void _Reset(auto_ptr<_Ty2>&& _Other)
; 390  : 		{	// release resource and take _Other.get()
; 391  : 		_Ty2 *_Px = _Other.get();
; 392  : 		_Reset0(_Px, new _Ref_count<_Elem>(_Px));
; 393  : 		_Other.release();
; 394  : 		_Enable_shared(_Px, _Rep);
; 395  : 		}
; 396  : 
; 397  :  #if _HAS_CPP0X
; 398  : 	template<class _Ty2>
; 399  : 		void _Reset(_Ty *_Ptr, const _Ptr_base<_Ty2>& _Other)
; 400  : 		{	// release resource and alias _Ptr with _Other_rep
; 401  : 		_Reset(_Ptr, _Other._Rep);
; 402  : 		}
; 403  :  #endif /* _HAS_CPP0X */
; 404  : 
; 405  : 	void _Reset(_Ty *_Other_ptr, _Ref_count_base *_Other_rep)
; 406  : 		{	// release resource and take _Other_ptr through _Other_rep
; 407  : 		if (_Other_rep)

  00cd3	4d 85 f6	 test	 r14, r14
  00cd6	74 0f		 je	 SHORT $LN549@tick

; 108  : 		_MT_INCR(_Ignored, _Uses);

  00cd8	f0 41 ff 46 08	 lock inc DWORD PTR [r14+8]
  00cdd	48 8b 7c 24 58	 mov	 rdi, QWORD PTR chunksToRender$[rsp+8]
  00ce2	48 8b 74 24 50	 mov	 rsi, QWORD PTR chunksToRender$[rsp]
$LN549@tick:

; 410  : 		}
; 411  : 
; 412  : 	void _Reset(_Ty *_Other_ptr, _Ref_count_base *_Other_rep, bool _Throw)
; 413  : 		{	// take _Other_ptr through _Other_rep from weak_ptr if not expired
; 414  : 			// otherwise, leave in default state if !_Throw,
; 415  : 			// otherwise throw exception
; 416  : 		if (_Other_rep && _Other_rep->_Incref_nz())
; 417  : 			_Reset0(_Other_ptr, _Other_rep);
; 418  : 		else if (_Throw)
; 419  : 			_THROW_NCEE(bad_weak_ptr, 0);
; 420  : 		}
; 421  : 
; 422  : 	void _Reset0(_Ty *_Other_ptr, _Ref_count_base *_Other_rep)
; 423  : 		{	// release resource and take new resource
; 424  : 		if (_Rep != 0)
; 425  : 			_Rep->_Decref();
; 426  : 		_Rep = _Other_rep;

  00ce7	4c 89 75 f8	 mov	 QWORD PTR chunk$8[rbp-248], r14

; 427  : 		_Ptr = _Other_ptr;

  00ceb	4c 89 7d f0	 mov	 QWORD PTR chunk$8[rbp-256], r15
; File c:\users\glenn\documents\github\wind\project\wind\wind\renderthread.cpp

; 143  : 		if(!chunk->isEmpty())

  00cef	49 8b 07	 mov	 rax, QWORD PTR [r15]
  00cf2	49 8b cf	 mov	 rcx, r15
  00cf5	ff 50 18	 call	 QWORD PTR [rax+24]
  00cf8	84 c0		 test	 al, al
  00cfa	0f 85 15 02 00
	00		 jne	 $LN593@tick

; 144  : 		{
; 145  : 			if(chunk->pos.x - renderDistance <= xCam && chunk->pos.x + renderDistance >= xCam && chunk->pos.y - renderDistance <= yCam && chunk->pos.y + renderDistance >= yCam && chunk->pos.z - renderDistance <= zCam && chunk->pos.z + renderDistance > zCam)

  00d00	49 63 4f 18	 movsxd	 rcx, DWORD PTR [r15+24]
  00d04	8d 41 f6	 lea	 eax, DWORD PTR [rcx-10]
  00d07	48 63 54 24 70	 movsxd	 rdx, DWORD PTR xCam$[rsp]
  00d0c	3b c2		 cmp	 eax, edx
  00d0e	0f 8f 01 02 00
	00		 jg	 $LN593@tick
  00d14	8d 41 0a	 lea	 eax, DWORD PTR [rcx+10]
  00d17	3b c2		 cmp	 eax, edx
  00d19	0f 8c f6 01 00
	00		 jl	 $LN593@tick
  00d1f	4d 63 47 1c	 movsxd	 r8, DWORD PTR [r15+28]
  00d23	41 8d 40 f6	 lea	 eax, DWORD PTR [r8-10]
  00d27	4c 63 4c 24 6c	 movsxd	 r9, DWORD PTR yCam$[rsp]
  00d2c	41 3b c1	 cmp	 eax, r9d
  00d2f	0f 8f e0 01 00
	00		 jg	 $LN593@tick
  00d35	41 8d 40 0a	 lea	 eax, DWORD PTR [r8+10]
  00d39	41 3b c1	 cmp	 eax, r9d
  00d3c	0f 8c d3 01 00
	00		 jl	 $LN593@tick
  00d42	4d 63 57 20	 movsxd	 r10, DWORD PTR [r15+32]
  00d46	41 8d 42 f6	 lea	 eax, DWORD PTR [r10-10]
  00d4a	4c 63 5c 24 68	 movsxd	 r11, DWORD PTR zCam$[rsp]
  00d4f	41 3b c3	 cmp	 eax, r11d
  00d52	0f 8f bd 01 00
	00		 jg	 $LN593@tick
  00d58	41 8d 42 0a	 lea	 eax, DWORD PTR [r10+10]
  00d5c	41 3b c3	 cmp	 eax, r11d
  00d5f	0f 8e b0 01 00
	00		 jle	 $LN593@tick

; 146  : 			{
; 147  : 				if(bGrid[chunk->pos.x - xCam + renderDistance][chunk->pos.y - yCam + renderDistance][chunk->pos.z - zCam + renderDistance])

  00d65	48 2b ca	 sub	 rcx, rdx
  00d68	48 6b c9 15	 imul	 rcx, 21
  00d6c	49 2b c9	 sub	 rcx, r9
  00d6f	49 03 c8	 add	 rcx, r8
  00d72	48 6b c9 15	 imul	 rcx, 21
  00d76	49 2b cb	 sub	 rcx, r11
  00d79	49 03 ca	 add	 rcx, r10
  00d7c	48 8d 05 00 00
	00 00		 lea	 rax, OFFSET FLAT:?bGrid@@3PAY1BF@BF@_NA ; bGrid
  00d83	80 bc 01 16 12
	00 00 00	 cmp	 BYTE PTR [rcx+rax+4630], 0
  00d8b	0f 84 84 01 00
	00		 je	 $LN593@tick
; File c:\program files (x86)\microsoft visual studio 11.0\vc\include\vector

; 1496 : 		return (_Ptr < this->_Mylast && this->_Myfirst <= _Ptr);

  00d91	48 8d 45 f0	 lea	 rax, QWORD PTR chunk$8[rbp-256]
  00d95	48 3b c7	 cmp	 rax, rdi
  00d98	0f 83 c7 00 00
	00		 jae	 $LN595@tick
  00d9e	48 8d 45 f0	 lea	 rax, QWORD PTR chunk$8[rbp-256]
  00da2	48 3b f0	 cmp	 rsi, rax
  00da5	0f 87 ba 00 00
	00		 ja	 $LN595@tick

; 1088 : 		}
; 1089 : 
; 1090 : 	size_type max_size() const _NOEXCEPT
; 1091 : 		{	// return maximum possible length of sequence
; 1092 : 		return (this->_Getal().max_size());
; 1093 : 		}
; 1094 : 
; 1095 : 	bool empty() const _NOEXCEPT
; 1096 : 		{	// test if sequence is empty
; 1097 : 		return (this->_Myfirst == this->_Mylast);
; 1098 : 		}
; 1099 : 
; 1100 : 	_Alloc get_allocator() const _NOEXCEPT
; 1101 : 		{	// return allocator object for values
; 1102 : 		return (this->_Getal());
; 1103 : 		}
; 1104 : 
; 1105 : 	const_reference at(size_type _Pos) const
; 1106 : 		{	// subscript nonmutable sequence with checking
; 1107 : 		if (size() <= _Pos)
; 1108 : 			_Xran();
; 1109 : 		return (*(this->_Myfirst + _Pos));
; 1110 : 		}
; 1111 : 
; 1112 : 	reference at(size_type _Pos)
; 1113 : 		{	// subscript mutable sequence with checking
; 1114 : 		if (size() <= _Pos)
; 1115 : 			_Xran();
; 1116 : 		return (*(this->_Myfirst + _Pos));
; 1117 : 		}
; 1118 : 
; 1119 : 	const_reference operator[](size_type _Pos) const
; 1120 : 		{	// subscript nonmutable sequence
; 1121 :  #if _ITERATOR_DEBUG_LEVEL == 2
; 1122 : 		if (size() <= _Pos)
; 1123 : 			{	// report error
; 1124 : 			_DEBUG_ERROR("vector subscript out of range");
; 1125 : 			_SCL_SECURE_OUT_OF_RANGE;
; 1126 : 			}
; 1127 : 
; 1128 :  #elif _ITERATOR_DEBUG_LEVEL == 1
; 1129 : 		_SCL_SECURE_VALIDATE_RANGE(_Pos < size());
; 1130 :  #endif /* _ITERATOR_DEBUG_LEVEL */
; 1131 : 
; 1132 : 		return (*(this->_Myfirst + _Pos));
; 1133 : 		}
; 1134 : 
; 1135 : 	reference operator[](size_type _Pos)
; 1136 : 		{	// subscript mutable sequence
; 1137 :  #if _ITERATOR_DEBUG_LEVEL == 2
; 1138 : 		if (size() <= _Pos)
; 1139 : 			{	// report error
; 1140 : 			_DEBUG_ERROR("vector subscript out of range");
; 1141 : 			_SCL_SECURE_OUT_OF_RANGE;
; 1142 : 			}
; 1143 : 
; 1144 :  #elif _ITERATOR_DEBUG_LEVEL == 1
; 1145 : 		_SCL_SECURE_VALIDATE_RANGE(_Pos < size());
; 1146 :  #endif /* _ITERATOR_DEBUG_LEVEL */
; 1147 : 
; 1148 : 		return (*(this->_Myfirst + _Pos));
; 1149 : 		}
; 1150 : 
; 1151 :  #if _HAS_CPP0X
; 1152 : 	pointer data() _NOEXCEPT
; 1153 : 		{	// return address of first element
; 1154 : 		return (this->_Myfirst);
; 1155 : 		}
; 1156 : 
; 1157 : 	const_pointer data() const _NOEXCEPT
; 1158 : 		{	// return address of first element
; 1159 : 		return (this->_Myfirst);
; 1160 : 		}
; 1161 :  #endif /* _HAS_CPP0X */
; 1162 : 
; 1163 : 	reference front()
; 1164 : 		{	// return first element of mutable sequence
; 1165 : 		return (*begin());
; 1166 : 		}
; 1167 : 
; 1168 : 	const_reference front() const
; 1169 : 		{	// return first element of nonmutable sequence
; 1170 : 		return (*begin());
; 1171 : 		}
; 1172 : 
; 1173 : 	reference back()
; 1174 : 		{	// return last element of mutable sequence
; 1175 : 		return (*(end() - 1));
; 1176 : 		}
; 1177 : 
; 1178 : 	const_reference back() const
; 1179 : 		{	// return last element of nonmutable sequence
; 1180 : 		return (*(end() - 1));
; 1181 : 		}
; 1182 : 
; 1183 : 	void push_back(const value_type& _Val)
; 1184 : 		{	// insert element at end
; 1185 : 		if (_Inside(_STD addressof(_Val)))
; 1186 : 			{	// push back an element
; 1187 : 			size_type _Idx = _STD addressof(_Val) - this->_Myfirst;

  00dab	4c 8d 7d f0	 lea	 r15, QWORD PTR chunk$8[rbp-256]
  00daf	4c 2b fe	 sub	 r15, rsi

; 1188 : 			if (this->_Mylast == this->_Myend)

  00db2	48 8b 54 24 60	 mov	 rdx, QWORD PTR chunksToRender$[rsp+16]
  00db7	48 3b fa	 cmp	 rdi, rdx
  00dba	75 6f		 jne	 SHORT $LN607@tick

; 968  : 		}
; 969  : 
; 970  : 	size_type _Unused_capacity() const _NOEXCEPT
; 971  : 		{	// micro-optimization for capacity() - size()
; 972  : 		return (this->_Myend - this->_Mylast);

  00dbc	48 8b c2	 mov	 rax, rdx
  00dbf	48 2b c7	 sub	 rax, rdi
  00dc2	48 c1 f8 04	 sar	 rax, 4

; 1497 : 		}
; 1498 : 
; 1499 : 	void _Reallocate(size_type _Count)
; 1500 : 		{	// move to array of exactly _Count elements
; 1501 : 		pointer _Ptr = this->_Getal().allocate(_Count);
; 1502 : 
; 1503 : 		_TRY_BEGIN
; 1504 : 		_Umove(this->_Myfirst, this->_Mylast, _Ptr);
; 1505 : 		_CATCH_ALL
; 1506 : 		this->_Getal().deallocate(_Ptr, _Count);
; 1507 : 		_RERAISE;
; 1508 : 		_CATCH_END
; 1509 : 
; 1510 : 		size_type _Size = size();
; 1511 : 		if (this->_Myfirst != pointer())
; 1512 : 			{	// destroy and deallocate old array
; 1513 : 			_Destroy(this->_Myfirst, this->_Mylast);
; 1514 : 			this->_Getal().deallocate(this->_Myfirst,
; 1515 : 				this->_Myend - this->_Myfirst);
; 1516 : 			}
; 1517 : 
; 1518 : 		this->_Orphan_all();
; 1519 : 		this->_Myend = _Ptr + _Count;
; 1520 : 		this->_Mylast = _Ptr + _Size;
; 1521 : 		this->_Myfirst = _Ptr;
; 1522 : 		}
; 1523 : 
; 1524 : 	void _Reserve(size_type _Count)
; 1525 : 		{	// ensure room for _Count new elements, grow exponentially
; 1526 : 		if (_Unused_capacity() < _Count)

  00dc6	48 83 f8 01	 cmp	 rax, 1
  00dca	73 5f		 jae	 SHORT $LN607@tick

; 1087 : 		return (this->_Mylast - this->_Myfirst);

  00dcc	48 2b fe	 sub	 rdi, rsi
  00dcf	48 c1 ff 04	 sar	 rdi, 4

; 1527 : 			{	// need more room, try to get it
; 1528 : 			if (max_size() - size() < _Count)

  00dd3	49 b8 ff ff ff
	ff ff ff ff 0f	 mov	 r8, 1152921504606846975	; 0fffffffffffffffH
  00ddd	49 8b c0	 mov	 rax, r8
  00de0	48 2b c7	 sub	 rax, rdi
  00de3	48 83 f8 01	 cmp	 rax, 1
  00de7	0f 82 65 01 00
	00		 jb	 $LN1114@tick

; 1529 : 				_Xlen();
; 1530 : 			_Reallocate(_Grow_to(size() + _Count));

  00ded	48 ff c7	 inc	 rdi

; 489  : 		}
; 490  : 
; 491  : 	pointer _Myfirst;	// pointer to beginning of array
; 492  : 	pointer _Mylast;	// pointer to current end of sequence
; 493  : 	pointer _Myend;	// pointer to end of array
; 494  : 	};
; 495  : 
; 496  : 		// TEMPLATE CLASS _Vector_alloc
; 497  : template<bool _Al_has_storage,
; 498  : 	class _Alloc_types>
; 499  : 	class _Vector_alloc
; 500  : 		: public _Vector_val<typename _Alloc_types::_Val_types>
; 501  : 	{	// base class for vector to hold allocator with storage
; 502  : public:
; 503  : 	typedef _Vector_alloc<_Al_has_storage, _Alloc_types> _Myt;
; 504  : 	typedef typename _Alloc_types::_Alloc _Alloc;
; 505  : 
; 506  : 	typedef typename _Alloc_types::_Alty _Alty;
; 507  : 
; 508  :  #if _ITERATOR_DEBUG_LEVEL == 0
; 509  : 	_Vector_alloc(const _Alloc& _Al = _Alloc())
; 510  : 		: _Alval(_Al)
; 511  : 		{	// construct allocator from _Al
; 512  : 		}
; 513  : 
; 514  : 	void _Change_alloc(const _Alty& _Al)
; 515  : 		{	// replace old allocator
; 516  : 		_Alval = _Al;
; 517  : 		}
; 518  : 
; 519  : 	void _Swap_alloc(_Myt& _Right)
; 520  : 		{	// swap allocators
; 521  : 		_Swap_adl(this->_Alval, _Right._Alval);
; 522  : 		}
; 523  : 
; 524  :  #else /* _ITERATOR_DEBUG_LEVEL == 0 */
; 525  : 	_Vector_alloc(const _Alty& _Al = _Alty())
; 526  : 		: _Alval(_Al)
; 527  : 		{	// construct allocator from _Al
; 528  : 		_Alloc_proxy();
; 529  : 		}
; 530  : 
; 531  : 	~_Vector_alloc() _NOEXCEPT
; 532  : 		{	// destroy proxy
; 533  : 		_Free_proxy();
; 534  : 		}
; 535  : 
; 536  : 	void _Change_alloc(const _Alty& _Al)
; 537  : 		{	// replace old allocator
; 538  : 		_Free_proxy();
; 539  : 		_Alval = _Al;
; 540  : 		_Alloc_proxy();
; 541  : 		}
; 542  : 
; 543  : 	void _Swap_alloc(_Myt& _Right)
; 544  : 		{	// swap allocators
; 545  : 		_Swap_adl(_Alval, _Right._Alval);
; 546  : 		_Swap_adl(this->_Myproxy, _Right._Myproxy);
; 547  : 		}
; 548  : 
; 549  : 	void _Alloc_proxy()
; 550  : 		{	// construct proxy from _Alval
; 551  : 		typename _Alloc::template rebind<_Container_proxy>::other
; 552  : 			_Alproxy(_Alval);
; 553  : 		this->_Myproxy = _Alproxy.allocate(1);
; 554  : 		_Alproxy.construct(this->_Myproxy, _Container_proxy());
; 555  : 		this->_Myproxy->_Mycont = this;
; 556  : 		}
; 557  : 
; 558  : 	void _Free_proxy()
; 559  : 		{	// destroy proxy
; 560  : 		typename _Alloc::template rebind<_Container_proxy>::other
; 561  : 			_Alproxy(_Alval);
; 562  : 		this->_Orphan_all();
; 563  : 		_Alproxy.destroy(this->_Myproxy);
; 564  : 		_Alproxy.deallocate(this->_Myproxy, 1);
; 565  : 		this->_Myproxy = 0;
; 566  : 		}
; 567  :  #endif /* _ITERATOR_DEBUG_LEVEL == 0 */
; 568  : 
; 569  : 	_Alty& _Getal()
; 570  : 		{	// get reference to allocator
; 571  : 		return (_Alval);
; 572  : 		}
; 573  : 
; 574  : 	const _Alty& _Getal() const
; 575  : 		{	// get reference to allocator
; 576  : 		return (_Alval);
; 577  : 		}
; 578  : 
; 579  : 	_Alty _Alval;	// allocator object for values
; 580  : 	};
; 581  : 
; 582  : template<class _Alloc_types>
; 583  : 	class _Vector_alloc<false, _Alloc_types>
; 584  : 		: public _Vector_val<typename _Alloc_types::_Val_types>
; 585  : 	{	// base class for vector to hold allocator with no storage
; 586  : public:
; 587  : 	typedef _Vector_alloc<false, _Alloc_types> _Myt;
; 588  : 	typedef typename _Alloc_types::_Alloc _Alloc;
; 589  : 
; 590  : 	typedef typename _Alloc_types::_Alty _Alty;
; 591  : 
; 592  :  #if _ITERATOR_DEBUG_LEVEL == 0
; 593  : 	_Vector_alloc(const _Alloc& = _Alloc())
; 594  : 		{	// construct allocator from _Al
; 595  : 		}
; 596  : 
; 597  : 	void _Change_alloc(const _Alty&)
; 598  : 		{	// replace old allocator
; 599  : 		}
; 600  : 
; 601  : 	void _Swap_alloc(_Myt&)
; 602  : 		{	// swap allocators
; 603  : 		}
; 604  : 
; 605  :  #else /* _ITERATOR_DEBUG_LEVEL == 0 */
; 606  : 	_Vector_alloc(const _Alloc& = _Alloc())
; 607  : 		{	// construct allocator from _Al
; 608  : 		_Alloc_proxy();
; 609  : 		}
; 610  : 
; 611  : 	~_Vector_alloc() _NOEXCEPT
; 612  : 		{	// destroy proxy
; 613  : 		_Free_proxy();
; 614  : 		}
; 615  : 
; 616  : 	void _Change_alloc(const _Alty&)
; 617  : 		{	// replace old allocator
; 618  : 		}
; 619  : 
; 620  : 	void _Swap_alloc(_Myt& _Right)
; 621  : 		{	// swap allocators
; 622  : 		_Swap_adl(this->_Myproxy, _Right._Myproxy);
; 623  : 		}
; 624  : 
; 625  : 	void _Alloc_proxy()
; 626  : 		{	// construct proxy from _Alval
; 627  : 		typename _Alloc::template rebind<_Container_proxy>::other
; 628  : 			_Alproxy;
; 629  : 		this->_Myproxy = _Alproxy.allocate(1);
; 630  : 		_Alproxy.construct(this->_Myproxy, _Container_proxy());
; 631  : 		this->_Myproxy->_Mycont = this;
; 632  : 		}
; 633  : 
; 634  : 	void _Free_proxy()
; 635  : 		{	// destroy proxy
; 636  : 		typename _Alloc::template rebind<_Container_proxy>::other
; 637  : 			_Alproxy;
; 638  : 		this->_Orphan_all();
; 639  : 		_Alproxy.destroy(this->_Myproxy);
; 640  : 		_Alproxy.deallocate(this->_Myproxy, 1);
; 641  : 		this->_Myproxy = 0;
; 642  : 		}
