; Listing generated by Microsoft (R) Optimizing Compiler Version 17.00.61030.0 

include listing.inc

INCLUDELIB OLDNAMES

PUBLIC	??_7Task@Tasks@@6B@				; Tasks::Task::`vftable'
PUBLIC	??_R2TaskVBOVAOSet@Tasks@@8			; Tasks::TaskVBOVAOSet::`RTTI Base Class Array'
PUBLIC	??_R0?AVTask@Tasks@@@8				; Tasks::Task `RTTI Type Descriptor'
PUBLIC	??_R3TaskVBOVAOSet@Tasks@@8			; Tasks::TaskVBOVAOSet::`RTTI Class Hierarchy Descriptor'
PUBLIC	??_R4TaskVBOVAOSet@Tasks@@6B@			; Tasks::TaskVBOVAOSet::`RTTI Complete Object Locator'
PUBLIC	??_R1A@?0A@EA@Task@Tasks@@8			; Tasks::Task::`RTTI Base Class Descriptor at (0,-1,0,64)'
PUBLIC	??_R4Task@Tasks@@6B@				; Tasks::Task::`RTTI Complete Object Locator'
PUBLIC	??_7TaskVBOVAOSet@Tasks@@6B@			; Tasks::TaskVBOVAOSet::`vftable'
PUBLIC	??_R1A@?0A@EA@TaskVBOVAOSet@Tasks@@8		; Tasks::TaskVBOVAOSet::`RTTI Base Class Descriptor at (0,-1,0,64)'
PUBLIC	??_R0?AVTaskVBOVAOSet@Tasks@@@8			; Tasks::TaskVBOVAOSet `RTTI Type Descriptor'
PUBLIC	??_R2Task@Tasks@@8				; Tasks::Task::`RTTI Base Class Array'
PUBLIC	??_R3Task@Tasks@@8				; Tasks::Task::`RTTI Class Hierarchy Descriptor'
;	COMDAT ??_R3Task@Tasks@@8
rdata$r	SEGMENT
??_R3Task@Tasks@@8 DD 00H				; Tasks::Task::`RTTI Class Hierarchy Descriptor'
	DD	00H
	DD	01H
	DD	imagerel ??_R2Task@Tasks@@8
rdata$r	ENDS
;	COMDAT ??_R2Task@Tasks@@8
rdata$r	SEGMENT
??_R2Task@Tasks@@8 DD imagerel ??_R1A@?0A@EA@Task@Tasks@@8 ; Tasks::Task::`RTTI Base Class Array'
	ORG $+3
rdata$r	ENDS
;	COMDAT ??_R0?AVTaskVBOVAOSet@Tasks@@@8
_DATA	SEGMENT
??_R0?AVTaskVBOVAOSet@Tasks@@@8 DQ FLAT:??_7type_info@@6B@ ; Tasks::TaskVBOVAOSet `RTTI Type Descriptor'
	DQ	0000000000000000H
	DB	'.?AVTaskVBOVAOSet@Tasks@@', 00H
_DATA	ENDS
;	COMDAT ??_R1A@?0A@EA@TaskVBOVAOSet@Tasks@@8
rdata$r	SEGMENT
??_R1A@?0A@EA@TaskVBOVAOSet@Tasks@@8 DD imagerel ??_R0?AVTaskVBOVAOSet@Tasks@@@8 ; Tasks::TaskVBOVAOSet::`RTTI Base Class Descriptor at (0,-1,0,64)'
	DD	01H
	DD	00H
	DD	0ffffffffH
	DD	00H
	DD	040H
	DD	imagerel ??_R3TaskVBOVAOSet@Tasks@@8
rdata$r	ENDS
;	COMDAT ??_7TaskVBOVAOSet@Tasks@@6B@
CONST	SEGMENT
??_7TaskVBOVAOSet@Tasks@@6B@ DQ FLAT:??_R4TaskVBOVAOSet@Tasks@@6B@ ; Tasks::TaskVBOVAOSet::`vftable'
	DQ	FLAT:?invoke@TaskVBOVAOSet@Tasks@@UEAA_NXZ
CONST	ENDS
;	COMDAT ??_R4Task@Tasks@@6B@
rdata$r	SEGMENT
??_R4Task@Tasks@@6B@ DD 01H				; Tasks::Task::`RTTI Complete Object Locator'
	DD	00H
	DD	00H
	DD	imagerel ??_R0?AVTask@Tasks@@@8
	DD	imagerel ??_R3Task@Tasks@@8
	DD	imagerel ??_R4Task@Tasks@@6B@
rdata$r	ENDS
;	COMDAT ??_R1A@?0A@EA@Task@Tasks@@8
rdata$r	SEGMENT
??_R1A@?0A@EA@Task@Tasks@@8 DD imagerel ??_R0?AVTask@Tasks@@@8 ; Tasks::Task::`RTTI Base Class Descriptor at (0,-1,0,64)'
	DD	00H
	DD	00H
	DD	0ffffffffH
	DD	00H
	DD	040H
	DD	imagerel ??_R3Task@Tasks@@8
rdata$r	ENDS
;	COMDAT ??_R4TaskVBOVAOSet@Tasks@@6B@
rdata$r	SEGMENT
??_R4TaskVBOVAOSet@Tasks@@6B@ DD 01H			; Tasks::TaskVBOVAOSet::`RTTI Complete Object Locator'
	DD	00H
	DD	00H
	DD	imagerel ??_R0?AVTaskVBOVAOSet@Tasks@@@8
	DD	imagerel ??_R3TaskVBOVAOSet@Tasks@@8
	DD	imagerel ??_R4TaskVBOVAOSet@Tasks@@6B@
rdata$r	ENDS
;	COMDAT ??_R3TaskVBOVAOSet@Tasks@@8
rdata$r	SEGMENT
??_R3TaskVBOVAOSet@Tasks@@8 DD 00H			; Tasks::TaskVBOVAOSet::`RTTI Class Hierarchy Descriptor'
	DD	00H
	DD	02H
	DD	imagerel ??_R2TaskVBOVAOSet@Tasks@@8
rdata$r	ENDS
;	COMDAT ??_R0?AVTask@Tasks@@@8
_DATA	SEGMENT
??_R0?AVTask@Tasks@@@8 DQ FLAT:??_7type_info@@6B@	; Tasks::Task `RTTI Type Descriptor'
	DQ	0000000000000000H
	DB	'.?AVTask@Tasks@@', 00H
_DATA	ENDS
;	COMDAT ??_R2TaskVBOVAOSet@Tasks@@8
rdata$r	SEGMENT
??_R2TaskVBOVAOSet@Tasks@@8 DD imagerel ??_R1A@?0A@EA@TaskVBOVAOSet@Tasks@@8 ; Tasks::TaskVBOVAOSet::`RTTI Base Class Array'
	DD	imagerel ??_R1A@?0A@EA@Task@Tasks@@8
	ORG $+3
rdata$r	ENDS
;	COMDAT ??_7Task@Tasks@@6B@
CONST	SEGMENT
??_7Task@Tasks@@6B@ DQ FLAT:??_R4Task@Tasks@@6B@	; Tasks::Task::`vftable'
	DQ	FLAT:?invoke@Task@Tasks@@UEAA_NXZ
PUBLIC	?invoke@TaskVBOVAOSet@Tasks@@UEAA_NXZ		; Tasks::TaskVBOVAOSet::invoke
PUBLIC	??0Task@Tasks@@QEAA@XZ				; Tasks::Task::Task
PUBLIC	??0TaskVBOVAOSet@Tasks@@QEAA@II@Z		; Tasks::TaskVBOVAOSet::TaskVBOVAOSet
PUBLIC	?invoke@Task@Tasks@@UEAA_NXZ			; Tasks::Task::invoke
	ALIGN	4

_Tuple_alloc DB	01H DUP (?)
	ALIGN	4

ignore	DB	01H DUP (?)
	ALIGN	4

allocator_arg DB 01H DUP (?)
	ALIGN	4

piecewise_construct DB 01H DUP (?)
_BSS	ENDS
;	COMDAT pdata
pdata	SEGMENT
$pdata$?invoke@TaskVBOVAOSet@Tasks@@UEAA_NXZ DD imagerel $LN4
	DD	imagerel $LN4+47
	DD	imagerel $unwind$?invoke@TaskVBOVAOSet@Tasks@@UEAA_NXZ
;	COMDAT xdata
xdata	SEGMENT
$unwind$?invoke@TaskVBOVAOSet@Tasks@@UEAA_NXZ DD 020601H
	DD	030023206H
; Function compile flags: /Ogtp
; File c:\users\glenn\documents\github\wind\project\wind\wind\task.cpp
;	COMDAT ?invoke@Task@Tasks@@UEAA_NXZ
_TEXT	SEGMENT
this$ = 8
?invoke@Task@Tasks@@UEAA_NXZ PROC			; Tasks::Task::invoke, COMDAT

; 7    : 	return false;

  00000	32 c0		 xor	 al, al

; 8    : }

  00002	c3		 ret	 0
?invoke@Task@Tasks@@UEAA_NXZ ENDP			; Tasks::Task::invoke
_TEXT	ENDS
; Function compile flags: /Ogtp
; File c:\users\glenn\documents\github\wind\project\wind\wind\task.cpp
;	COMDAT ??0TaskVBOVAOSet@Tasks@@QEAA@II@Z
_TEXT	SEGMENT
this$ = 8
vbo$ = 16
vao$ = 24
??0TaskVBOVAOSet@Tasks@@QEAA@II@Z PROC			; Tasks::TaskVBOVAOSet::TaskVBOVAOSet, COMDAT

; 13   : {

  00000	48 8d 05 00 00
	00 00		 lea	 rax, OFFSET FLAT:??_7TaskVBOVAOSet@Tasks@@6B@
  00007	89 51 08	 mov	 DWORD PTR [rcx+8], edx
  0000a	44 89 41 0c	 mov	 DWORD PTR [rcx+12], r8d
  0000e	48 89 01	 mov	 QWORD PTR [rcx], rax

; 14   : 
; 15   : }

  00011	48 8b c1	 mov	 rax, rcx
  00014	c3		 ret	 0
??0TaskVBOVAOSet@Tasks@@QEAA@II@Z ENDP			; Tasks::TaskVBOVAOSet::TaskVBOVAOSet
_TEXT	ENDS
; Function compile flags: /Ogtp
;	COMDAT ??0Task@Tasks@@QEAA@XZ
_TEXT	SEGMENT
this$ = 8
??0Task@Tasks@@QEAA@XZ PROC				; Tasks::Task::Task, COMDAT
  00000	48 8d 05 00 00
	00 00		 lea	 rax, OFFSET FLAT:??_7Task@Tasks@@6B@
  00007	48 89 01	 mov	 QWORD PTR [rcx], rax
  0000a	48 8b c1	 mov	 rax, rcx
  0000d	c3		 ret	 0
??0Task@Tasks@@QEAA@XZ ENDP				; Tasks::Task::Task
_TEXT	ENDS
; Function compile flags: /Ogtp
; File c:\users\glenn\documents\github\wind\project\wind\wind\task.cpp
;	COMDAT ?invoke@TaskVBOVAOSet@Tasks@@UEAA_NXZ
_TEXT	SEGMENT
this$ = 48
?invoke@TaskVBOVAOSet@Tasks@@UEAA_NXZ PROC		; Tasks::TaskVBOVAOSet::invoke, COMDAT

; 18   : {

$LN4:
  00000	40 53		 push	 rbx
  00002	48 83 ec 20	 sub	 rsp, 32			; 00000020H

; 19   : 	glDeleteVertexArrays(1, &vao);

  00006	48 8d 51 0c	 lea	 rdx, QWORD PTR [rcx+12]
  0000a	48 8b d9	 mov	 rbx, rcx
  0000d	b9 01 00 00 00	 mov	 ecx, 1
  00012	ff 15 00 00 00
	00		 call	 QWORD PTR __glewDeleteVertexArrays

; 20   : 	glDeleteBuffers(1, &vbo);

  00018	48 8d 53 08	 lea	 rdx, QWORD PTR [rbx+8]
  0001c	b9 01 00 00 00	 mov	 ecx, 1
  00021	ff 15 00 00 00
	00		 call	 QWORD PTR __glewDeleteBuffers

; 21   : 	return true;

  00027	b0 01		 mov	 al, 1

; 22   : }

  00029	48 83 c4 20	 add	 rsp, 32			; 00000020H
  0002d	5b		 pop	 rbx
  0002e	c3		 ret	 0
?invoke@TaskVBOVAOSet@Tasks@@UEAA_NXZ ENDP		; Tasks::TaskVBOVAOSet::invoke
_TEXT	ENDS
END
